                                      1 ;--------------------------------------------------------
                                      2 ; File Created by SDCC : free open source ANSI-C Compiler
                                      3 ; Version 3.3.1 #8804 (Aug  6 2013) (Linux)
                                      4 ; This file was generated Tue Feb 10 06:19:57 2015
                                      5 ;--------------------------------------------------------
                                      6 	.module usb_arch
                                      7 	.optsdcc -mmcs51 --model-large
                                      8 	
                                      9 ;--------------------------------------------------------
                                     10 ; Public variables in this module
                                     11 ;--------------------------------------------------------
                                     12 	.globl _usb_arch_setup_iso_endpoint
                                     13 	.globl _cc253x_p2_register_handler
                                     14 	.globl _usb_disable_endpoint
                                     15 	.globl _process_interrupt
                                     16 	.globl _ACTIVE
                                     17 	.globl _TX_BYTE
                                     18 	.globl _RX_BYTE
                                     19 	.globl _ERR
                                     20 	.globl _FE
                                     21 	.globl _SLAVE
                                     22 	.globl _RE
                                     23 	.globl _MODE
                                     24 	.globl _T3OVFIF
                                     25 	.globl _T3CH0IF
                                     26 	.globl _T3CH1IF
                                     27 	.globl _T4OVFIF
                                     28 	.globl _T4CH0IF
                                     29 	.globl _T4CH1IF
                                     30 	.globl _OVFIM
                                     31 	.globl _B_0
                                     32 	.globl _B_1
                                     33 	.globl _B_2
                                     34 	.globl _B_3
                                     35 	.globl _B_4
                                     36 	.globl _B_5
                                     37 	.globl _B_6
                                     38 	.globl _B_7
                                     39 	.globl _P2IF
                                     40 	.globl _UTX0IF
                                     41 	.globl _UTX1IF
                                     42 	.globl _P1IF
                                     43 	.globl _WDTIF
                                     44 	.globl _ACC_0
                                     45 	.globl _ACC_1
                                     46 	.globl _ACC_2
                                     47 	.globl _ACC_3
                                     48 	.globl _ACC_4
                                     49 	.globl _ACC_5
                                     50 	.globl _ACC_6
                                     51 	.globl _ACC_7
                                     52 	.globl _P
                                     53 	.globl _F1
                                     54 	.globl _OV
                                     55 	.globl _RS0
                                     56 	.globl _RS1
                                     57 	.globl _F0
                                     58 	.globl _AC
                                     59 	.globl _CY
                                     60 	.globl _DMAIF
                                     61 	.globl _T1IF
                                     62 	.globl _T2IF
                                     63 	.globl _T3IF
                                     64 	.globl _T4IF
                                     65 	.globl _P0IF
                                     66 	.globl _STIF
                                     67 	.globl _DMAIE
                                     68 	.globl _T1IE
                                     69 	.globl _T2IE
                                     70 	.globl _T3IE
                                     71 	.globl _T4IE
                                     72 	.globl _P0IE
                                     73 	.globl _RFERRIE
                                     74 	.globl _ADCIE
                                     75 	.globl _URX0IE
                                     76 	.globl _URX1IE
                                     77 	.globl _ENCIE
                                     78 	.globl _STIE
                                     79 	.globl _EA
                                     80 	.globl _P2_0
                                     81 	.globl _P2_1
                                     82 	.globl _P2_2
                                     83 	.globl _P2_3
                                     84 	.globl _P2_4
                                     85 	.globl _P2_5
                                     86 	.globl _P2_6
                                     87 	.globl _P2_7
                                     88 	.globl _ENCIF_0
                                     89 	.globl _ENCIF_1
                                     90 	.globl _P1_0
                                     91 	.globl _P1_1
                                     92 	.globl _P1_2
                                     93 	.globl _P1_3
                                     94 	.globl _P1_4
                                     95 	.globl _P1_5
                                     96 	.globl _P1_6
                                     97 	.globl _P1_7
                                     98 	.globl _IT0
                                     99 	.globl _RFERRIF
                                    100 	.globl _IT1
                                    101 	.globl _URX0IF
                                    102 	.globl _ADCIF
                                    103 	.globl _URX1IF
                                    104 	.globl _P0_0
                                    105 	.globl _P0_1
                                    106 	.globl _P0_2
                                    107 	.globl _P0_3
                                    108 	.globl _P0_4
                                    109 	.globl _P0_5
                                    110 	.globl _P0_6
                                    111 	.globl _P0_7
                                    112 	.globl _WDCTL
                                    113 	.globl _U1GCR
                                    114 	.globl _U1UCR
                                    115 	.globl _U1BAUD
                                    116 	.globl _U1DBUF
                                    117 	.globl _U1CSR
                                    118 	.globl _U0GCR
                                    119 	.globl _U0UCR
                                    120 	.globl _U0BAUD
                                    121 	.globl _U0DBUF
                                    122 	.globl _U0CSR
                                    123 	.globl _TIMIF
                                    124 	.globl _T4CC1
                                    125 	.globl _T4CCTL1
                                    126 	.globl _T4CC0
                                    127 	.globl _T4CCTL0
                                    128 	.globl _T4CTL
                                    129 	.globl _T4CNT
                                    130 	.globl _T3CC1
                                    131 	.globl _T3CCTL1
                                    132 	.globl _T3CC0
                                    133 	.globl _T3CCTL0
                                    134 	.globl _T3CTL
                                    135 	.globl _T3CNT
                                    136 	.globl _T2MSEL
                                    137 	.globl _T2IRQM
                                    138 	.globl _T2MOVF2
                                    139 	.globl _T2MOVF1
                                    140 	.globl _T2MOVF0
                                    141 	.globl _T2M1
                                    142 	.globl _T2M0
                                    143 	.globl _T2IRQF
                                    144 	.globl _T2EVTCFG
                                    145 	.globl _T2CTRL
                                    146 	.globl _T1STAT
                                    147 	.globl _T1CCTL2
                                    148 	.globl _T1CCTL1
                                    149 	.globl _T1CCTL0
                                    150 	.globl _T1CTL
                                    151 	.globl _T1CNTH
                                    152 	.globl _T1CNTL
                                    153 	.globl _T1CC2H
                                    154 	.globl _T1CC2L
                                    155 	.globl _T1CC1H
                                    156 	.globl _T1CC1L
                                    157 	.globl _T1CC0H
                                    158 	.globl _T1CC0L
                                    159 	.globl _CLKCONSTA
                                    160 	.globl _CLKCONCMD
                                    161 	.globl _SLEEPSTA
                                    162 	.globl _SLEEPCMD
                                    163 	.globl _STLOAD
                                    164 	.globl _ST2
                                    165 	.globl _ST1
                                    166 	.globl _ST0
                                    167 	.globl _RFERRF
                                    168 	.globl _RFIRQF0
                                    169 	.globl _RFST
                                    170 	.globl _RFD
                                    171 	.globl _RFIRQF1
                                    172 	.globl _PSBANK
                                    173 	.globl _FMAP
                                    174 	.globl _MEMCTR
                                    175 	.globl __XPAGE
                                    176 	.globl _MPAGE
                                    177 	.globl _PMUX
                                    178 	.globl _P2DIR
                                    179 	.globl _P1DIR
                                    180 	.globl _P0DIR
                                    181 	.globl _P2INP
                                    182 	.globl _P1INP
                                    183 	.globl _P2SEL
                                    184 	.globl _P1SEL
                                    185 	.globl _P0SEL
                                    186 	.globl _APCFG
                                    187 	.globl _PERCFG
                                    188 	.globl _P0INP
                                    189 	.globl _P2IEN
                                    190 	.globl _P1IEN
                                    191 	.globl _P0IEN
                                    192 	.globl _PICTL
                                    193 	.globl _P2IFG
                                    194 	.globl _P1IFG
                                    195 	.globl _P0IFG
                                    196 	.globl _DMAREQ
                                    197 	.globl _DMAARM
                                    198 	.globl _DMA0CFGH
                                    199 	.globl _DMA0CFGL
                                    200 	.globl _DMA1CFGH
                                    201 	.globl _DMA1CFGL
                                    202 	.globl _DMAIRQ
                                    203 	.globl _ENCCS
                                    204 	.globl _ENCDO
                                    205 	.globl _ENCDI
                                    206 	.globl _RNDH
                                    207 	.globl _RNDL
                                    208 	.globl _ADCH
                                    209 	.globl _ADCL
                                    210 	.globl _ADCCON3
                                    211 	.globl _ADCCON2
                                    212 	.globl _ADCCON1
                                    213 	.globl _B
                                    214 	.globl _IRCON2
                                    215 	.globl _ACC
                                    216 	.globl _PSW
                                    217 	.globl _IRCON
                                    218 	.globl _IP1
                                    219 	.globl _IEN1
                                    220 	.globl _IP0
                                    221 	.globl _IEN0
                                    222 	.globl _P2
                                    223 	.globl _S1CON
                                    224 	.globl _IEN2
                                    225 	.globl _S0CON
                                    226 	.globl _DPS
                                    227 	.globl _P1
                                    228 	.globl _TCON
                                    229 	.globl _PCON
                                    230 	.globl _DPH1
                                    231 	.globl _DPL1
                                    232 	.globl _DPH0
                                    233 	.globl _DPL0
                                    234 	.globl _SP
                                    235 	.globl _P0
                                    236 	.globl _event_process
                                    237 	.globl _X_IEEE_ADDR
                                    238 	.globl _X_INFOPAGE
                                    239 	.globl _X_P2DIR
                                    240 	.globl _X_P1DIR
                                    241 	.globl _X_P0DIR
                                    242 	.globl _X_U1GCR
                                    243 	.globl _X_U1UCR
                                    244 	.globl _X_U1BAUD
                                    245 	.globl _X_U1DBUF
                                    246 	.globl _X_U1CSR
                                    247 	.globl _X_P2INP
                                    248 	.globl _X_P1INP
                                    249 	.globl _X_P2SEL
                                    250 	.globl _X_P1SEL
                                    251 	.globl _X_P0SEL
                                    252 	.globl _X_APCFG
                                    253 	.globl _X_PERCFG
                                    254 	.globl _X_T4CC1
                                    255 	.globl _X_T4CCTL1
                                    256 	.globl _X_T4CC0
                                    257 	.globl _X_T4CCTL0
                                    258 	.globl _X_T4CTL
                                    259 	.globl _X_T4CNT
                                    260 	.globl _X_RFIRQF0
                                    261 	.globl _X_T1CCTL2
                                    262 	.globl _X_T1CCTL1
                                    263 	.globl _X_T1CCTL0
                                    264 	.globl _X_T1CTL
                                    265 	.globl _X_T1CNTH
                                    266 	.globl _X_T1CNTL
                                    267 	.globl _X_RFST
                                    268 	.globl _X_T1CC2H
                                    269 	.globl _X_T1CC2L
                                    270 	.globl _X_T1CC1H
                                    271 	.globl _X_T1CC1L
                                    272 	.globl _X_T1CC0H
                                    273 	.globl _X_T1CC0L
                                    274 	.globl _X_RFD
                                    275 	.globl _X_TIMIF
                                    276 	.globl _X_DMAREQ
                                    277 	.globl _X_DMAARM
                                    278 	.globl _X_DMA0CFGH
                                    279 	.globl _X_DMA0CFGL
                                    280 	.globl _X_DMA1CFGH
                                    281 	.globl _X_DMA1CFGL
                                    282 	.globl _X_DMAIRQ
                                    283 	.globl _X_T3CC1
                                    284 	.globl _X_T3CCTL1
                                    285 	.globl _X_T3CC0
                                    286 	.globl _X_T3CCTL0
                                    287 	.globl _X_T3CTL
                                    288 	.globl _X_T3CNT
                                    289 	.globl _X_WDCTL
                                    290 	.globl _X_MEMCTR
                                    291 	.globl _X_CLKCONCMD
                                    292 	.globl _X_U0GCR
                                    293 	.globl _X_U0UCR
                                    294 	.globl _X_T2MSEL
                                    295 	.globl _X_U0BAUD
                                    296 	.globl _X_U0DBUF
                                    297 	.globl _X_RFERRF
                                    298 	.globl _X_SLEEPCMD
                                    299 	.globl _X_RNDH
                                    300 	.globl _X_RNDL
                                    301 	.globl _X_ADCH
                                    302 	.globl _X_ADCL
                                    303 	.globl _X_ADCCON3
                                    304 	.globl _X_ADCCON2
                                    305 	.globl _X_ADCCON1
                                    306 	.globl _X_ENCCS
                                    307 	.globl _X_ENCDO
                                    308 	.globl _X_ENCDI
                                    309 	.globl _X_T1STAT
                                    310 	.globl _X_PMUX
                                    311 	.globl _X_STLOAD
                                    312 	.globl _X_P2IEN
                                    313 	.globl _X_P0IEN
                                    314 	.globl _X_T2IRQM
                                    315 	.globl _X_T2MOVF2
                                    316 	.globl _X_T2MOVF1
                                    317 	.globl _X_T2MOVF0
                                    318 	.globl _X_T2M1
                                    319 	.globl _X_T2M0
                                    320 	.globl _X_T2IRQF
                                    321 	.globl _X_P2
                                    322 	.globl _X_PSBANK
                                    323 	.globl _X_FMAP
                                    324 	.globl _X_CLKCONSTA
                                    325 	.globl _X_SLEEPSTA
                                    326 	.globl _X_T2EVTCFG
                                    327 	.globl _X_ST2
                                    328 	.globl _X_ST1
                                    329 	.globl _X_ST0
                                    330 	.globl _X_T2CTRL
                                    331 	.globl _X__XPAGE
                                    332 	.globl _X_MPAGE
                                    333 	.globl _X_RFIRQF1
                                    334 	.globl _X_P1
                                    335 	.globl _X_P0INP
                                    336 	.globl _X_P1IEN
                                    337 	.globl _X_PICTL
                                    338 	.globl _X_P2IFG
                                    339 	.globl _X_P1IFG
                                    340 	.globl _X_P0IFG
                                    341 	.globl _X_U0CSR
                                    342 	.globl _X_P0
                                    343 	.globl _USBF5
                                    344 	.globl _USBF4
                                    345 	.globl _USBF3
                                    346 	.globl _USBF2
                                    347 	.globl _USBF1
                                    348 	.globl _USBF0
                                    349 	.globl _USBCNTH
                                    350 	.globl _USBCNTL
                                    351 	.globl _USBCNT0
                                    352 	.globl _USBCSOH
                                    353 	.globl _USBCSOL
                                    354 	.globl _USBMAXO
                                    355 	.globl _USBCSIH
                                    356 	.globl _USBCSIL
                                    357 	.globl _USBCS0
                                    358 	.globl _USBMAXI
                                    359 	.globl _USBCTRL
                                    360 	.globl _USBINDEX
                                    361 	.globl _USBFRMH
                                    362 	.globl _USBFRML
                                    363 	.globl _USBCIE
                                    364 	.globl _USBOIE
                                    365 	.globl _USBIIE
                                    366 	.globl _USBCIF
                                    367 	.globl _USBOIF
                                    368 	.globl _USBIIF
                                    369 	.globl _USBPOW
                                    370 	.globl _USBADDR
                                    371 	.globl _CSPT
                                    372 	.globl _CSPZ
                                    373 	.globl _CSPY
                                    374 	.globl _CSPX
                                    375 	.globl _CSPSTAT
                                    376 	.globl _CSPCTRL
                                    377 	.globl _CSPPROG23
                                    378 	.globl _CSPPROG22
                                    379 	.globl _CSPPROG21
                                    380 	.globl _CSPPROG20
                                    381 	.globl _CSPPROG19
                                    382 	.globl _CSPPROG18
                                    383 	.globl _CSPPROG17
                                    384 	.globl _CSPPROG16
                                    385 	.globl _CSPPROG15
                                    386 	.globl _CSPPROG14
                                    387 	.globl _CSPPROG13
                                    388 	.globl _CSPPROG12
                                    389 	.globl _CSPPROG11
                                    390 	.globl _CSPPROG10
                                    391 	.globl _CSPPROG9
                                    392 	.globl _CSPPROG8
                                    393 	.globl _CSPPROG7
                                    394 	.globl _CSPPROG6
                                    395 	.globl _CSPPROG5
                                    396 	.globl _CSPPROG4
                                    397 	.globl _CSPPROG3
                                    398 	.globl _CSPPROG2
                                    399 	.globl _CSPPROG1
                                    400 	.globl _CSPPROG0
                                    401 	.globl _RFC_OBS_CTRL2
                                    402 	.globl _RFC_OBS_CTRL1
                                    403 	.globl _RFC_OBS_CTRL0
                                    404 	.globl _TXFILTCFG
                                    405 	.globl _PTEST1
                                    406 	.globl _PTEST0
                                    407 	.globl _ATEST
                                    408 	.globl _DACTEST2
                                    409 	.globl _DACTEST1
                                    410 	.globl _DACTEST0
                                    411 	.globl _MDMTEST1
                                    412 	.globl _MDMTEST0
                                    413 	.globl _ADCTEST2
                                    414 	.globl _ADCTEST1
                                    415 	.globl _ADCTEST0
                                    416 	.globl _AGCCTRL3
                                    417 	.globl _AGCCTRL2
                                    418 	.globl _AGCCTRL1
                                    419 	.globl _AGCCTRL0
                                    420 	.globl _FSCAL3
                                    421 	.globl _FSCAL2
                                    422 	.globl _FSCAL1
                                    423 	.globl _FSCAL0
                                    424 	.globl _FSCTRL
                                    425 	.globl _RXCTRL
                                    426 	.globl _FREQEST
                                    427 	.globl _MDMCTRL1
                                    428 	.globl _MDMCTRL0
                                    429 	.globl _RFRND
                                    430 	.globl _RFERRM
                                    431 	.globl _RFIRQM1
                                    432 	.globl _RFIRQM0
                                    433 	.globl _TXLAST_PTR
                                    434 	.globl _TXFIRST_PTR
                                    435 	.globl _RXP1_PTR
                                    436 	.globl _RXLAST_PTR
                                    437 	.globl _RXFIRST_PTR
                                    438 	.globl _TXFIFOCNT
                                    439 	.globl _RXFIFOCNT
                                    440 	.globl _RXFIRST
                                    441 	.globl _RSSISTAT
                                    442 	.globl _RSSI
                                    443 	.globl _CCACTRL1
                                    444 	.globl _CCACTRL0
                                    445 	.globl _FSMCTRL
                                    446 	.globl _FIFOPCTRL
                                    447 	.globl _FSMSTAT1
                                    448 	.globl _FSMSTAT0
                                    449 	.globl _TXCTRL
                                    450 	.globl _TXPOWER
                                    451 	.globl _FREQCTRL
                                    452 	.globl _FREQTUNE
                                    453 	.globl _RXMASKCLR
                                    454 	.globl _RXMASKSET
                                    455 	.globl _RXENABLE
                                    456 	.globl _FRMCTRL1
                                    457 	.globl _FRMCTRL0
                                    458 	.globl _SRCEXTEN2
                                    459 	.globl _SRCEXTEN1
                                    460 	.globl _SRCEXTEN0
                                    461 	.globl _SRCSHORTEN2
                                    462 	.globl _SRCSHORTEN1
                                    463 	.globl _SRCSHORTEN0
                                    464 	.globl _SRCMATCH
                                    465 	.globl _FRMFILT1
                                    466 	.globl _FRMFILT0
                                    467 	.globl _SHORT_ADDR1
                                    468 	.globl _SHORT_ADDR0
                                    469 	.globl _PAN_ID1
                                    470 	.globl _PAN_ID0
                                    471 	.globl _EXT_ADDR7
                                    472 	.globl _EXT_ADDR6
                                    473 	.globl _EXT_ADDR5
                                    474 	.globl _EXT_ADDR4
                                    475 	.globl _EXT_ADDR3
                                    476 	.globl _EXT_ADDR2
                                    477 	.globl _EXT_ADDR1
                                    478 	.globl _EXT_ADDR0
                                    479 	.globl _SRCSHORTPENDEN2
                                    480 	.globl _SRCSHORTPENDEN1
                                    481 	.globl _SRCSHORTPENDEN0
                                    482 	.globl _SRCEXTPENDEN2
                                    483 	.globl _SRCEXTPENDEN1
                                    484 	.globl _SRCEXTPENDEN0
                                    485 	.globl _SRCRESINDEX
                                    486 	.globl _SRCRESMASK2
                                    487 	.globl _SRCRESMASK1
                                    488 	.globl _SRCRESMASK0
                                    489 	.globl _SRC_ADDR_TABLE
                                    490 	.globl _TXFIFO
                                    491 	.globl _RXFIFO
                                    492 	.globl _RFCORE_RAM
                                    493 	.globl _CMPCTL
                                    494 	.globl _OPAMPS
                                    495 	.globl _OPAMPC
                                    496 	.globl _STCV2
                                    497 	.globl _STCV1
                                    498 	.globl _STCV0
                                    499 	.globl _STCS
                                    500 	.globl _STCC
                                    501 	.globl _T1CC4H
                                    502 	.globl _T1CC4L
                                    503 	.globl _T1CC3H
                                    504 	.globl _T1CC3L
                                    505 	.globl _XX_T1CC2H
                                    506 	.globl _XX_T1CC2L
                                    507 	.globl _XX_T1CC1H
                                    508 	.globl _XX_T1CC1L
                                    509 	.globl _XX_T1CC0H
                                    510 	.globl _XX_T1CC0L
                                    511 	.globl _T1CCTL4
                                    512 	.globl _T1CCTL3
                                    513 	.globl _XX_T1CCTL2
                                    514 	.globl _XX_T1CCTL1
                                    515 	.globl _XX_T1CCTL0
                                    516 	.globl _CLD
                                    517 	.globl _IRCTL
                                    518 	.globl _CHIPINFO1
                                    519 	.globl _CHIPINFO0
                                    520 	.globl _FWDATA
                                    521 	.globl _FADDRH
                                    522 	.globl _FADDRL
                                    523 	.globl _FCTL
                                    524 	.globl _IVCTRL
                                    525 	.globl _BATTMON
                                    526 	.globl _SRCRC
                                    527 	.globl _DBGDATA
                                    528 	.globl _TESTREG0
                                    529 	.globl _CHIPID
                                    530 	.globl _CHVER
                                    531 	.globl _OBSSEL5
                                    532 	.globl _OBSSEL4
                                    533 	.globl _OBSSEL3
                                    534 	.globl _OBSSEL2
                                    535 	.globl _OBSSEL1
                                    536 	.globl _OBSSEL0
                                    537 	.globl _I2CIO
                                    538 	.globl _I2CWC
                                    539 	.globl _I2CADDR
                                    540 	.globl _I2CDATA
                                    541 	.globl _I2CSTAT
                                    542 	.globl _I2CCFG
                                    543 	.globl _OPAMPMC
                                    544 	.globl _MONMUX
                                    545 	.globl _usb_set_ep_event_process
                                    546 	.globl _usb_arch_set_global_event_process
                                    547 	.globl _usb_arch_get_global_events
                                    548 	.globl _usb_get_ep_events
                                    549 	.globl _usb_arch_setup
                                    550 	.globl _usb_submit_recv_buffer
                                    551 	.globl _usb_submit_xmit_buffer
                                    552 	.globl _usb_arch_setup_control_endpoint
                                    553 	.globl _usb_arch_setup_bulk_endpoint
                                    554 	.globl _usb_arch_setup_interrupt_endpoint
                                    555 	.globl _usb_arch_disable_endpoint
                                    556 	.globl _usb_arch_discard_all_buffers
                                    557 	.globl _usb_arch_control_stall
                                    558 	.globl _usb_arch_halt_endpoint
                                    559 	.globl _usb_arch_set_configuration
                                    560 	.globl _usb_arch_get_ep_status
                                    561 	.globl _usb_arch_set_address
                                    562 	.globl _usb_arch_send_pending
                                    563 ;--------------------------------------------------------
                                    564 ; special function registers
                                    565 ;--------------------------------------------------------
                                    566 	.area RSEG    (ABS,DATA)
      000000                        567 	.org 0x0000
                           000080   568 _P0	=	0x0080
                           000081   569 _SP	=	0x0081
                           000082   570 _DPL0	=	0x0082
                           000083   571 _DPH0	=	0x0083
                           000084   572 _DPL1	=	0x0084
                           000085   573 _DPH1	=	0x0085
                           000087   574 _PCON	=	0x0087
                           000088   575 _TCON	=	0x0088
                           000090   576 _P1	=	0x0090
                           000092   577 _DPS	=	0x0092
                           000098   578 _S0CON	=	0x0098
                           00009A   579 _IEN2	=	0x009a
                           00009B   580 _S1CON	=	0x009b
                           0000A0   581 _P2	=	0x00a0
                           0000A8   582 _IEN0	=	0x00a8
                           0000A9   583 _IP0	=	0x00a9
                           0000B8   584 _IEN1	=	0x00b8
                           0000B9   585 _IP1	=	0x00b9
                           0000C0   586 _IRCON	=	0x00c0
                           0000D0   587 _PSW	=	0x00d0
                           0000E0   588 _ACC	=	0x00e0
                           0000E8   589 _IRCON2	=	0x00e8
                           0000F0   590 _B	=	0x00f0
                           0000B4   591 _ADCCON1	=	0x00b4
                           0000B5   592 _ADCCON2	=	0x00b5
                           0000B6   593 _ADCCON3	=	0x00b6
                           0000BA   594 _ADCL	=	0x00ba
                           0000BB   595 _ADCH	=	0x00bb
                           0000BC   596 _RNDL	=	0x00bc
                           0000BD   597 _RNDH	=	0x00bd
                           0000B1   598 _ENCDI	=	0x00b1
                           0000B2   599 _ENCDO	=	0x00b2
                           0000B3   600 _ENCCS	=	0x00b3
                           0000D1   601 _DMAIRQ	=	0x00d1
                           0000D2   602 _DMA1CFGL	=	0x00d2
                           0000D3   603 _DMA1CFGH	=	0x00d3
                           0000D4   604 _DMA0CFGL	=	0x00d4
                           0000D5   605 _DMA0CFGH	=	0x00d5
                           0000D6   606 _DMAARM	=	0x00d6
                           0000D7   607 _DMAREQ	=	0x00d7
                           000089   608 _P0IFG	=	0x0089
                           00008A   609 _P1IFG	=	0x008a
                           00008B   610 _P2IFG	=	0x008b
                           00008C   611 _PICTL	=	0x008c
                           0000AB   612 _P0IEN	=	0x00ab
                           00008D   613 _P1IEN	=	0x008d
                           0000AC   614 _P2IEN	=	0x00ac
                           00008F   615 _P0INP	=	0x008f
                           0000F1   616 _PERCFG	=	0x00f1
                           0000F2   617 _APCFG	=	0x00f2
                           0000F3   618 _P0SEL	=	0x00f3
                           0000F4   619 _P1SEL	=	0x00f4
                           0000F5   620 _P2SEL	=	0x00f5
                           0000F6   621 _P1INP	=	0x00f6
                           0000F7   622 _P2INP	=	0x00f7
                           0000FD   623 _P0DIR	=	0x00fd
                           0000FE   624 _P1DIR	=	0x00fe
                           0000FF   625 _P2DIR	=	0x00ff
                           0000AE   626 _PMUX	=	0x00ae
                           000093   627 _MPAGE	=	0x0093
                           000093   628 __XPAGE	=	0x0093
                           0000C7   629 _MEMCTR	=	0x00c7
                           00009F   630 _FMAP	=	0x009f
                           00009F   631 _PSBANK	=	0x009f
                           000091   632 _RFIRQF1	=	0x0091
                           0000D9   633 _RFD	=	0x00d9
                           0000E1   634 _RFST	=	0x00e1
                           0000E9   635 _RFIRQF0	=	0x00e9
                           0000BF   636 _RFERRF	=	0x00bf
                           000095   637 _ST0	=	0x0095
                           000096   638 _ST1	=	0x0096
                           000097   639 _ST2	=	0x0097
                           0000AD   640 _STLOAD	=	0x00ad
                           0000BE   641 _SLEEPCMD	=	0x00be
                           00009D   642 _SLEEPSTA	=	0x009d
                           0000C6   643 _CLKCONCMD	=	0x00c6
                           00009E   644 _CLKCONSTA	=	0x009e
                           0000DA   645 _T1CC0L	=	0x00da
                           0000DB   646 _T1CC0H	=	0x00db
                           0000DC   647 _T1CC1L	=	0x00dc
                           0000DD   648 _T1CC1H	=	0x00dd
                           0000DE   649 _T1CC2L	=	0x00de
                           0000DF   650 _T1CC2H	=	0x00df
                           0000E2   651 _T1CNTL	=	0x00e2
                           0000E3   652 _T1CNTH	=	0x00e3
                           0000E4   653 _T1CTL	=	0x00e4
                           0000E5   654 _T1CCTL0	=	0x00e5
                           0000E6   655 _T1CCTL1	=	0x00e6
                           0000E7   656 _T1CCTL2	=	0x00e7
                           0000AF   657 _T1STAT	=	0x00af
                           000094   658 _T2CTRL	=	0x0094
                           00009C   659 _T2EVTCFG	=	0x009c
                           0000A1   660 _T2IRQF	=	0x00a1
                           0000A2   661 _T2M0	=	0x00a2
                           0000A3   662 _T2M1	=	0x00a3
                           0000A4   663 _T2MOVF0	=	0x00a4
                           0000A5   664 _T2MOVF1	=	0x00a5
                           0000A6   665 _T2MOVF2	=	0x00a6
                           0000A7   666 _T2IRQM	=	0x00a7
                           0000C3   667 _T2MSEL	=	0x00c3
                           0000CA   668 _T3CNT	=	0x00ca
                           0000CB   669 _T3CTL	=	0x00cb
                           0000CC   670 _T3CCTL0	=	0x00cc
                           0000CD   671 _T3CC0	=	0x00cd
                           0000CE   672 _T3CCTL1	=	0x00ce
                           0000CF   673 _T3CC1	=	0x00cf
                           0000EA   674 _T4CNT	=	0x00ea
                           0000EB   675 _T4CTL	=	0x00eb
                           0000EC   676 _T4CCTL0	=	0x00ec
                           0000ED   677 _T4CC0	=	0x00ed
                           0000EE   678 _T4CCTL1	=	0x00ee
                           0000EF   679 _T4CC1	=	0x00ef
                           0000D8   680 _TIMIF	=	0x00d8
                           000086   681 _U0CSR	=	0x0086
                           0000C1   682 _U0DBUF	=	0x00c1
                           0000C2   683 _U0BAUD	=	0x00c2
                           0000C4   684 _U0UCR	=	0x00c4
                           0000C5   685 _U0GCR	=	0x00c5
                           0000F8   686 _U1CSR	=	0x00f8
                           0000F9   687 _U1DBUF	=	0x00f9
                           0000FA   688 _U1BAUD	=	0x00fa
                           0000FB   689 _U1UCR	=	0x00fb
                           0000FC   690 _U1GCR	=	0x00fc
                           0000C9   691 _WDCTL	=	0x00c9
                                    692 ;--------------------------------------------------------
                                    693 ; special function bits
                                    694 ;--------------------------------------------------------
                                    695 	.area RSEG    (ABS,DATA)
      000000                        696 	.org 0x0000
                           000087   697 _P0_7	=	0x0087
                           000086   698 _P0_6	=	0x0086
                           000085   699 _P0_5	=	0x0085
                           000084   700 _P0_4	=	0x0084
                           000083   701 _P0_3	=	0x0083
                           000082   702 _P0_2	=	0x0082
                           000081   703 _P0_1	=	0x0081
                           000080   704 _P0_0	=	0x0080
                           00008F   705 _URX1IF	=	0x008f
                           00008D   706 _ADCIF	=	0x008d
                           00008B   707 _URX0IF	=	0x008b
                           00008A   708 _IT1	=	0x008a
                           000089   709 _RFERRIF	=	0x0089
                           000088   710 _IT0	=	0x0088
                           000097   711 _P1_7	=	0x0097
                           000096   712 _P1_6	=	0x0096
                           000095   713 _P1_5	=	0x0095
                           000094   714 _P1_4	=	0x0094
                           000093   715 _P1_3	=	0x0093
                           000092   716 _P1_2	=	0x0092
                           000091   717 _P1_1	=	0x0091
                           000090   718 _P1_0	=	0x0090
                           000099   719 _ENCIF_1	=	0x0099
                           000098   720 _ENCIF_0	=	0x0098
                           0000A7   721 _P2_7	=	0x00a7
                           0000A6   722 _P2_6	=	0x00a6
                           0000A5   723 _P2_5	=	0x00a5
                           0000A4   724 _P2_4	=	0x00a4
                           0000A3   725 _P2_3	=	0x00a3
                           0000A2   726 _P2_2	=	0x00a2
                           0000A1   727 _P2_1	=	0x00a1
                           0000A0   728 _P2_0	=	0x00a0
                           0000AF   729 _EA	=	0x00af
                           0000AD   730 _STIE	=	0x00ad
                           0000AC   731 _ENCIE	=	0x00ac
                           0000AB   732 _URX1IE	=	0x00ab
                           0000AA   733 _URX0IE	=	0x00aa
                           0000A9   734 _ADCIE	=	0x00a9
                           0000A8   735 _RFERRIE	=	0x00a8
                           0000BD   736 _P0IE	=	0x00bd
                           0000BC   737 _T4IE	=	0x00bc
                           0000BB   738 _T3IE	=	0x00bb
                           0000BA   739 _T2IE	=	0x00ba
                           0000B9   740 _T1IE	=	0x00b9
                           0000B8   741 _DMAIE	=	0x00b8
                           0000C7   742 _STIF	=	0x00c7
                           0000C5   743 _P0IF	=	0x00c5
                           0000C4   744 _T4IF	=	0x00c4
                           0000C3   745 _T3IF	=	0x00c3
                           0000C2   746 _T2IF	=	0x00c2
                           0000C1   747 _T1IF	=	0x00c1
                           0000C0   748 _DMAIF	=	0x00c0
                           0000D7   749 _CY	=	0x00d7
                           0000D6   750 _AC	=	0x00d6
                           0000D5   751 _F0	=	0x00d5
                           0000D4   752 _RS1	=	0x00d4
                           0000D3   753 _RS0	=	0x00d3
                           0000D2   754 _OV	=	0x00d2
                           0000D1   755 _F1	=	0x00d1
                           0000D0   756 _P	=	0x00d0
                           0000E7   757 _ACC_7	=	0x00e7
                           0000E6   758 _ACC_6	=	0x00e6
                           0000E5   759 _ACC_5	=	0x00e5
                           0000E4   760 _ACC_4	=	0x00e4
                           0000E3   761 _ACC_3	=	0x00e3
                           0000E2   762 _ACC_2	=	0x00e2
                           0000E1   763 _ACC_1	=	0x00e1
                           0000E0   764 _ACC_0	=	0x00e0
                           0000EC   765 _WDTIF	=	0x00ec
                           0000EB   766 _P1IF	=	0x00eb
                           0000EA   767 _UTX1IF	=	0x00ea
                           0000E9   768 _UTX0IF	=	0x00e9
                           0000E8   769 _P2IF	=	0x00e8
                           0000F7   770 _B_7	=	0x00f7
                           0000F6   771 _B_6	=	0x00f6
                           0000F5   772 _B_5	=	0x00f5
                           0000F4   773 _B_4	=	0x00f4
                           0000F3   774 _B_3	=	0x00f3
                           0000F2   775 _B_2	=	0x00f2
                           0000F1   776 _B_1	=	0x00f1
                           0000F0   777 _B_0	=	0x00f0
                           0000DE   778 _OVFIM	=	0x00de
                           0000DD   779 _T4CH1IF	=	0x00dd
                           0000DC   780 _T4CH0IF	=	0x00dc
                           0000DB   781 _T4OVFIF	=	0x00db
                           0000DA   782 _T3CH1IF	=	0x00da
                           0000D9   783 _T3CH0IF	=	0x00d9
                           0000D8   784 _T3OVFIF	=	0x00d8
                           0000FF   785 _MODE	=	0x00ff
                           0000FE   786 _RE	=	0x00fe
                           0000FD   787 _SLAVE	=	0x00fd
                           0000FC   788 _FE	=	0x00fc
                           0000FB   789 _ERR	=	0x00fb
                           0000FA   790 _RX_BYTE	=	0x00fa
                           0000F9   791 _TX_BYTE	=	0x00f9
                           0000F8   792 _ACTIVE	=	0x00f8
                                    793 ;--------------------------------------------------------
                                    794 ; overlayable register banks
                                    795 ;--------------------------------------------------------
                                    796 	.area REG_BANK_0	(REL,OVR,DATA)
      000000                        797 	.ds 8
                                    798 ;--------------------------------------------------------
                                    799 ; internal ram data
                                    800 ;--------------------------------------------------------
                                    801 	.area DSEG    (DATA)
                                    802 ;--------------------------------------------------------
                                    803 ; overlayable items in internal ram 
                                    804 ;--------------------------------------------------------
                                    805 ;--------------------------------------------------------
                                    806 ; indirectly addressable internal ram data
                                    807 ;--------------------------------------------------------
                                    808 	.area ISEG    (DATA)
                                    809 ;--------------------------------------------------------
                                    810 ; absolute internal ram data
                                    811 ;--------------------------------------------------------
                                    812 	.area IABS    (ABS,DATA)
                                    813 	.area IABS    (ABS,DATA)
                                    814 ;--------------------------------------------------------
                                    815 ; bit data
                                    816 ;--------------------------------------------------------
                                    817 	.area BSEG    (BIT)
                                    818 ;--------------------------------------------------------
                                    819 ; paged external ram data
                                    820 ;--------------------------------------------------------
                                    821 	.area PSEG    (PAG,XDATA)
                                    822 ;--------------------------------------------------------
                                    823 ; external ram data
                                    824 ;--------------------------------------------------------
                                    825 	.area XSEG    (XDATA)
                           0061A6   826 _MONMUX	=	0x61a6
                           0061A6   827 _OPAMPMC	=	0x61a6
                           006230   828 _I2CCFG	=	0x6230
                           006231   829 _I2CSTAT	=	0x6231
                           006232   830 _I2CDATA	=	0x6232
                           006233   831 _I2CADDR	=	0x6233
                           006234   832 _I2CWC	=	0x6234
                           006235   833 _I2CIO	=	0x6235
                           006243   834 _OBSSEL0	=	0x6243
                           006244   835 _OBSSEL1	=	0x6244
                           006245   836 _OBSSEL2	=	0x6245
                           006246   837 _OBSSEL3	=	0x6246
                           006247   838 _OBSSEL4	=	0x6247
                           006248   839 _OBSSEL5	=	0x6248
                           006249   840 _CHVER	=	0x6249
                           00624A   841 _CHIPID	=	0x624a
                           00624B   842 _TESTREG0	=	0x624b
                           006260   843 _DBGDATA	=	0x6260
                           006262   844 _SRCRC	=	0x6262
                           006264   845 _BATTMON	=	0x6264
                           006265   846 _IVCTRL	=	0x6265
                           006270   847 _FCTL	=	0x6270
                           006271   848 _FADDRL	=	0x6271
                           006272   849 _FADDRH	=	0x6272
                           006273   850 _FWDATA	=	0x6273
                           006276   851 _CHIPINFO0	=	0x6276
                           006277   852 _CHIPINFO1	=	0x6277
                           006281   853 _IRCTL	=	0x6281
                           006290   854 _CLD	=	0x6290
                           0062A0   855 _XX_T1CCTL0	=	0x62a0
                           0062A1   856 _XX_T1CCTL1	=	0x62a1
                           0062A2   857 _XX_T1CCTL2	=	0x62a2
                           0062A3   858 _T1CCTL3	=	0x62a3
                           0062A4   859 _T1CCTL4	=	0x62a4
                           0062A6   860 _XX_T1CC0L	=	0x62a6
                           0062A7   861 _XX_T1CC0H	=	0x62a7
                           0062A8   862 _XX_T1CC1L	=	0x62a8
                           0062A9   863 _XX_T1CC1H	=	0x62a9
                           0062AA   864 _XX_T1CC2L	=	0x62aa
                           0062AB   865 _XX_T1CC2H	=	0x62ab
                           0062AC   866 _T1CC3L	=	0x62ac
                           0062AD   867 _T1CC3H	=	0x62ad
                           0062AE   868 _T1CC4L	=	0x62ae
                           0062AF   869 _T1CC4H	=	0x62af
                           0062B0   870 _STCC	=	0x62b0
                           0062B1   871 _STCS	=	0x62b1
                           0062B2   872 _STCV0	=	0x62b2
                           0062B3   873 _STCV1	=	0x62b3
                           0062B4   874 _STCV2	=	0x62b4
                           0062C0   875 _OPAMPC	=	0x62c0
                           0062C1   876 _OPAMPS	=	0x62c1
                           0062D0   877 _CMPCTL	=	0x62d0
                           006000   878 _RFCORE_RAM	=	0x6000
                           006000   879 _RXFIFO	=	0x6000
                           006080   880 _TXFIFO	=	0x6080
                           006100   881 _SRC_ADDR_TABLE	=	0x6100
                           006160   882 _SRCRESMASK0	=	0x6160
                           006161   883 _SRCRESMASK1	=	0x6161
                           006162   884 _SRCRESMASK2	=	0x6162
                           006163   885 _SRCRESINDEX	=	0x6163
                           006164   886 _SRCEXTPENDEN0	=	0x6164
                           006165   887 _SRCEXTPENDEN1	=	0x6165
                           006166   888 _SRCEXTPENDEN2	=	0x6166
                           006167   889 _SRCSHORTPENDEN0	=	0x6167
                           006168   890 _SRCSHORTPENDEN1	=	0x6168
                           006169   891 _SRCSHORTPENDEN2	=	0x6169
                           00616A   892 _EXT_ADDR0	=	0x616a
                           00616B   893 _EXT_ADDR1	=	0x616b
                           00616C   894 _EXT_ADDR2	=	0x616c
                           00616D   895 _EXT_ADDR3	=	0x616d
                           00616E   896 _EXT_ADDR4	=	0x616e
                           00616F   897 _EXT_ADDR5	=	0x616f
                           006170   898 _EXT_ADDR6	=	0x6170
                           006171   899 _EXT_ADDR7	=	0x6171
                           006172   900 _PAN_ID0	=	0x6172
                           006173   901 _PAN_ID1	=	0x6173
                           006174   902 _SHORT_ADDR0	=	0x6174
                           006175   903 _SHORT_ADDR1	=	0x6175
                           006180   904 _FRMFILT0	=	0x6180
                           006181   905 _FRMFILT1	=	0x6181
                           006182   906 _SRCMATCH	=	0x6182
                           006183   907 _SRCSHORTEN0	=	0x6183
                           006184   908 _SRCSHORTEN1	=	0x6184
                           006185   909 _SRCSHORTEN2	=	0x6185
                           006186   910 _SRCEXTEN0	=	0x6186
                           006187   911 _SRCEXTEN1	=	0x6187
                           006188   912 _SRCEXTEN2	=	0x6188
                           006189   913 _FRMCTRL0	=	0x6189
                           00618A   914 _FRMCTRL1	=	0x618a
                           00618B   915 _RXENABLE	=	0x618b
                           00618C   916 _RXMASKSET	=	0x618c
                           00618D   917 _RXMASKCLR	=	0x618d
                           00618E   918 _FREQTUNE	=	0x618e
                           00618F   919 _FREQCTRL	=	0x618f
                           006190   920 _TXPOWER	=	0x6190
                           006191   921 _TXCTRL	=	0x6191
                           006192   922 _FSMSTAT0	=	0x6192
                           006193   923 _FSMSTAT1	=	0x6193
                           006194   924 _FIFOPCTRL	=	0x6194
                           006195   925 _FSMCTRL	=	0x6195
                           006196   926 _CCACTRL0	=	0x6196
                           006197   927 _CCACTRL1	=	0x6197
                           006198   928 _RSSI	=	0x6198
                           006199   929 _RSSISTAT	=	0x6199
                           00619A   930 _RXFIRST	=	0x619a
                           00619B   931 _RXFIFOCNT	=	0x619b
                           00619C   932 _TXFIFOCNT	=	0x619c
                           00619D   933 _RXFIRST_PTR	=	0x619d
                           00619E   934 _RXLAST_PTR	=	0x619e
                           00619F   935 _RXP1_PTR	=	0x619f
                           0061A1   936 _TXFIRST_PTR	=	0x61a1
                           0061A2   937 _TXLAST_PTR	=	0x61a2
                           0061A3   938 _RFIRQM0	=	0x61a3
                           0061A4   939 _RFIRQM1	=	0x61a4
                           0061A5   940 _RFERRM	=	0x61a5
                           0061A7   941 _RFRND	=	0x61a7
                           0061A8   942 _MDMCTRL0	=	0x61a8
                           0061A9   943 _MDMCTRL1	=	0x61a9
                           0061AA   944 _FREQEST	=	0x61aa
                           0061AB   945 _RXCTRL	=	0x61ab
                           0061AC   946 _FSCTRL	=	0x61ac
                           0061AD   947 _FSCAL0	=	0x61ad
                           0061AE   948 _FSCAL1	=	0x61ae
                           0061AF   949 _FSCAL2	=	0x61af
                           0061B0   950 _FSCAL3	=	0x61b0
                           0061B1   951 _AGCCTRL0	=	0x61b1
                           0061B2   952 _AGCCTRL1	=	0x61b2
                           0061B3   953 _AGCCTRL2	=	0x61b3
                           0061B4   954 _AGCCTRL3	=	0x61b4
                           0061B5   955 _ADCTEST0	=	0x61b5
                           0061B6   956 _ADCTEST1	=	0x61b6
                           0061B7   957 _ADCTEST2	=	0x61b7
                           0061B8   958 _MDMTEST0	=	0x61b8
                           0061B9   959 _MDMTEST1	=	0x61b9
                           0061BA   960 _DACTEST0	=	0x61ba
                           0061BB   961 _DACTEST1	=	0x61bb
                           0061BC   962 _DACTEST2	=	0x61bc
                           0061BD   963 _ATEST	=	0x61bd
                           0061BE   964 _PTEST0	=	0x61be
                           0061BF   965 _PTEST1	=	0x61bf
                           0061FA   966 _TXFILTCFG	=	0x61fa
                           0061EB   967 _RFC_OBS_CTRL0	=	0x61eb
                           0061EC   968 _RFC_OBS_CTRL1	=	0x61ec
                           0061ED   969 _RFC_OBS_CTRL2	=	0x61ed
                           0061C0   970 _CSPPROG0	=	0x61c0
                           0061C1   971 _CSPPROG1	=	0x61c1
                           0061C2   972 _CSPPROG2	=	0x61c2
                           0061C3   973 _CSPPROG3	=	0x61c3
                           0061C4   974 _CSPPROG4	=	0x61c4
                           0061C5   975 _CSPPROG5	=	0x61c5
                           0061C6   976 _CSPPROG6	=	0x61c6
                           0061C7   977 _CSPPROG7	=	0x61c7
                           0061C8   978 _CSPPROG8	=	0x61c8
                           0061C9   979 _CSPPROG9	=	0x61c9
                           0061CA   980 _CSPPROG10	=	0x61ca
                           0061CB   981 _CSPPROG11	=	0x61cb
                           0061CC   982 _CSPPROG12	=	0x61cc
                           0061CD   983 _CSPPROG13	=	0x61cd
                           0061CE   984 _CSPPROG14	=	0x61ce
                           0061CF   985 _CSPPROG15	=	0x61cf
                           0061D0   986 _CSPPROG16	=	0x61d0
                           0061D1   987 _CSPPROG17	=	0x61d1
                           0061D2   988 _CSPPROG18	=	0x61d2
                           0061D3   989 _CSPPROG19	=	0x61d3
                           0061D4   990 _CSPPROG20	=	0x61d4
                           0061D5   991 _CSPPROG21	=	0x61d5
                           0061D6   992 _CSPPROG22	=	0x61d6
                           0061D7   993 _CSPPROG23	=	0x61d7
                           0061E0   994 _CSPCTRL	=	0x61e0
                           0061E1   995 _CSPSTAT	=	0x61e1
                           0061E2   996 _CSPX	=	0x61e2
                           0061E3   997 _CSPY	=	0x61e3
                           0061E4   998 _CSPZ	=	0x61e4
                           0061E5   999 _CSPT	=	0x61e5
                           006200  1000 _USBADDR	=	0x6200
                           006201  1001 _USBPOW	=	0x6201
                           006202  1002 _USBIIF	=	0x6202
                           006204  1003 _USBOIF	=	0x6204
                           006206  1004 _USBCIF	=	0x6206
                           006207  1005 _USBIIE	=	0x6207
                           006209  1006 _USBOIE	=	0x6209
                           00620B  1007 _USBCIE	=	0x620b
                           00620C  1008 _USBFRML	=	0x620c
                           00620D  1009 _USBFRMH	=	0x620d
                           00620E  1010 _USBINDEX	=	0x620e
                           00620F  1011 _USBCTRL	=	0x620f
                           006210  1012 _USBMAXI	=	0x6210
                           006211  1013 _USBCS0	=	0x6211
                           006211  1014 _USBCSIL	=	0x6211
                           006212  1015 _USBCSIH	=	0x6212
                           006213  1016 _USBMAXO	=	0x6213
                           006214  1017 _USBCSOL	=	0x6214
                           006215  1018 _USBCSOH	=	0x6215
                           006216  1019 _USBCNT0	=	0x6216
                           006216  1020 _USBCNTL	=	0x6216
                           006217  1021 _USBCNTH	=	0x6217
                           006220  1022 _USBF0	=	0x6220
                           006222  1023 _USBF1	=	0x6222
                           006224  1024 _USBF2	=	0x6224
                           006226  1025 _USBF3	=	0x6226
                           006228  1026 _USBF4	=	0x6228
                           00622A  1027 _USBF5	=	0x622a
                           007080  1028 _X_P0	=	0x7080
                           007086  1029 _X_U0CSR	=	0x7086
                           007089  1030 _X_P0IFG	=	0x7089
                           00708A  1031 _X_P1IFG	=	0x708a
                           00708B  1032 _X_P2IFG	=	0x708b
                           00708C  1033 _X_PICTL	=	0x708c
                           00708D  1034 _X_P1IEN	=	0x708d
                           00708F  1035 _X_P0INP	=	0x708f
                           007090  1036 _X_P1	=	0x7090
                           007091  1037 _X_RFIRQF1	=	0x7091
                           007093  1038 _X_MPAGE	=	0x7093
                           007093  1039 _X__XPAGE	=	0x7093
                           007094  1040 _X_T2CTRL	=	0x7094
                           007095  1041 _X_ST0	=	0x7095
                           007096  1042 _X_ST1	=	0x7096
                           007097  1043 _X_ST2	=	0x7097
                           00709C  1044 _X_T2EVTCFG	=	0x709c
                           00709D  1045 _X_SLEEPSTA	=	0x709d
                           00709E  1046 _X_CLKCONSTA	=	0x709e
                           00709F  1047 _X_FMAP	=	0x709f
                           00709F  1048 _X_PSBANK	=	0x709f
                           0070A0  1049 _X_P2	=	0x70a0
                           0070A1  1050 _X_T2IRQF	=	0x70a1
                           0070A2  1051 _X_T2M0	=	0x70a2
                           0070A3  1052 _X_T2M1	=	0x70a3
                           0070A4  1053 _X_T2MOVF0	=	0x70a4
                           0070A5  1054 _X_T2MOVF1	=	0x70a5
                           0070A6  1055 _X_T2MOVF2	=	0x70a6
                           0070A7  1056 _X_T2IRQM	=	0x70a7
                           0070AB  1057 _X_P0IEN	=	0x70ab
                           0070AC  1058 _X_P2IEN	=	0x70ac
                           0070AD  1059 _X_STLOAD	=	0x70ad
                           0070AE  1060 _X_PMUX	=	0x70ae
                           0070AF  1061 _X_T1STAT	=	0x70af
                           0070B1  1062 _X_ENCDI	=	0x70b1
                           0070B2  1063 _X_ENCDO	=	0x70b2
                           0070B3  1064 _X_ENCCS	=	0x70b3
                           0070B4  1065 _X_ADCCON1	=	0x70b4
                           0070B5  1066 _X_ADCCON2	=	0x70b5
                           0070B6  1067 _X_ADCCON3	=	0x70b6
                           0070BA  1068 _X_ADCL	=	0x70ba
                           0070BB  1069 _X_ADCH	=	0x70bb
                           0070BC  1070 _X_RNDL	=	0x70bc
                           0070BD  1071 _X_RNDH	=	0x70bd
                           0070BE  1072 _X_SLEEPCMD	=	0x70be
                           0070BF  1073 _X_RFERRF	=	0x70bf
                           0070C1  1074 _X_U0DBUF	=	0x70c1
                           0070C2  1075 _X_U0BAUD	=	0x70c2
                           0070C3  1076 _X_T2MSEL	=	0x70c3
                           0070C4  1077 _X_U0UCR	=	0x70c4
                           0070C5  1078 _X_U0GCR	=	0x70c5
                           0070C6  1079 _X_CLKCONCMD	=	0x70c6
                           0070C7  1080 _X_MEMCTR	=	0x70c7
                           0070C9  1081 _X_WDCTL	=	0x70c9
                           0070CA  1082 _X_T3CNT	=	0x70ca
                           0070CB  1083 _X_T3CTL	=	0x70cb
                           0070CC  1084 _X_T3CCTL0	=	0x70cc
                           0070CD  1085 _X_T3CC0	=	0x70cd
                           0070CE  1086 _X_T3CCTL1	=	0x70ce
                           0070CF  1087 _X_T3CC1	=	0x70cf
                           0070D1  1088 _X_DMAIRQ	=	0x70d1
                           0070D2  1089 _X_DMA1CFGL	=	0x70d2
                           0070D3  1090 _X_DMA1CFGH	=	0x70d3
                           0070D4  1091 _X_DMA0CFGL	=	0x70d4
                           0070D5  1092 _X_DMA0CFGH	=	0x70d5
                           0070D6  1093 _X_DMAARM	=	0x70d6
                           0070D7  1094 _X_DMAREQ	=	0x70d7
                           0070D8  1095 _X_TIMIF	=	0x70d8
                           0070D9  1096 _X_RFD	=	0x70d9
                           0070DA  1097 _X_T1CC0L	=	0x70da
                           0070DB  1098 _X_T1CC0H	=	0x70db
                           0070DC  1099 _X_T1CC1L	=	0x70dc
                           0070DD  1100 _X_T1CC1H	=	0x70dd
                           0070DE  1101 _X_T1CC2L	=	0x70de
                           0070DF  1102 _X_T1CC2H	=	0x70df
                           0070E1  1103 _X_RFST	=	0x70e1
                           0070E2  1104 _X_T1CNTL	=	0x70e2
                           0070E3  1105 _X_T1CNTH	=	0x70e3
                           0070E4  1106 _X_T1CTL	=	0x70e4
                           0070E5  1107 _X_T1CCTL0	=	0x70e5
                           0070E6  1108 _X_T1CCTL1	=	0x70e6
                           0070E7  1109 _X_T1CCTL2	=	0x70e7
                           0070E9  1110 _X_RFIRQF0	=	0x70e9
                           0070EA  1111 _X_T4CNT	=	0x70ea
                           0070EB  1112 _X_T4CTL	=	0x70eb
                           0070EC  1113 _X_T4CCTL0	=	0x70ec
                           0070ED  1114 _X_T4CC0	=	0x70ed
                           0070EE  1115 _X_T4CCTL1	=	0x70ee
                           0070EF  1116 _X_T4CC1	=	0x70ef
                           0070F1  1117 _X_PERCFG	=	0x70f1
                           0070F2  1118 _X_APCFG	=	0x70f2
                           0070F3  1119 _X_P0SEL	=	0x70f3
                           0070F4  1120 _X_P1SEL	=	0x70f4
                           0070F5  1121 _X_P2SEL	=	0x70f5
                           0070F6  1122 _X_P1INP	=	0x70f6
                           0070F7  1123 _X_P2INP	=	0x70f7
                           0070F8  1124 _X_U1CSR	=	0x70f8
                           0070F9  1125 _X_U1DBUF	=	0x70f9
                           0070FA  1126 _X_U1BAUD	=	0x70fa
                           0070FB  1127 _X_U1UCR	=	0x70fb
                           0070FC  1128 _X_U1GCR	=	0x70fc
                           0070FD  1129 _X_P0DIR	=	0x70fd
                           0070FE  1130 _X_P1DIR	=	0x70fe
                           0070FF  1131 _X_P2DIR	=	0x70ff
                           007800  1132 _X_INFOPAGE	=	0x7800
                           00780C  1133 _X_IEEE_ADDR	=	0x780c
      000000                       1134 _ep0status:
      000000                       1135 	.ds 1
      000001                       1136 _usb_endpoints:
      000001                       1137 	.ds 52
                                   1138 ;--------------------------------------------------------
                                   1139 ; absolute external ram data
                                   1140 ;--------------------------------------------------------
                                   1141 	.area XABS    (ABS,XDATA)
                                   1142 ;--------------------------------------------------------
                                   1143 ; external initialized ram data
                                   1144 ;--------------------------------------------------------
                                   1145 	.area XISEG   (XDATA)
      000000                       1146 _usb_irq_handler:
      000000                       1147 	.ds 5
      000005                       1148 _event_process::
      000005                       1149 	.ds 3
      000008                       1150 _events:
      000008                       1151 	.ds 2
                                   1152 	.area HOME    (CODE)
                                   1153 	.area GSINIT0 (CODE)
                                   1154 	.area GSINIT1 (CODE)
                                   1155 	.area GSINIT2 (CODE)
                                   1156 	.area GSINIT3 (CODE)
                                   1157 	.area GSINIT4 (CODE)
                                   1158 	.area GSINIT5 (CODE)
                                   1159 	.area GSINIT  (CODE)
                                   1160 	.area GSFINAL (CODE)
                                   1161 	.area CSEG    (CODE)
                                   1162 ;--------------------------------------------------------
                                   1163 ; global & static initialisations
                                   1164 ;--------------------------------------------------------
                                   1165 	.area HOME    (CODE)
                                   1166 	.area GSINIT  (CODE)
                                   1167 	.area GSFINAL (CODE)
                                   1168 	.area GSINIT  (CODE)
                                   1169 ;--------------------------------------------------------
                                   1170 ; Home
                                   1171 ;--------------------------------------------------------
                                   1172 	.area HOME    (CODE)
                                   1173 	.area HOME    (CODE)
                                   1174 ;--------------------------------------------------------
                                   1175 ; code
                                   1176 ;--------------------------------------------------------
                                   1177 	.area CSEG    (CODE)
                                   1178 ;------------------------------------------------------------
                                   1179 ;Allocation info for local variables in function 'notify_process'
                                   1180 ;------------------------------------------------------------
                                   1181 ;e                         Allocated to registers r6 r7 
                                   1182 ;------------------------------------------------------------
                                   1183 ;	/home/user/contiki/cpu/cc2530edm_aman/usb/usb-arch.c:186: notify_process(unsigned int e)
                                   1184 ;	-----------------------------------------
                                   1185 ;	 function notify_process
                                   1186 ;	-----------------------------------------
      000000                       1187 _notify_process:
                           000007  1188 	ar7 = 0x07
                           000006  1189 	ar6 = 0x06
                           000005  1190 	ar5 = 0x05
                           000004  1191 	ar4 = 0x04
                           000003  1192 	ar3 = 0x03
                           000002  1193 	ar2 = 0x02
                           000001  1194 	ar1 = 0x01
                           000000  1195 	ar0 = 0x00
      000000 AE 82            [24] 1196 	mov	r6,dpl
      000002 AF 83            [24] 1197 	mov	r7,dph
                                   1198 ;	/home/user/contiki/cpu/cc2530edm_aman/usb/usb-arch.c:188: events |= e;
      000004 90r00r08         [24] 1199 	mov	dptr,#_events
      000007 E0               [24] 1200 	movx	a,@dptr
      000008 FC               [12] 1201 	mov	r4,a
      000009 A3               [24] 1202 	inc	dptr
      00000A E0               [24] 1203 	movx	a,@dptr
      00000B FD               [12] 1204 	mov	r5,a
      00000C 90r00r08         [24] 1205 	mov	dptr,#_events
      00000F EE               [12] 1206 	mov	a,r6
      000010 4C               [12] 1207 	orl	a,r4
      000011 F0               [24] 1208 	movx	@dptr,a
      000012 EF               [12] 1209 	mov	a,r7
      000013 4D               [12] 1210 	orl	a,r5
      000014 A3               [24] 1211 	inc	dptr
      000015 F0               [24] 1212 	movx	@dptr,a
                                   1213 ;	/home/user/contiki/cpu/cc2530edm_aman/usb/usb-arch.c:189: if(event_process) {
      000016 90r00r05         [24] 1214 	mov	dptr,#_event_process
      000019 E0               [24] 1215 	movx	a,@dptr
      00001A FD               [12] 1216 	mov	r5,a
      00001B A3               [24] 1217 	inc	dptr
      00001C E0               [24] 1218 	movx	a,@dptr
      00001D FE               [12] 1219 	mov	r6,a
      00001E A3               [24] 1220 	inc	dptr
      00001F E0               [24] 1221 	movx	a,@dptr
      000020 FF               [12] 1222 	mov	r7,a
      000021 ED               [12] 1223 	mov	a,r5
      000022 4E               [12] 1224 	orl	a,r6
      000023 60 09            [24] 1225 	jz	00103$
                                   1226 ;	/home/user/contiki/cpu/cc2530edm_aman/usb/usb-arch.c:190: process_interrupt(event_process);        /*edit intr instd poll*/
      000025 8D 82            [24] 1227 	mov	dpl,r5
      000027 8E 83            [24] 1228 	mov	dph,r6
      000029 8F F0            [24] 1229 	mov	b,r7
      00002B 02r00r00         [24] 1230 	ljmp	_process_interrupt
      00002E                       1231 00103$:
      00002E 22               [24] 1232 	ret
                                   1233 ;------------------------------------------------------------
                                   1234 ;Allocation info for local variables in function 'notify_ep_process'
                                   1235 ;------------------------------------------------------------
                                   1236 ;e                         Allocated to stack - sp -6
                                   1237 ;ep                        Allocated to stack - sp -2
                                   1238 ;------------------------------------------------------------
                                   1239 ;	/home/user/contiki/cpu/cc2530edm_aman/usb/usb-arch.c:195: notify_ep_process(USBEndpoint * ep, unsigned int e)
                                   1240 ;	-----------------------------------------
                                   1241 ;	 function notify_ep_process
                                   1242 ;	-----------------------------------------
      00002F                       1243 _notify_ep_process:
      00002F C0 82            [24] 1244 	push	dpl
      000031 C0 83            [24] 1245 	push	dph
      000033 C0 F0            [24] 1246 	push	b
                                   1247 ;	/home/user/contiki/cpu/cc2530edm_aman/usb/usb-arch.c:197: ep->events |= e;
      000035 A8 81            [24] 1248 	mov	r0,sp
      000037 18               [12] 1249 	dec	r0
      000038 18               [12] 1250 	dec	r0
      000039 74 09            [12] 1251 	mov	a,#0x09
      00003B 26               [12] 1252 	add	a,@r0
      00003C FA               [12] 1253 	mov	r2,a
      00003D E4               [12] 1254 	clr	a
      00003E 08               [12] 1255 	inc	r0
      00003F 36               [12] 1256 	addc	a,@r0
      000040 FB               [12] 1257 	mov	r3,a
      000041 08               [12] 1258 	inc	r0
      000042 86 04            [24] 1259 	mov	ar4,@r0
      000044 8A 82            [24] 1260 	mov	dpl,r2
      000046 8B 83            [24] 1261 	mov	dph,r3
      000048 8C F0            [24] 1262 	mov	b,r4
      00004A 12r00r00         [24] 1263 	lcall	__gptrget
      00004D FE               [12] 1264 	mov	r6,a
      00004E A3               [24] 1265 	inc	dptr
      00004F 12r00r00         [24] 1266 	lcall	__gptrget
      000052 FF               [12] 1267 	mov	r7,a
      000053 E5 81            [12] 1268 	mov	a,sp
      000055 24 FA            [12] 1269 	add	a,#0xfa
      000057 F8               [12] 1270 	mov	r0,a
      000058 E6               [12] 1271 	mov	a,@r0
      000059 42 06            [12] 1272 	orl	ar6,a
      00005B 08               [12] 1273 	inc	r0
      00005C E6               [12] 1274 	mov	a,@r0
      00005D 42 07            [12] 1275 	orl	ar7,a
      00005F 8A 82            [24] 1276 	mov	dpl,r2
      000061 8B 83            [24] 1277 	mov	dph,r3
      000063 8C F0            [24] 1278 	mov	b,r4
      000065 EE               [12] 1279 	mov	a,r6
      000066 12r00r00         [24] 1280 	lcall	__gptrput
      000069 A3               [24] 1281 	inc	dptr
      00006A EF               [12] 1282 	mov	a,r7
      00006B 12r00r00         [24] 1283 	lcall	__gptrput
                                   1284 ;	/home/user/contiki/cpu/cc2530edm_aman/usb/usb-arch.c:198: if(ep->event_process) {
      00006E A8 81            [24] 1285 	mov	r0,sp
      000070 18               [12] 1286 	dec	r0
      000071 18               [12] 1287 	dec	r0
      000072 74 06            [12] 1288 	mov	a,#0x06
      000074 26               [12] 1289 	add	a,@r0
      000075 FD               [12] 1290 	mov	r5,a
      000076 E4               [12] 1291 	clr	a
      000077 08               [12] 1292 	inc	r0
      000078 36               [12] 1293 	addc	a,@r0
      000079 FE               [12] 1294 	mov	r6,a
      00007A 08               [12] 1295 	inc	r0
      00007B 86 07            [24] 1296 	mov	ar7,@r0
      00007D 8D 82            [24] 1297 	mov	dpl,r5
      00007F 8E 83            [24] 1298 	mov	dph,r6
      000081 8F F0            [24] 1299 	mov	b,r7
      000083 12r00r00         [24] 1300 	lcall	__gptrget
      000086 FD               [12] 1301 	mov	r5,a
      000087 A3               [24] 1302 	inc	dptr
      000088 12r00r00         [24] 1303 	lcall	__gptrget
      00008B FE               [12] 1304 	mov	r6,a
      00008C A3               [24] 1305 	inc	dptr
      00008D 12r00r00         [24] 1306 	lcall	__gptrget
      000090 FF               [12] 1307 	mov	r7,a
      000091 ED               [12] 1308 	mov	a,r5
      000092 4E               [12] 1309 	orl	a,r6
      000093 60 09            [24] 1310 	jz	00103$
                                   1311 ;	/home/user/contiki/cpu/cc2530edm_aman/usb/usb-arch.c:199: process_interrupt(ep->event_process);
      000095 8D 82            [24] 1312 	mov	dpl,r5
      000097 8E 83            [24] 1313 	mov	dph,r6
      000099 8F F0            [24] 1314 	mov	b,r7
      00009B 12r00r00         [24] 1315 	lcall	_process_interrupt
      00009E                       1316 00103$:
      00009E 15 81            [12] 1317 	dec	sp
      0000A0 15 81            [12] 1318 	dec	sp
      0000A2 15 81            [12] 1319 	dec	sp
      0000A4 22               [24] 1320 	ret
                                   1321 ;------------------------------------------------------------
                                   1322 ;Allocation info for local variables in function 'usb_set_ep_event_process'
                                   1323 ;------------------------------------------------------------
                                   1324 ;p                         Allocated to stack - sp -4
                                   1325 ;addr                      Allocated to registers r7 
                                   1326 ;ep                        Allocated to registers r6 r7 r5 
                                   1327 ;------------------------------------------------------------
                                   1328 ;	/home/user/contiki/cpu/cc2530edm_aman/usb/usb-arch.c:205: usb_set_ep_event_process(unsigned char addr, struct process *p)
                                   1329 ;	-----------------------------------------
                                   1330 ;	 function usb_set_ep_event_process
                                   1331 ;	-----------------------------------------
      0000A5                       1332 _usb_set_ep_event_process:
      0000A5 AF 82            [24] 1333 	mov	r7,dpl
                                   1334 ;	/home/user/contiki/cpu/cc2530edm_aman/usb/usb-arch.c:207: USBEndpoint *ep = EP_STRUCT(addr);
      0000A7 74 7F            [12] 1335 	mov	a,#0x7F
      0000A9 5F               [12] 1336 	anl	a,r7
      0000AA 75 F0 0D         [24] 1337 	mov	b,#0x0D
      0000AD A4               [48] 1338 	mul	ab
      0000AE 24r01            [12] 1339 	add	a,#_usb_endpoints
      0000B0 FE               [12] 1340 	mov	r6,a
      0000B1 74s00            [12] 1341 	mov	a,#(_usb_endpoints >> 8)
      0000B3 35 F0            [12] 1342 	addc	a,b
      0000B5 FF               [12] 1343 	mov	r7,a
      0000B6 7D 00            [12] 1344 	mov	r5,#0x00
                                   1345 ;	/home/user/contiki/cpu/cc2530edm_aman/usb/usb-arch.c:209: ep->event_process = p;
      0000B8 74 06            [12] 1346 	mov	a,#0x06
      0000BA 2E               [12] 1347 	add	a,r6
      0000BB FE               [12] 1348 	mov	r6,a
      0000BC E4               [12] 1349 	clr	a
      0000BD 3F               [12] 1350 	addc	a,r7
      0000BE FF               [12] 1351 	mov	r7,a
      0000BF 8E 82            [24] 1352 	mov	dpl,r6
      0000C1 8F 83            [24] 1353 	mov	dph,r7
      0000C3 8D F0            [24] 1354 	mov	b,r5
      0000C5 E5 81            [12] 1355 	mov	a,sp
      0000C7 24 FC            [12] 1356 	add	a,#0xfc
      0000C9 F8               [12] 1357 	mov	r0,a
      0000CA E6               [12] 1358 	mov	a,@r0
      0000CB 12r00r00         [24] 1359 	lcall	__gptrput
      0000CE A3               [24] 1360 	inc	dptr
      0000CF 08               [12] 1361 	inc	r0
      0000D0 E6               [12] 1362 	mov	a,@r0
      0000D1 12r00r00         [24] 1363 	lcall	__gptrput
      0000D4 A3               [24] 1364 	inc	dptr
      0000D5 08               [12] 1365 	inc	r0
      0000D6 E6               [12] 1366 	mov	a,@r0
      0000D7 02r00r00         [24] 1367 	ljmp	__gptrput
                                   1368 ;------------------------------------------------------------
                                   1369 ;Allocation info for local variables in function 'usb_arch_set_global_event_process'
                                   1370 ;------------------------------------------------------------
                                   1371 ;p                         Allocated to registers 
                                   1372 ;------------------------------------------------------------
                                   1373 ;	/home/user/contiki/cpu/cc2530edm_aman/usb/usb-arch.c:214: usb_arch_set_global_event_process(struct process *p)
                                   1374 ;	-----------------------------------------
                                   1375 ;	 function usb_arch_set_global_event_process
                                   1376 ;	-----------------------------------------
      0000DA                       1377 _usb_arch_set_global_event_process:
      0000DA AF F0            [24] 1378 	mov	r7,b
      0000DC AE 83            [24] 1379 	mov	r6,dph
      0000DE E5 82            [12] 1380 	mov	a,dpl
      0000E0 90r00r05         [24] 1381 	mov	dptr,#_event_process
      0000E3 F0               [24] 1382 	movx	@dptr,a
      0000E4 EE               [12] 1383 	mov	a,r6
      0000E5 A3               [24] 1384 	inc	dptr
      0000E6 F0               [24] 1385 	movx	@dptr,a
      0000E7 EF               [12] 1386 	mov	a,r7
      0000E8 A3               [24] 1387 	inc	dptr
      0000E9 F0               [24] 1388 	movx	@dptr,a
                                   1389 ;	/home/user/contiki/cpu/cc2530edm_aman/usb/usb-arch.c:216: event_process = p;
      0000EA 22               [24] 1390 	ret
                                   1391 ;------------------------------------------------------------
                                   1392 ;Allocation info for local variables in function 'usb_arch_get_global_events'
                                   1393 ;------------------------------------------------------------
                                   1394 ;flag                      Allocated to registers r7 
                                   1395 ;e                         Allocated to stack - sp -1
                                   1396 ;------------------------------------------------------------
                                   1397 ;	/home/user/contiki/cpu/cc2530edm_aman/usb/usb-arch.c:220: usb_arch_get_global_events(void)
                                   1398 ;	-----------------------------------------
                                   1399 ;	 function usb_arch_get_global_events
                                   1400 ;	-----------------------------------------
      0000EB                       1401 _usb_arch_get_global_events:
      0000EB 05 81            [12] 1402 	inc	sp
      0000ED 05 81            [12] 1403 	inc	sp
                                   1404 ;	/home/user/contiki/cpu/cc2530edm_aman/usb/usb-arch.c:225: usb_irq_disable(flag);
      0000EF 74 02            [12] 1405 	mov	a,#0x02
      0000F1 55 9A            [12] 1406 	anl	a,_IEN2
      0000F3 FF               [12] 1407 	mov	r7,a
      0000F4 AE 9A            [24] 1408 	mov	r6,_IEN2
      0000F6 74 FD            [12] 1409 	mov	a,#0xFD
      0000F8 5E               [12] 1410 	anl	a,r6
      0000F9 F5 9A            [12] 1411 	mov	_IEN2,a
                                   1412 ;	/home/user/contiki/cpu/cc2530edm_aman/usb/usb-arch.c:226: e = events;
      0000FB 90r00r08         [24] 1413 	mov	dptr,#_events
      0000FE E0               [24] 1414 	movx	a,@dptr
      0000FF FD               [12] 1415 	mov	r5,a
      000100 A3               [24] 1416 	inc	dptr
      000101 E0               [24] 1417 	movx	a,@dptr
      000102 FE               [12] 1418 	mov	r6,a
      000103 A8 81            [24] 1419 	mov	r0,sp
      000105 18               [12] 1420 	dec	r0
      000106 A6 05            [24] 1421 	mov	@r0,ar5
      000108 08               [12] 1422 	inc	r0
      000109 A6 06            [24] 1423 	mov	@r0,ar6
                                   1424 ;	/home/user/contiki/cpu/cc2530edm_aman/usb/usb-arch.c:227: events = 0;
      00010B 90r00r08         [24] 1425 	mov	dptr,#_events
      00010E E4               [12] 1426 	clr	a
      00010F F0               [24] 1427 	movx	@dptr,a
      000110 E4               [12] 1428 	clr	a
      000111 A3               [24] 1429 	inc	dptr
      000112 F0               [24] 1430 	movx	@dptr,a
                                   1431 ;	/home/user/contiki/cpu/cc2530edm_aman/usb/usb-arch.c:228: usb_irq_enable(flag);
      000113 EF               [12] 1432 	mov	a,r7
      000114 42 9A            [12] 1433 	orl	_IEN2,a
                                   1434 ;	/home/user/contiki/cpu/cc2530edm_aman/usb/usb-arch.c:230: return e;
      000116 A8 81            [24] 1435 	mov	r0,sp
      000118 18               [12] 1436 	dec	r0
      000119 86 82            [24] 1437 	mov	dpl,@r0
      00011B 08               [12] 1438 	inc	r0
      00011C 86 83            [24] 1439 	mov	dph,@r0
      00011E 15 81            [12] 1440 	dec	sp
      000120 15 81            [12] 1441 	dec	sp
      000122 22               [24] 1442 	ret
                                   1443 ;------------------------------------------------------------
                                   1444 ;Allocation info for local variables in function 'usb_get_ep_events'
                                   1445 ;------------------------------------------------------------
                                   1446 ;addr                      Allocated to registers r7 
                                   1447 ;e                         Allocated to stack - sp -1
                                   1448 ;flag                      Allocated to registers r4 
                                   1449 ;ep                        Allocated to registers r6 r7 r5 
                                   1450 ;------------------------------------------------------------
                                   1451 ;	/home/user/contiki/cpu/cc2530edm_aman/usb/usb-arch.c:234: usb_get_ep_events(uint8_t addr)
                                   1452 ;	-----------------------------------------
                                   1453 ;	 function usb_get_ep_events
                                   1454 ;	-----------------------------------------
      000123                       1455 _usb_get_ep_events:
      000123 05 81            [12] 1456 	inc	sp
      000125 05 81            [12] 1457 	inc	sp
      000127 AF 82            [24] 1458 	mov	r7,dpl
                                   1459 ;	/home/user/contiki/cpu/cc2530edm_aman/usb/usb-arch.c:238: USBEndpoint *ep = EP_STRUCT(addr);
      000129 74 7F            [12] 1460 	mov	a,#0x7F
      00012B 5F               [12] 1461 	anl	a,r7
      00012C 75 F0 0D         [24] 1462 	mov	b,#0x0D
      00012F A4               [48] 1463 	mul	ab
      000130 24r01            [12] 1464 	add	a,#_usb_endpoints
      000132 FE               [12] 1465 	mov	r6,a
      000133 74s00            [12] 1466 	mov	a,#(_usb_endpoints >> 8)
      000135 35 F0            [12] 1467 	addc	a,b
      000137 FF               [12] 1468 	mov	r7,a
      000138 7D 00            [12] 1469 	mov	r5,#0x00
                                   1470 ;	/home/user/contiki/cpu/cc2530edm_aman/usb/usb-arch.c:240: usb_irq_disable(flag);
      00013A 74 02            [12] 1471 	mov	a,#0x02
      00013C 55 9A            [12] 1472 	anl	a,_IEN2
      00013E FC               [12] 1473 	mov	r4,a
      00013F AB 9A            [24] 1474 	mov	r3,_IEN2
      000141 74 FD            [12] 1475 	mov	a,#0xFD
      000143 5B               [12] 1476 	anl	a,r3
      000144 F5 9A            [12] 1477 	mov	_IEN2,a
                                   1478 ;	/home/user/contiki/cpu/cc2530edm_aman/usb/usb-arch.c:241: e = ep->events;
      000146 74 09            [12] 1479 	mov	a,#0x09
      000148 2E               [12] 1480 	add	a,r6
      000149 FE               [12] 1481 	mov	r6,a
      00014A E4               [12] 1482 	clr	a
      00014B 3F               [12] 1483 	addc	a,r7
      00014C FF               [12] 1484 	mov	r7,a
      00014D 8E 82            [24] 1485 	mov	dpl,r6
      00014F 8F 83            [24] 1486 	mov	dph,r7
      000151 8D F0            [24] 1487 	mov	b,r5
      000153 A8 81            [24] 1488 	mov	r0,sp
      000155 18               [12] 1489 	dec	r0
      000156 12r00r00         [24] 1490 	lcall	__gptrget
      000159 F6               [12] 1491 	mov	@r0,a
      00015A A3               [24] 1492 	inc	dptr
      00015B 12r00r00         [24] 1493 	lcall	__gptrget
      00015E 08               [12] 1494 	inc	r0
      00015F F6               [12] 1495 	mov	@r0,a
                                   1496 ;	/home/user/contiki/cpu/cc2530edm_aman/usb/usb-arch.c:242: ep->events = 0;
      000160 8E 82            [24] 1497 	mov	dpl,r6
      000162 8F 83            [24] 1498 	mov	dph,r7
      000164 8D F0            [24] 1499 	mov	b,r5
      000166 E4               [12] 1500 	clr	a
      000167 12r00r00         [24] 1501 	lcall	__gptrput
      00016A A3               [24] 1502 	inc	dptr
      00016B E4               [12] 1503 	clr	a
      00016C 12r00r00         [24] 1504 	lcall	__gptrput
                                   1505 ;	/home/user/contiki/cpu/cc2530edm_aman/usb/usb-arch.c:243: usb_irq_enable(flag);
      00016F EC               [12] 1506 	mov	a,r4
      000170 42 9A            [12] 1507 	orl	_IEN2,a
                                   1508 ;	/home/user/contiki/cpu/cc2530edm_aman/usb/usb-arch.c:245: return e;
      000172 A8 81            [24] 1509 	mov	r0,sp
      000174 18               [12] 1510 	dec	r0
      000175 86 82            [24] 1511 	mov	dpl,@r0
      000177 08               [12] 1512 	inc	r0
      000178 86 83            [24] 1513 	mov	dph,@r0
      00017A 15 81            [12] 1514 	dec	sp
      00017C 15 81            [12] 1515 	dec	sp
      00017E 22               [24] 1516 	ret
                                   1517 ;------------------------------------------------------------
                                   1518 ;Allocation info for local variables in function 'read_hw_buffer'
                                   1519 ;------------------------------------------------------------
                                   1520 ;hw_ep                     Allocated to stack - sp -6
                                   1521 ;len                       Allocated to stack - sp -8
                                   1522 ;to                        Allocated to registers 
                                   1523 ;from                      Allocated to stack - sp -1
                                   1524 ;sloc0                     Allocated to stack - sp -3
                                   1525 ;------------------------------------------------------------
                                   1526 ;	/home/user/contiki/cpu/cc2530edm_aman/usb/usb-arch.c:311: read_hw_buffer(uint8_t * to, uint8_t hw_ep, unsigned int len)
                                   1527 ;	-----------------------------------------
                                   1528 ;	 function read_hw_buffer
                                   1529 ;	-----------------------------------------
      00017F                       1530 _read_hw_buffer:
      00017F E5 81            [12] 1531 	mov	a,sp
      000181 24 04            [12] 1532 	add	a,#0x04
      000183 F5 81            [12] 1533 	mov	sp,a
      000185 AD 82            [24] 1534 	mov	r5,dpl
      000187 AE 83            [24] 1535 	mov	r6,dph
      000189 AF F0            [24] 1536 	mov	r7,b
                                   1537 ;	/home/user/contiki/cpu/cc2530edm_aman/usb/usb-arch.c:313: __xdata uint8_t *from = &USBF0 + (hw_ep << 1);
      00018B E5 81            [12] 1538 	mov	a,sp
      00018D 24 FA            [12] 1539 	add	a,#0xfa
      00018F F8               [12] 1540 	mov	r0,a
      000190 86 03            [24] 1541 	mov	ar3,@r0
      000192 E4               [12] 1542 	clr	a
      000193 CB               [12] 1543 	xch	a,r3
      000194 25 E0            [12] 1544 	add	a,acc
      000196 CB               [12] 1545 	xch	a,r3
      000197 33               [12] 1546 	rlc	a
      000198 FC               [12] 1547 	mov	r4,a
      000199 EB               [12] 1548 	mov	a,r3
      00019A 24 20            [12] 1549 	add	a,#_USBF0
      00019C FB               [12] 1550 	mov	r3,a
      00019D EC               [12] 1551 	mov	a,r4
      00019E 34 62            [12] 1552 	addc	a,#(_USBF0 >> 8)
      0001A0 FC               [12] 1553 	mov	r4,a
      0001A1 A8 81            [24] 1554 	mov	r0,sp
      0001A3 18               [12] 1555 	dec	r0
      0001A4 A6 03            [24] 1556 	mov	@r0,ar3
      0001A6 08               [12] 1557 	inc	r0
      0001A7 A6 04            [24] 1558 	mov	@r0,ar4
                                   1559 ;	/home/user/contiki/cpu/cc2530edm_aman/usb/usb-arch.c:324: while(len--) {
      0001A9 E5 81            [12] 1560 	mov	a,sp
      0001AB 24 F8            [12] 1561 	add	a,#0xf8
      0001AD F8               [12] 1562 	mov	r0,a
      0001AE E5 81            [12] 1563 	mov	a,sp
      0001B0 24 FD            [12] 1564 	add	a,#0xfd
      0001B2 F9               [12] 1565 	mov	r1,a
      0001B3 E6               [12] 1566 	mov	a,@r0
      0001B4 F7               [12] 1567 	mov	@r1,a
      0001B5 08               [12] 1568 	inc	r0
      0001B6 09               [12] 1569 	inc	r1
      0001B7 E6               [12] 1570 	mov	a,@r0
      0001B8 F7               [12] 1571 	mov	@r1,a
      0001B9                       1572 00101$:
      0001B9 E5 81            [12] 1573 	mov	a,sp
      0001BB 24 FD            [12] 1574 	add	a,#0xfd
      0001BD F8               [12] 1575 	mov	r0,a
      0001BE 86 02            [24] 1576 	mov	ar2,@r0
      0001C0 08               [12] 1577 	inc	r0
      0001C1 86 04            [24] 1578 	mov	ar4,@r0
      0001C3 E5 81            [12] 1579 	mov	a,sp
      0001C5 24 FD            [12] 1580 	add	a,#0xfd
      0001C7 F8               [12] 1581 	mov	r0,a
      0001C8 16               [12] 1582 	dec	@r0
      0001C9 B6 FF 02         [24] 1583 	cjne	@r0,#0xFF,00113$
      0001CC 08               [12] 1584 	inc	r0
      0001CD 16               [12] 1585 	dec	@r0
      0001CE                       1586 00113$:
      0001CE EA               [12] 1587 	mov	a,r2
      0001CF 4C               [12] 1588 	orl	a,r4
      0001D0 60 1A            [24] 1589 	jz	00104$
                                   1590 ;	/home/user/contiki/cpu/cc2530edm_aman/usb/usb-arch.c:325: *to++ = *from;
      0001D2 A8 81            [24] 1591 	mov	r0,sp
      0001D4 18               [12] 1592 	dec	r0
      0001D5 86 82            [24] 1593 	mov	dpl,@r0
      0001D7 08               [12] 1594 	inc	r0
      0001D8 86 83            [24] 1595 	mov	dph,@r0
      0001DA E0               [24] 1596 	movx	a,@dptr
      0001DB FC               [12] 1597 	mov	r4,a
      0001DC 8D 82            [24] 1598 	mov	dpl,r5
      0001DE 8E 83            [24] 1599 	mov	dph,r6
      0001E0 8F F0            [24] 1600 	mov	b,r7
      0001E2 12r00r00         [24] 1601 	lcall	__gptrput
      0001E5 A3               [24] 1602 	inc	dptr
      0001E6 AD 82            [24] 1603 	mov	r5,dpl
      0001E8 AE 83            [24] 1604 	mov	r6,dph
      0001EA 80 CD            [24] 1605 	sjmp	00101$
      0001EC                       1606 00104$:
      0001EC E5 81            [12] 1607 	mov	a,sp
      0001EE 24 FC            [12] 1608 	add	a,#0xFC
      0001F0 F5 81            [12] 1609 	mov	sp,a
      0001F2 22               [24] 1610 	ret
                                   1611 ;------------------------------------------------------------
                                   1612 ;Allocation info for local variables in function 'write_hw_buffer'
                                   1613 ;------------------------------------------------------------
                                   1614 ;from                      Allocated to stack - sp -8
                                   1615 ;len                       Allocated to stack - sp -10
                                   1616 ;hw_ep                     Allocated to registers r7 
                                   1617 ;to                        Allocated to stack - sp -1
                                   1618 ;sloc0                     Allocated to stack - sp -3
                                   1619 ;------------------------------------------------------------
                                   1620 ;	/home/user/contiki/cpu/cc2530edm_aman/usb/usb-arch.c:330: write_hw_buffer(uint8_t hw_ep, uint8_t * from, unsigned int len)
                                   1621 ;	-----------------------------------------
                                   1622 ;	 function write_hw_buffer
                                   1623 ;	-----------------------------------------
      0001F3                       1624 _write_hw_buffer:
      0001F3 E5 81            [12] 1625 	mov	a,sp
      0001F5 24 04            [12] 1626 	add	a,#0x04
      0001F7 F5 81            [12] 1627 	mov	sp,a
      0001F9 AF 82            [24] 1628 	mov	r7,dpl
                                   1629 ;	/home/user/contiki/cpu/cc2530edm_aman/usb/usb-arch.c:332: __xdata uint8_t *to = &USBF0 + (hw_ep << 1);
      0001FB E4               [12] 1630 	clr	a
      0001FC CF               [12] 1631 	xch	a,r7
      0001FD 25 E0            [12] 1632 	add	a,acc
      0001FF CF               [12] 1633 	xch	a,r7
      000200 33               [12] 1634 	rlc	a
      000201 FE               [12] 1635 	mov	r6,a
      000202 EF               [12] 1636 	mov	a,r7
      000203 24 20            [12] 1637 	add	a,#_USBF0
      000205 FF               [12] 1638 	mov	r7,a
      000206 EE               [12] 1639 	mov	a,r6
      000207 34 62            [12] 1640 	addc	a,#(_USBF0 >> 8)
      000209 FE               [12] 1641 	mov	r6,a
      00020A A8 81            [24] 1642 	mov	r0,sp
      00020C 18               [12] 1643 	dec	r0
      00020D A6 07            [24] 1644 	mov	@r0,ar7
      00020F 08               [12] 1645 	inc	r0
      000210 A6 06            [24] 1646 	mov	@r0,ar6
                                   1647 ;	/home/user/contiki/cpu/cc2530edm_aman/usb/usb-arch.c:342: while(len--) {
      000212 E5 81            [12] 1648 	mov	a,sp
      000214 24 F8            [12] 1649 	add	a,#0xf8
      000216 F8               [12] 1650 	mov	r0,a
      000217 86 03            [24] 1651 	mov	ar3,@r0
      000219 08               [12] 1652 	inc	r0
      00021A 86 04            [24] 1653 	mov	ar4,@r0
      00021C 08               [12] 1654 	inc	r0
      00021D 86 05            [24] 1655 	mov	ar5,@r0
      00021F E5 81            [12] 1656 	mov	a,sp
      000221 24 F6            [12] 1657 	add	a,#0xf6
      000223 F8               [12] 1658 	mov	r0,a
      000224 E5 81            [12] 1659 	mov	a,sp
      000226 24 FD            [12] 1660 	add	a,#0xfd
      000228 F9               [12] 1661 	mov	r1,a
      000229 E6               [12] 1662 	mov	a,@r0
      00022A F7               [12] 1663 	mov	@r1,a
      00022B 08               [12] 1664 	inc	r0
      00022C 09               [12] 1665 	inc	r1
      00022D E6               [12] 1666 	mov	a,@r0
      00022E F7               [12] 1667 	mov	@r1,a
      00022F                       1668 00101$:
      00022F E5 81            [12] 1669 	mov	a,sp
      000231 24 FD            [12] 1670 	add	a,#0xfd
      000233 F8               [12] 1671 	mov	r0,a
      000234 86 02            [24] 1672 	mov	ar2,@r0
      000236 08               [12] 1673 	inc	r0
      000237 86 07            [24] 1674 	mov	ar7,@r0
      000239 E5 81            [12] 1675 	mov	a,sp
      00023B 24 FD            [12] 1676 	add	a,#0xfd
      00023D F8               [12] 1677 	mov	r0,a
      00023E 16               [12] 1678 	dec	@r0
      00023F B6 FF 02         [24] 1679 	cjne	@r0,#0xFF,00113$
      000242 08               [12] 1680 	inc	r0
      000243 16               [12] 1681 	dec	@r0
      000244                       1682 00113$:
      000244 EA               [12] 1683 	mov	a,r2
      000245 4F               [12] 1684 	orl	a,r7
      000246 60 1B            [24] 1685 	jz	00104$
                                   1686 ;	/home/user/contiki/cpu/cc2530edm_aman/usb/usb-arch.c:343: *to = *from++;
      000248 8B 82            [24] 1687 	mov	dpl,r3
      00024A 8C 83            [24] 1688 	mov	dph,r4
      00024C 8D F0            [24] 1689 	mov	b,r5
      00024E 12r00r00         [24] 1690 	lcall	__gptrget
      000251 FF               [12] 1691 	mov	r7,a
      000252 A3               [24] 1692 	inc	dptr
      000253 AB 82            [24] 1693 	mov	r3,dpl
      000255 AC 83            [24] 1694 	mov	r4,dph
      000257 A8 81            [24] 1695 	mov	r0,sp
      000259 18               [12] 1696 	dec	r0
      00025A 86 82            [24] 1697 	mov	dpl,@r0
      00025C 08               [12] 1698 	inc	r0
      00025D 86 83            [24] 1699 	mov	dph,@r0
      00025F EF               [12] 1700 	mov	a,r7
      000260 F0               [24] 1701 	movx	@dptr,a
      000261 80 CC            [24] 1702 	sjmp	00101$
      000263                       1703 00104$:
      000263 E5 81            [12] 1704 	mov	a,sp
      000265 24 FC            [12] 1705 	add	a,#0xFC
      000267 F5 81            [12] 1706 	mov	sp,a
      000269 22               [24] 1707 	ret
                                   1708 ;------------------------------------------------------------
                                   1709 ;Allocation info for local variables in function 'usb_arch_reset'
                                   1710 ;------------------------------------------------------------
                                   1711 ;e                         Allocated to registers r7 
                                   1712 ;buffer                    Allocated to stack - sp -2
                                   1713 ;------------------------------------------------------------
                                   1714 ;	/home/user/contiki/cpu/cc2530edm_aman/usb/usb-arch.c:348: usb_arch_reset(void)
                                   1715 ;	-----------------------------------------
                                   1716 ;	 function usb_arch_reset
                                   1717 ;	-----------------------------------------
      00026A                       1718 _usb_arch_reset:
      00026A 05 81            [12] 1719 	inc	sp
      00026C 05 81            [12] 1720 	inc	sp
      00026E 05 81            [12] 1721 	inc	sp
                                   1722 ;	/home/user/contiki/cpu/cc2530edm_aman/usb/usb-arch.c:352: for(e = 0; e < USB_MAX_ENDPOINTS; e++) {
      000270 7F 00            [12] 1723 	mov	r7,#0x00
      000272                       1724 00107$:
                                   1725 ;	/home/user/contiki/cpu/cc2530edm_aman/usb/usb-arch.c:353: if(usb_endpoints[e].flags & USB_EP_FLAGS_ENABLED) {
      000272 EF               [12] 1726 	mov	a,r7
      000273 75 F0 0D         [24] 1727 	mov	b,#0x0D
      000276 A4               [48] 1728 	mul	ab
      000277 24r01            [12] 1729 	add	a,#_usb_endpoints
      000279 FD               [12] 1730 	mov	r5,a
      00027A 74s00            [12] 1731 	mov	a,#(_usb_endpoints >> 8)
      00027C 35 F0            [12] 1732 	addc	a,b
      00027E FE               [12] 1733 	mov	r6,a
      00027F 74 02            [12] 1734 	mov	a,#0x02
      000281 2D               [12] 1735 	add	a,r5
      000282 FB               [12] 1736 	mov	r3,a
      000283 E4               [12] 1737 	clr	a
      000284 3E               [12] 1738 	addc	a,r6
      000285 FC               [12] 1739 	mov	r4,a
      000286 8B 82            [24] 1740 	mov	dpl,r3
      000288 8C 83            [24] 1741 	mov	dph,r4
      00028A E0               [24] 1742 	movx	a,@dptr
      00028B FA               [12] 1743 	mov	r2,a
      00028C 20 E2 03         [24] 1744 	jb	acc.2,00127$
      00028F 02r03r15         [24] 1745 	ljmp	00108$
      000292                       1746 00127$:
                                   1747 ;	/home/user/contiki/cpu/cc2530edm_aman/usb/usb-arch.c:354: USBBuffer *buffer = usb_endpoints[e].buffer;
      000292 8D 82            [24] 1748 	mov	dpl,r5
      000294 8E 83            [24] 1749 	mov	dph,r6
      000296 A3               [24] 1750 	inc	dptr
      000297 A3               [24] 1751 	inc	dptr
      000298 A3               [24] 1752 	inc	dptr
      000299 A8 81            [24] 1753 	mov	r0,sp
      00029B 18               [12] 1754 	dec	r0
      00029C 18               [12] 1755 	dec	r0
      00029D E0               [24] 1756 	movx	a,@dptr
      00029E F6               [12] 1757 	mov	@r0,a
      00029F A3               [24] 1758 	inc	dptr
      0002A0 E0               [24] 1759 	movx	a,@dptr
      0002A1 08               [12] 1760 	inc	r0
      0002A2 F6               [12] 1761 	mov	@r0,a
      0002A3 A3               [24] 1762 	inc	dptr
      0002A4 E0               [24] 1763 	movx	a,@dptr
      0002A5 08               [12] 1764 	inc	r0
      0002A6 F6               [12] 1765 	mov	@r0,a
                                   1766 ;	/home/user/contiki/cpu/cc2530edm_aman/usb/usb-arch.c:356: usb_endpoints[e].flags = 0;
      0002A7 8B 82            [24] 1767 	mov	dpl,r3
      0002A9 8C 83            [24] 1768 	mov	dph,r4
      0002AB E4               [12] 1769 	clr	a
      0002AC F0               [24] 1770 	movx	@dptr,a
                                   1771 ;	/home/user/contiki/cpu/cc2530edm_aman/usb/usb-arch.c:357: usb_disable_endpoint(e);
      0002AD 8F 82            [24] 1772 	mov	dpl,r7
      0002AF C0 07            [24] 1773 	push	ar7
      0002B1 12r00r00         [24] 1774 	lcall	_usb_disable_endpoint
      0002B4 D0 07            [24] 1775 	pop	ar7
                                   1776 ;	/home/user/contiki/cpu/cc2530edm_aman/usb/usb-arch.c:358: while(buffer) {
      0002B6                       1777 00101$:
      0002B6 A8 81            [24] 1778 	mov	r0,sp
      0002B8 18               [12] 1779 	dec	r0
      0002B9 18               [12] 1780 	dec	r0
      0002BA E6               [12] 1781 	mov	a,@r0
      0002BB 08               [12] 1782 	inc	r0
      0002BC 46               [12] 1783 	orl	a,@r0
      0002BD 60 56            [24] 1784 	jz	00108$
                                   1785 ;	/home/user/contiki/cpu/cc2530edm_aman/usb/usb-arch.c:359: buffer->flags &= ~USB_BUFFER_SUBMITTED;
      0002BF C0 07            [24] 1786 	push	ar7
      0002C1 E5 81            [12] 1787 	mov	a,sp
      0002C3 24 FD            [12] 1788 	add	a,#0xfd
      0002C5 F8               [12] 1789 	mov	r0,a
      0002C6 74 08            [12] 1790 	mov	a,#0x08
      0002C8 26               [12] 1791 	add	a,@r0
      0002C9 FB               [12] 1792 	mov	r3,a
      0002CA E4               [12] 1793 	clr	a
      0002CB 08               [12] 1794 	inc	r0
      0002CC 36               [12] 1795 	addc	a,@r0
      0002CD FC               [12] 1796 	mov	r4,a
      0002CE 08               [12] 1797 	inc	r0
      0002CF 86 07            [24] 1798 	mov	ar7,@r0
      0002D1 8B 82            [24] 1799 	mov	dpl,r3
      0002D3 8C 83            [24] 1800 	mov	dph,r4
      0002D5 8F F0            [24] 1801 	mov	b,r7
      0002D7 12r00r00         [24] 1802 	lcall	__gptrget
      0002DA FD               [12] 1803 	mov	r5,a
      0002DB A3               [24] 1804 	inc	dptr
      0002DC 12r00r00         [24] 1805 	lcall	__gptrget
      0002DF FE               [12] 1806 	mov	r6,a
      0002E0 53 05 FE         [24] 1807 	anl	ar5,#0xFE
      0002E3 8B 82            [24] 1808 	mov	dpl,r3
      0002E5 8C 83            [24] 1809 	mov	dph,r4
      0002E7 8F F0            [24] 1810 	mov	b,r7
      0002E9 ED               [12] 1811 	mov	a,r5
      0002EA 12r00r00         [24] 1812 	lcall	__gptrput
      0002ED A3               [24] 1813 	inc	dptr
      0002EE EE               [12] 1814 	mov	a,r6
      0002EF 12r00r00         [24] 1815 	lcall	__gptrput
                                   1816 ;	/home/user/contiki/cpu/cc2530edm_aman/usb/usb-arch.c:360: buffer = buffer->next;
      0002F2 E5 81            [12] 1817 	mov	a,sp
      0002F4 24 FD            [12] 1818 	add	a,#0xfd
      0002F6 F8               [12] 1819 	mov	r0,a
      0002F7 86 82            [24] 1820 	mov	dpl,@r0
      0002F9 08               [12] 1821 	inc	r0
      0002FA 86 83            [24] 1822 	mov	dph,@r0
      0002FC 08               [12] 1823 	inc	r0
      0002FD 86 F0            [24] 1824 	mov	b,@r0
      0002FF 12r00r00         [24] 1825 	lcall	__gptrget
      000302 18               [12] 1826 	dec	r0
      000303 18               [12] 1827 	dec	r0
      000304 F6               [12] 1828 	mov	@r0,a
      000305 A3               [24] 1829 	inc	dptr
      000306 12r00r00         [24] 1830 	lcall	__gptrget
      000309 08               [12] 1831 	inc	r0
      00030A F6               [12] 1832 	mov	@r0,a
      00030B A3               [24] 1833 	inc	dptr
      00030C 12r00r00         [24] 1834 	lcall	__gptrget
      00030F 08               [12] 1835 	inc	r0
      000310 F6               [12] 1836 	mov	@r0,a
      000311 D0 07            [24] 1837 	pop	ar7
      000313 80 A1            [24] 1838 	sjmp	00101$
      000315                       1839 00108$:
                                   1840 ;	/home/user/contiki/cpu/cc2530edm_aman/usb/usb-arch.c:352: for(e = 0; e < USB_MAX_ENDPOINTS; e++) {
      000315 0F               [12] 1841 	inc	r7
      000316 BF 04 00         [24] 1842 	cjne	r7,#0x04,00129$
      000319                       1843 00129$:
      000319 50 03            [24] 1844 	jnc	00130$
      00031B 02r02r72         [24] 1845 	ljmp	00107$
      00031E                       1846 00130$:
                                   1847 ;	/home/user/contiki/cpu/cc2530edm_aman/usb/usb-arch.c:364: usb_arch_setup_control_endpoint(0);
      00031E 75 82 00         [24] 1848 	mov	dpl,#0x00
      000321 12r0Ar0A         [24] 1849 	lcall	_usb_arch_setup_control_endpoint
      000324 15 81            [12] 1850 	dec	sp
      000326 15 81            [12] 1851 	dec	sp
      000328 15 81            [12] 1852 	dec	sp
      00032A 22               [24] 1853 	ret
                                   1854 ;------------------------------------------------------------
                                   1855 ;Allocation info for local variables in function 'usb_arch_setup'
                                   1856 ;------------------------------------------------------------
                                   1857 ;i                         Allocated to registers r7 
                                   1858 ;------------------------------------------------------------
                                   1859 ;	/home/user/contiki/cpu/cc2530edm_aman/usb/usb-arch.c:369: usb_arch_setup(void)
                                   1860 ;	-----------------------------------------
                                   1861 ;	 function usb_arch_setup
                                   1862 ;	-----------------------------------------
      00032B                       1863 _usb_arch_setup:
                                   1864 ;	/home/user/contiki/cpu/cc2530edm_aman/usb/usb-arch.c:374: USBCTRL = USBCTRL_USB_EN | USBCTRL_PLL_EN;
      00032B 90 62 0F         [24] 1865 	mov	dptr,#_USBCTRL
      00032E 74 03            [12] 1866 	mov	a,#0x03
      000330 F0               [24] 1867 	movx	@dptr,a
                                   1868 ;	/home/user/contiki/cpu/cc2530edm_aman/usb/usb-arch.c:377: while(!(USBCTRL & USBCTRL_PLL_LOCKED));
      000331                       1869 00101$:
      000331 90 62 0F         [24] 1870 	mov	dptr,#_USBCTRL
      000334 E0               [24] 1871 	movx	a,@dptr
      000335 FF               [12] 1872 	mov	r7,a
      000336 30 E7 F8         [24] 1873 	jnb	acc.7,00101$
                                   1874 ;	/home/user/contiki/cpu/cc2530edm_aman/usb/usb-arch.c:380: PORT_SET(USB_PULLUP_PORT, USB_PULLUP_PIN);
      000339 D2 90            [12] 1875 	setb	_P1_0
                                   1876 ;	/home/user/contiki/cpu/cc2530edm_aman/usb/usb-arch.c:381: PORT_DIR_OUTPUT(USB_PULLUP_PORT, USB_PULLUP_PIN);
      00033B 43 FE 01         [24] 1877 	orl	_P1DIR,#0x01
                                   1878 ;	/home/user/contiki/cpu/cc2530edm_aman/usb/usb-arch.c:383: for(i = 0; i < USB_MAX_ENDPOINTS; i++) {
      00033E 7F 00            [12] 1879 	mov	r7,#0x00
      000340                       1880 00114$:
                                   1881 ;	/home/user/contiki/cpu/cc2530edm_aman/usb/usb-arch.c:384: usb_endpoints[i].flags = 0;
      000340 EF               [12] 1882 	mov	a,r7
      000341 75 F0 0D         [24] 1883 	mov	b,#0x0D
      000344 A4               [48] 1884 	mul	ab
      000345 24r01            [12] 1885 	add	a,#_usb_endpoints
      000347 FD               [12] 1886 	mov	r5,a
      000348 74s00            [12] 1887 	mov	a,#(_usb_endpoints >> 8)
      00034A 35 F0            [12] 1888 	addc	a,b
      00034C FE               [12] 1889 	mov	r6,a
      00034D 8D 82            [24] 1890 	mov	dpl,r5
      00034F 8E 83            [24] 1891 	mov	dph,r6
      000351 A3               [24] 1892 	inc	dptr
      000352 A3               [24] 1893 	inc	dptr
      000353 E4               [12] 1894 	clr	a
      000354 F0               [24] 1895 	movx	@dptr,a
                                   1896 ;	/home/user/contiki/cpu/cc2530edm_aman/usb/usb-arch.c:385: usb_endpoints[i].event_process = 0;
      000355 74 06            [12] 1897 	mov	a,#0x06
      000357 2D               [12] 1898 	add	a,r5
      000358 F5 82            [12] 1899 	mov	dpl,a
      00035A E4               [12] 1900 	clr	a
      00035B 3E               [12] 1901 	addc	a,r6
      00035C F5 83            [12] 1902 	mov	dph,a
      00035E E4               [12] 1903 	clr	a
      00035F F0               [24] 1904 	movx	@dptr,a
      000360 E4               [12] 1905 	clr	a
      000361 A3               [24] 1906 	inc	dptr
      000362 F0               [24] 1907 	movx	@dptr,a
      000363 E4               [12] 1908 	clr	a
      000364 A3               [24] 1909 	inc	dptr
      000365 F0               [24] 1910 	movx	@dptr,a
                                   1911 ;	/home/user/contiki/cpu/cc2530edm_aman/usb/usb-arch.c:383: for(i = 0; i < USB_MAX_ENDPOINTS; i++) {
      000366 0F               [12] 1912 	inc	r7
      000367 BF 04 00         [24] 1913 	cjne	r7,#0x04,00132$
      00036A                       1914 00132$:
      00036A 40 D4            [24] 1915 	jc	00114$
                                   1916 ;	/home/user/contiki/cpu/cc2530edm_aman/usb/usb-arch.c:388: usb_arch_reset();
      00036C 12r02r6A         [24] 1917 	lcall	_usb_arch_reset
                                   1918 ;	/home/user/contiki/cpu/cc2530edm_aman/usb/usb-arch.c:392: USBIIE = 0;
      00036F 90 62 07         [24] 1919 	mov	dptr,#_USBIIE
                                   1920 ;	/home/user/contiki/cpu/cc2530edm_aman/usb/usb-arch.c:393: USBOIE = 0;
      000372 E4               [12] 1921 	clr	a
      000373 F0               [24] 1922 	movx	@dptr,a
      000374 90 62 09         [24] 1923 	mov	dptr,#_USBOIE
      000377 F0               [24] 1924 	movx	@dptr,a
                                   1925 ;	/home/user/contiki/cpu/cc2530edm_aman/usb/usb-arch.c:395: cc253x_p2_register_handler(&usb_irq_handler);
      000378 90r00r00         [24] 1926 	mov	dptr,#_usb_irq_handler
      00037B 75 F0 00         [24] 1927 	mov	b,#0x00
      00037E 12r00r00         [24] 1928 	lcall	_cc253x_p2_register_handler
                                   1929 ;	/home/user/contiki/cpu/cc2530edm_aman/usb/usb-arch.c:397: cc253x_p2_irq_force_enable();
      000381 43 9A 02         [24] 1930 	orl	_IEN2,#0x02
      000384 22               [24] 1931 	ret
                                   1932 ;------------------------------------------------------------
                                   1933 ;Allocation info for local variables in function 'usb_submit_recv_buffer'
                                   1934 ;------------------------------------------------------------
                                   1935 ;buffer                    Allocated to stack - sp -12
                                   1936 ;addr                      Allocated to stack - sp -7
                                   1937 ;tailp                     Allocated to stack - sp -3
                                   1938 ;flag                      Allocated to stack - sp +0
                                   1939 ;ep                        Allocated to registers r5 r4 r6 
                                   1940 ;sloc0                     Allocated to stack - sp -6
                                   1941 ;------------------------------------------------------------
                                   1942 ;	/home/user/contiki/cpu/cc2530edm_aman/usb/usb-arch.c:401: usb_submit_recv_buffer(uint8_t addr, USBBuffer * buffer)
                                   1943 ;	-----------------------------------------
                                   1944 ;	 function usb_submit_recv_buffer
                                   1945 ;	-----------------------------------------
      000385                       1946 _usb_submit_recv_buffer:
      000385 C0 82            [24] 1947 	push	dpl
      000387 E5 81            [12] 1948 	mov	a,sp
      000389 24 07            [12] 1949 	add	a,#0x07
                                   1950 ;	/home/user/contiki/cpu/cc2530edm_aman/usb/usb-arch.c:405: USBEndpoint *ep = EP_STRUCT(addr);
      00038B F5 81            [12] 1951 	mov	sp,a
      00038D 24 F9            [12] 1952 	add	a,#0xf9
      00038F F8               [12] 1953 	mov	r0,a
      000390 74 7F            [12] 1954 	mov	a,#0x7F
      000392 56               [12] 1955 	anl	a,@r0
      000393 75 F0 0D         [24] 1956 	mov	b,#0x0D
      000396 A4               [48] 1957 	mul	ab
      000397 24r01            [12] 1958 	add	a,#_usb_endpoints
      000399 FD               [12] 1959 	mov	r5,a
      00039A 74s00            [12] 1960 	mov	a,#(_usb_endpoints >> 8)
      00039C 35 F0            [12] 1961 	addc	a,b
      00039E FC               [12] 1962 	mov	r4,a
      00039F 7E 00            [12] 1963 	mov	r6,#0x00
                                   1964 ;	/home/user/contiki/cpu/cc2530edm_aman/usb/usb-arch.c:407: if(!(ep->flags & USB_EP_FLAGS_ENABLED)) {
      0003A1 74 02            [12] 1965 	mov	a,#0x02
      0003A3 2D               [12] 1966 	add	a,r5
      0003A4 FA               [12] 1967 	mov	r2,a
      0003A5 E4               [12] 1968 	clr	a
      0003A6 3C               [12] 1969 	addc	a,r4
      0003A7 FB               [12] 1970 	mov	r3,a
      0003A8 8E 07            [24] 1971 	mov	ar7,r6
      0003AA 8A 82            [24] 1972 	mov	dpl,r2
      0003AC 8B 83            [24] 1973 	mov	dph,r3
      0003AE 8F F0            [24] 1974 	mov	b,r7
      0003B0 12r00r00         [24] 1975 	lcall	__gptrget
      0003B3 FA               [12] 1976 	mov	r2,a
      0003B4 20 E2 03         [24] 1977 	jb	acc.2,00102$
                                   1978 ;	/home/user/contiki/cpu/cc2530edm_aman/usb/usb-arch.c:408: return;
      0003B7 02r05r9C         [24] 1979 	ljmp	00127$
      0003BA                       1980 00102$:
                                   1981 ;	/home/user/contiki/cpu/cc2530edm_aman/usb/usb-arch.c:411: if(buffer->data == NULL && EP_HW_NUM(addr) == 0) {
      0003BA C0 05            [24] 1982 	push	ar5
      0003BC C0 04            [24] 1983 	push	ar4
      0003BE C0 06            [24] 1984 	push	ar6
      0003C0 E5 81            [12] 1985 	mov	a,sp
      0003C2 24 F1            [12] 1986 	add	a,#0xf1
      0003C4 F8               [12] 1987 	mov	r0,a
      0003C5 86 02            [24] 1988 	mov	ar2,@r0
      0003C7 08               [12] 1989 	inc	r0
      0003C8 86 03            [24] 1990 	mov	ar3,@r0
      0003CA 08               [12] 1991 	inc	r0
      0003CB 86 07            [24] 1992 	mov	ar7,@r0
      0003CD 74 03            [12] 1993 	mov	a,#0x03
      0003CF 2A               [12] 1994 	add	a,r2
      0003D0 FC               [12] 1995 	mov	r4,a
      0003D1 E4               [12] 1996 	clr	a
      0003D2 3B               [12] 1997 	addc	a,r3
      0003D3 FD               [12] 1998 	mov	r5,a
      0003D4 8F 06            [24] 1999 	mov	ar6,r7
      0003D6 8C 82            [24] 2000 	mov	dpl,r4
      0003D8 8D 83            [24] 2001 	mov	dph,r5
      0003DA 8E F0            [24] 2002 	mov	b,r6
      0003DC 12r00r00         [24] 2003 	lcall	__gptrget
      0003DF FC               [12] 2004 	mov	r4,a
      0003E0 A3               [24] 2005 	inc	dptr
      0003E1 12r00r00         [24] 2006 	lcall	__gptrget
      0003E4 FD               [12] 2007 	mov	r5,a
      0003E5 A3               [24] 2008 	inc	dptr
      0003E6 12r00r00         [24] 2009 	lcall	__gptrget
      0003E9 EC               [12] 2010 	mov	a,r4
      0003EA 4D               [12] 2011 	orl	a,r5
      0003EB D0 06            [24] 2012 	pop	ar6
      0003ED D0 04            [24] 2013 	pop	ar4
      0003EF D0 05            [24] 2014 	pop	ar5
      0003F1 70 4A            [24] 2015 	jnz	00108$
      0003F3 E5 81            [12] 2016 	mov	a,sp
      0003F5 24 F9            [12] 2017 	add	a,#0xf9
      0003F7 F8               [12] 2018 	mov	r0,a
      0003F8 E6               [12] 2019 	mov	a,@r0
      0003F9 54 7F            [12] 2020 	anl	a,#0x7F
      0003FB 60 02            [24] 2021 	jz	00165$
      0003FD 80 3E            [24] 2022 	sjmp	00108$
      0003FF                       2023 00165$:
                                   2024 ;	/home/user/contiki/cpu/cc2530edm_aman/usb/usb-arch.c:416: if(buffer->flags & USB_BUFFER_NOTIFY) {
      0003FF C0 05            [24] 2025 	push	ar5
      000401 C0 04            [24] 2026 	push	ar4
      000403 C0 06            [24] 2027 	push	ar6
      000405 74 08            [12] 2028 	mov	a,#0x08
      000407 2A               [12] 2029 	add	a,r2
      000408 FC               [12] 2030 	mov	r4,a
      000409 E4               [12] 2031 	clr	a
      00040A 3B               [12] 2032 	addc	a,r3
      00040B FD               [12] 2033 	mov	r5,a
      00040C 8F 06            [24] 2034 	mov	ar6,r7
      00040E 8C 82            [24] 2035 	mov	dpl,r4
      000410 8D 83            [24] 2036 	mov	dph,r5
      000412 8E F0            [24] 2037 	mov	b,r6
      000414 12r00r00         [24] 2038 	lcall	__gptrget
      000417 FC               [12] 2039 	mov	r4,a
      000418 A3               [24] 2040 	inc	dptr
      000419 12r00r00         [24] 2041 	lcall	__gptrget
      00041C EC               [12] 2042 	mov	a,r4
      00041D D0 06            [24] 2043 	pop	ar6
      00041F D0 04            [24] 2044 	pop	ar4
      000421 D0 05            [24] 2045 	pop	ar5
      000423 30 E3 14         [24] 2046 	jnb	acc.3,00104$
                                   2047 ;	/home/user/contiki/cpu/cc2530edm_aman/usb/usb-arch.c:417: notify_ep_process(ep, USB_EP_EVENT_NOTIFICATION);
      000426 74 01            [12] 2048 	mov	a,#0x01
      000428 C0 E0            [24] 2049 	push	acc
      00042A E4               [12] 2050 	clr	a
      00042B C0 E0            [24] 2051 	push	acc
      00042D 8D 82            [24] 2052 	mov	dpl,r5
      00042F 8C 83            [24] 2053 	mov	dph,r4
      000431 8E F0            [24] 2054 	mov	b,r6
      000433 12r00r2F         [24] 2055 	lcall	_notify_ep_process
      000436 15 81            [12] 2056 	dec	sp
      000438 15 81            [12] 2057 	dec	sp
      00043A                       2058 00104$:
                                   2059 ;	/home/user/contiki/cpu/cc2530edm_aman/usb/usb-arch.c:419: return;
      00043A 02r05r9C         [24] 2060 	ljmp	00127$
                                   2061 ;	/home/user/contiki/cpu/cc2530edm_aman/usb/usb-arch.c:422: usb_irq_disable(flag);
      00043D                       2062 00108$:
      00043D C0 02            [24] 2063 	push	ar2
      00043F C0 03            [24] 2064 	push	ar3
      000441 C0 07            [24] 2065 	push	ar7
      000443 E5 81            [12] 2066 	mov	a,sp
      000445 24 FD            [12] 2067 	add	a,#0xfd
      000447 F8               [12] 2068 	mov	r0,a
      000448 74 02            [12] 2069 	mov	a,#0x02
      00044A 55 9A            [12] 2070 	anl	a,_IEN2
      00044C F6               [12] 2071 	mov	@r0,a
      00044D AF 9A            [24] 2072 	mov	r7,_IEN2
      00044F 74 FD            [12] 2073 	mov	a,#0xFD
      000451 5F               [12] 2074 	anl	a,r7
      000452 F5 9A            [12] 2075 	mov	_IEN2,a
                                   2076 ;	/home/user/contiki/cpu/cc2530edm_aman/usb/usb-arch.c:424: tailp = &ep->buffer;
      000454 E5 81            [12] 2077 	mov	a,sp
      000456 24 FA            [12] 2078 	add	a,#0xfa
      000458 F8               [12] 2079 	mov	r0,a
      000459 74 03            [12] 2080 	mov	a,#0x03
      00045B 2D               [12] 2081 	add	a,r5
      00045C F6               [12] 2082 	mov	@r0,a
      00045D E4               [12] 2083 	clr	a
      00045E 3C               [12] 2084 	addc	a,r4
      00045F 08               [12] 2085 	inc	r0
      000460 F6               [12] 2086 	mov	@r0,a
      000461 08               [12] 2087 	inc	r0
      000462 A6 06            [24] 2088 	mov	@r0,ar6
                                   2089 ;	/home/user/contiki/cpu/cc2530edm_aman/usb/usb-arch.c:444: usb_irq_enable(flag);
      000464 D0 07            [24] 2090 	pop	ar7
      000466 D0 03            [24] 2091 	pop	ar3
      000468 D0 02            [24] 2092 	pop	ar2
                                   2093 ;	/home/user/contiki/cpu/cc2530edm_aman/usb/usb-arch.c:425: while(*tailp) {
      00046A                       2094 00111$:
      00046A E5 81            [12] 2095 	mov	a,sp
      00046C 24 FD            [12] 2096 	add	a,#0xfd
      00046E F8               [12] 2097 	mov	r0,a
      00046F 86 82            [24] 2098 	mov	dpl,@r0
      000471 08               [12] 2099 	inc	r0
      000472 86 83            [24] 2100 	mov	dph,@r0
      000474 08               [12] 2101 	inc	r0
      000475 86 F0            [24] 2102 	mov	b,@r0
      000477 E5 81            [12] 2103 	mov	a,sp
      000479 24 FA            [12] 2104 	add	a,#0xfa
      00047B F9               [12] 2105 	mov	r1,a
      00047C 12r00r00         [24] 2106 	lcall	__gptrget
      00047F F7               [12] 2107 	mov	@r1,a
      000480 A3               [24] 2108 	inc	dptr
      000481 12r00r00         [24] 2109 	lcall	__gptrget
      000484 09               [12] 2110 	inc	r1
      000485 F7               [12] 2111 	mov	@r1,a
      000486 A3               [24] 2112 	inc	dptr
      000487 12r00r00         [24] 2113 	lcall	__gptrget
      00048A 09               [12] 2114 	inc	r1
      00048B F7               [12] 2115 	mov	@r1,a
      00048C E5 81            [12] 2116 	mov	a,sp
      00048E 24 FA            [12] 2117 	add	a,#0xfa
      000490 F8               [12] 2118 	mov	r0,a
      000491 E6               [12] 2119 	mov	a,@r0
      000492 08               [12] 2120 	inc	r0
      000493 46               [12] 2121 	orl	a,@r0
      000494 60 28            [24] 2122 	jz	00113$
                                   2123 ;	/home/user/contiki/cpu/cc2530edm_aman/usb/usb-arch.c:426: tailp = &(*tailp)->next;
      000496 C0 02            [24] 2124 	push	ar2
      000498 C0 03            [24] 2125 	push	ar3
      00049A C0 07            [24] 2126 	push	ar7
      00049C E5 81            [12] 2127 	mov	a,sp
      00049E 24 F7            [12] 2128 	add	a,#0xf7
      0004A0 F8               [12] 2129 	mov	r0,a
      0004A1 86 02            [24] 2130 	mov	ar2,@r0
      0004A3 08               [12] 2131 	inc	r0
      0004A4 86 03            [24] 2132 	mov	ar3,@r0
      0004A6 08               [12] 2133 	inc	r0
      0004A7 86 07            [24] 2134 	mov	ar7,@r0
      0004A9 E5 81            [12] 2135 	mov	a,sp
      0004AB 24 FA            [12] 2136 	add	a,#0xfa
      0004AD F8               [12] 2137 	mov	r0,a
      0004AE A6 02            [24] 2138 	mov	@r0,ar2
      0004B0 08               [12] 2139 	inc	r0
      0004B1 A6 03            [24] 2140 	mov	@r0,ar3
      0004B3 08               [12] 2141 	inc	r0
      0004B4 A6 07            [24] 2142 	mov	@r0,ar7
      0004B6 D0 07            [24] 2143 	pop	ar7
      0004B8 D0 03            [24] 2144 	pop	ar3
      0004BA D0 02            [24] 2145 	pop	ar2
      0004BC 80 AC            [24] 2146 	sjmp	00111$
      0004BE                       2147 00113$:
                                   2148 ;	/home/user/contiki/cpu/cc2530edm_aman/usb/usb-arch.c:428: *tailp = buffer;
      0004BE E5 81            [12] 2149 	mov	a,sp
      0004C0 24 FD            [12] 2150 	add	a,#0xfd
      0004C2 F8               [12] 2151 	mov	r0,a
      0004C3 86 82            [24] 2152 	mov	dpl,@r0
      0004C5 08               [12] 2153 	inc	r0
      0004C6 86 83            [24] 2154 	mov	dph,@r0
      0004C8 08               [12] 2155 	inc	r0
      0004C9 86 F0            [24] 2156 	mov	b,@r0
      0004CB EA               [12] 2157 	mov	a,r2
      0004CC 12r00r00         [24] 2158 	lcall	__gptrput
      0004CF A3               [24] 2159 	inc	dptr
      0004D0 EB               [12] 2160 	mov	a,r3
      0004D1 12r00r00         [24] 2161 	lcall	__gptrput
      0004D4 A3               [24] 2162 	inc	dptr
      0004D5 EF               [12] 2163 	mov	a,r7
      0004D6 12r00r00         [24] 2164 	lcall	__gptrput
                                   2165 ;	/home/user/contiki/cpu/cc2530edm_aman/usb/usb-arch.c:429: while(buffer) {
      0004D9                       2166 00114$:
      0004D9 E5 81            [12] 2167 	mov	a,sp
      0004DB 24 F4            [12] 2168 	add	a,#0xf4
      0004DD F8               [12] 2169 	mov	r0,a
      0004DE E6               [12] 2170 	mov	a,@r0
      0004DF 08               [12] 2171 	inc	r0
      0004E0 46               [12] 2172 	orl	a,@r0
      0004E1 60 76            [24] 2173 	jz	00116$
                                   2174 ;	/home/user/contiki/cpu/cc2530edm_aman/usb/usb-arch.c:430: buffer->flags |= USB_BUFFER_SUBMITTED;
      0004E3 C0 05            [24] 2175 	push	ar5
      0004E5 C0 04            [24] 2176 	push	ar4
      0004E7 C0 06            [24] 2177 	push	ar6
      0004E9 E5 81            [12] 2178 	mov	a,sp
      0004EB 24 F1            [12] 2179 	add	a,#0xf1
      0004ED F8               [12] 2180 	mov	r0,a
      0004EE 86 02            [24] 2181 	mov	ar2,@r0
      0004F0 08               [12] 2182 	inc	r0
      0004F1 86 03            [24] 2183 	mov	ar3,@r0
      0004F3 08               [12] 2184 	inc	r0
      0004F4 86 07            [24] 2185 	mov	ar7,@r0
      0004F6 E5 81            [12] 2186 	mov	a,sp
      0004F8 24 F7            [12] 2187 	add	a,#0xf7
      0004FA F8               [12] 2188 	mov	r0,a
      0004FB 74 08            [12] 2189 	mov	a,#0x08
      0004FD 2A               [12] 2190 	add	a,r2
      0004FE F6               [12] 2191 	mov	@r0,a
      0004FF E4               [12] 2192 	clr	a
      000500 3B               [12] 2193 	addc	a,r3
      000501 08               [12] 2194 	inc	r0
      000502 F6               [12] 2195 	mov	@r0,a
      000503 08               [12] 2196 	inc	r0
      000504 A6 07            [24] 2197 	mov	@r0,ar7
      000506 E5 81            [12] 2198 	mov	a,sp
      000508 24 F7            [12] 2199 	add	a,#0xf7
      00050A F8               [12] 2200 	mov	r0,a
      00050B 86 82            [24] 2201 	mov	dpl,@r0
      00050D 08               [12] 2202 	inc	r0
      00050E 86 83            [24] 2203 	mov	dph,@r0
      000510 08               [12] 2204 	inc	r0
      000511 86 F0            [24] 2205 	mov	b,@r0
      000513 12r00r00         [24] 2206 	lcall	__gptrget
      000516 FD               [12] 2207 	mov	r5,a
      000517 A3               [24] 2208 	inc	dptr
      000518 12r00r00         [24] 2209 	lcall	__gptrget
      00051B FE               [12] 2210 	mov	r6,a
      00051C 43 05 01         [24] 2211 	orl	ar5,#0x01
      00051F E5 81            [12] 2212 	mov	a,sp
      000521 24 F7            [12] 2213 	add	a,#0xf7
      000523 F8               [12] 2214 	mov	r0,a
      000524 86 82            [24] 2215 	mov	dpl,@r0
      000526 08               [12] 2216 	inc	r0
      000527 86 83            [24] 2217 	mov	dph,@r0
      000529 08               [12] 2218 	inc	r0
      00052A 86 F0            [24] 2219 	mov	b,@r0
      00052C ED               [12] 2220 	mov	a,r5
      00052D 12r00r00         [24] 2221 	lcall	__gptrput
      000530 A3               [24] 2222 	inc	dptr
      000531 EE               [12] 2223 	mov	a,r6
      000532 12r00r00         [24] 2224 	lcall	__gptrput
                                   2225 ;	/home/user/contiki/cpu/cc2530edm_aman/usb/usb-arch.c:431: buffer = buffer->next;
      000535 8A 82            [24] 2226 	mov	dpl,r2
      000537 8B 83            [24] 2227 	mov	dph,r3
      000539 8F F0            [24] 2228 	mov	b,r7
      00053B E5 81            [12] 2229 	mov	a,sp
      00053D 24 F1            [12] 2230 	add	a,#0xf1
      00053F F8               [12] 2231 	mov	r0,a
      000540 12r00r00         [24] 2232 	lcall	__gptrget
      000543 F6               [12] 2233 	mov	@r0,a
      000544 A3               [24] 2234 	inc	dptr
      000545 12r00r00         [24] 2235 	lcall	__gptrget
      000548 08               [12] 2236 	inc	r0
      000549 F6               [12] 2237 	mov	@r0,a
      00054A A3               [24] 2238 	inc	dptr
      00054B 12r00r00         [24] 2239 	lcall	__gptrget
      00054E 08               [12] 2240 	inc	r0
      00054F F6               [12] 2241 	mov	@r0,a
      000550 D0 06            [24] 2242 	pop	ar6
      000552 D0 04            [24] 2243 	pop	ar4
      000554 D0 05            [24] 2244 	pop	ar5
      000556 02r04rD9         [24] 2245 	ljmp	00114$
      000559                       2246 00116$:
                                   2247 ;	/home/user/contiki/cpu/cc2530edm_aman/usb/usb-arch.c:434: USBINDEX = EP_HW_NUM(addr);
      000559 E5 81            [12] 2248 	mov	a,sp
      00055B 24 F9            [12] 2249 	add	a,#0xf9
      00055D F8               [12] 2250 	mov	r0,a
      00055E 90 62 0E         [24] 2251 	mov	dptr,#_USBINDEX
      000561 74 7F            [12] 2252 	mov	a,#0x7F
      000563 56               [12] 2253 	anl	a,@r0
      000564 F0               [24] 2254 	movx	@dptr,a
                                   2255 ;	/home/user/contiki/cpu/cc2530edm_aman/usb/usb-arch.c:435: if(!EP_HW_NUM(ep->addr)) {
      000565 0D               [12] 2256 	inc	r5
      000566 BD 00 01         [24] 2257 	cjne	r5,#0x00,00169$
      000569 0C               [12] 2258 	inc	r4
      00056A                       2259 00169$:
      00056A 8D 82            [24] 2260 	mov	dpl,r5
      00056C 8C 83            [24] 2261 	mov	dph,r4
      00056E 8E F0            [24] 2262 	mov	b,r6
      000570 12r00r00         [24] 2263 	lcall	__gptrget
      000573 FF               [12] 2264 	mov	r7,a
      000574 54 7F            [12] 2265 	anl	a,#0x7F
      000576 60 02            [24] 2266 	jz	00171$
      000578 80 0D            [24] 2267 	sjmp	00122$
      00057A                       2268 00171$:
                                   2269 ;	/home/user/contiki/cpu/cc2530edm_aman/usb/usb-arch.c:436: if(USBCS0 & USBCS0_OUTPKT_RDY) {
      00057A 90 62 11         [24] 2270 	mov	dptr,#_USBCS0
      00057D E0               [24] 2271 	movx	a,@dptr
      00057E FE               [12] 2272 	mov	r6,a
      00057F 30 E0 15         [24] 2273 	jnb	acc.0,00124$
                                   2274 ;	/home/user/contiki/cpu/cc2530edm_aman/usb/usb-arch.c:437: usb_arch_ep0_irq();
      000582 12r19rFC         [24] 2275 	lcall	_usb_arch_ep0_irq
      000585 80 10            [24] 2276 	sjmp	00124$
      000587                       2277 00122$:
                                   2278 ;	/home/user/contiki/cpu/cc2530edm_aman/usb/usb-arch.c:440: if(USBCSOL & USBCSOL_OUTPKT_RDY) {
      000587 90 62 14         [24] 2279 	mov	dptr,#_USBCSOL
      00058A E0               [24] 2280 	movx	a,@dptr
      00058B FE               [12] 2281 	mov	r6,a
      00058C 30 E0 08         [24] 2282 	jnb	acc.0,00124$
                                   2283 ;	/home/user/contiki/cpu/cc2530edm_aman/usb/usb-arch.c:441: usb_arch_epout_irq(EP_HW_NUM(ep->addr));
      00058F 53 07 7F         [24] 2284 	anl	ar7,#0x7F
      000592 8F 82            [24] 2285 	mov	dpl,r7
      000594 12r1FrB3         [24] 2286 	lcall	_usb_arch_epout_irq
                                   2287 ;	/home/user/contiki/cpu/cc2530edm_aman/usb/usb-arch.c:444: usb_irq_enable(flag);
      000597                       2288 00124$:
      000597 A8 81            [24] 2289 	mov	r0,sp
      000599 E6               [12] 2290 	mov	a,@r0
      00059A 42 9A            [12] 2291 	orl	_IEN2,a
      00059C                       2292 00127$:
      00059C E5 81            [12] 2293 	mov	a,sp
      00059E 24 F8            [12] 2294 	add	a,#0xF8
      0005A0 F5 81            [12] 2295 	mov	sp,a
      0005A2 22               [24] 2296 	ret
                                   2297 ;------------------------------------------------------------
                                   2298 ;Allocation info for local variables in function 'usb_submit_xmit_buffer'
                                   2299 ;------------------------------------------------------------
                                   2300 ;buffer                    Allocated to stack - sp -11
                                   2301 ;addr                      Allocated to registers r4 
                                   2302 ;tailp                     Allocated to registers r2 r3 r7 
                                   2303 ;flag                      Allocated to stack - sp -3
                                   2304 ;res                       Allocated to registers r7 
                                   2305 ;ep                        Allocated to stack - sp -2
                                   2306 ;sloc0                     Allocated to stack - sp -6
                                   2307 ;------------------------------------------------------------
                                   2308 ;	/home/user/contiki/cpu/cc2530edm_aman/usb/usb-arch.c:448: usb_submit_xmit_buffer(uint8_t addr, USBBuffer * buffer)
                                   2309 ;	-----------------------------------------
                                   2310 ;	 function usb_submit_xmit_buffer
                                   2311 ;	-----------------------------------------
      0005A3                       2312 _usb_submit_xmit_buffer:
      0005A3 E5 81            [12] 2313 	mov	a,sp
      0005A5 24 07            [12] 2314 	add	a,#0x07
      0005A7 F5 81            [12] 2315 	mov	sp,a
      0005A9 AC 82            [24] 2316 	mov	r4,dpl
                                   2317 ;	/home/user/contiki/cpu/cc2530edm_aman/usb/usb-arch.c:453: USBEndpoint *ep = EP_STRUCT(addr);
      0005AB 74 7F            [12] 2318 	mov	a,#0x7F
      0005AD 5C               [12] 2319 	anl	a,r4
      0005AE 75 F0 0D         [24] 2320 	mov	b,#0x0D
      0005B1 A4               [48] 2321 	mul	ab
      0005B2 24r01            [12] 2322 	add	a,#_usb_endpoints
      0005B4 FD               [12] 2323 	mov	r5,a
      0005B5 74s00            [12] 2324 	mov	a,#(_usb_endpoints >> 8)
      0005B7 35 F0            [12] 2325 	addc	a,b
      0005B9 FE               [12] 2326 	mov	r6,a
      0005BA A8 81            [24] 2327 	mov	r0,sp
      0005BC 18               [12] 2328 	dec	r0
      0005BD 18               [12] 2329 	dec	r0
      0005BE A6 05            [24] 2330 	mov	@r0,ar5
      0005C0 08               [12] 2331 	inc	r0
      0005C1 A6 06            [24] 2332 	mov	@r0,ar6
      0005C3 08               [12] 2333 	inc	r0
      0005C4 76 00            [12] 2334 	mov	@r0,#0x00
                                   2335 ;	/home/user/contiki/cpu/cc2530edm_aman/usb/usb-arch.c:455: if(!(ep->flags & USB_EP_FLAGS_ENABLED)) {
      0005C6 A8 81            [24] 2336 	mov	r0,sp
      0005C8 18               [12] 2337 	dec	r0
      0005C9 18               [12] 2338 	dec	r0
      0005CA 74 02            [12] 2339 	mov	a,#0x02
      0005CC 26               [12] 2340 	add	a,@r0
      0005CD FA               [12] 2341 	mov	r2,a
      0005CE E4               [12] 2342 	clr	a
      0005CF 08               [12] 2343 	inc	r0
      0005D0 36               [12] 2344 	addc	a,@r0
      0005D1 FB               [12] 2345 	mov	r3,a
      0005D2 08               [12] 2346 	inc	r0
      0005D3 86 07            [24] 2347 	mov	ar7,@r0
      0005D5 8A 82            [24] 2348 	mov	dpl,r2
      0005D7 8B 83            [24] 2349 	mov	dph,r3
      0005D9 8F F0            [24] 2350 	mov	b,r7
      0005DB 12r00r00         [24] 2351 	lcall	__gptrget
      0005DE FA               [12] 2352 	mov	r2,a
      0005DF 20 E2 03         [24] 2353 	jb	acc.2,00103$
                                   2354 ;	/home/user/contiki/cpu/cc2530edm_aman/usb/usb-arch.c:456: return;
      0005E2 02r07r8A         [24] 2355 	ljmp	00128$
                                   2356 ;	/home/user/contiki/cpu/cc2530edm_aman/usb/usb-arch.c:459: usb_irq_disable(flag);
      0005E5                       2357 00103$:
      0005E5 E5 81            [12] 2358 	mov	a,sp
      0005E7 24 FD            [12] 2359 	add	a,#0xfd
      0005E9 F8               [12] 2360 	mov	r0,a
      0005EA 74 02            [12] 2361 	mov	a,#0x02
      0005EC 55 9A            [12] 2362 	anl	a,_IEN2
      0005EE F6               [12] 2363 	mov	@r0,a
      0005EF AB 9A            [24] 2364 	mov	r3,_IEN2
      0005F1 74 FD            [12] 2365 	mov	a,#0xFD
      0005F3 5B               [12] 2366 	anl	a,r3
      0005F4 F5 9A            [12] 2367 	mov	_IEN2,a
                                   2368 ;	/home/user/contiki/cpu/cc2530edm_aman/usb/usb-arch.c:462: if(EP_HW_NUM(addr) == 0) {
      0005F6 EC               [12] 2369 	mov	a,r4
      0005F7 54 7F            [12] 2370 	anl	a,#0x7F
      0005F9 60 02            [24] 2371 	jz	00159$
      0005FB 80 68            [24] 2372 	sjmp	00113$
      0005FD                       2373 00159$:
                                   2374 ;	/home/user/contiki/cpu/cc2530edm_aman/usb/usb-arch.c:463: if(buffer->data == NULL) {
      0005FD E5 81            [12] 2375 	mov	a,sp
      0005FF 24 F5            [12] 2376 	add	a,#0xf5
      000601 F8               [12] 2377 	mov	r0,a
      000602 86 02            [24] 2378 	mov	ar2,@r0
      000604 08               [12] 2379 	inc	r0
      000605 86 03            [24] 2380 	mov	ar3,@r0
      000607 08               [12] 2381 	inc	r0
      000608 86 07            [24] 2382 	mov	ar7,@r0
      00060A 74 03            [12] 2383 	mov	a,#0x03
      00060C 2A               [12] 2384 	add	a,r2
      00060D FA               [12] 2385 	mov	r2,a
      00060E E4               [12] 2386 	clr	a
      00060F 3B               [12] 2387 	addc	a,r3
      000610 FB               [12] 2388 	mov	r3,a
      000611 8A 82            [24] 2389 	mov	dpl,r2
      000613 8B 83            [24] 2390 	mov	dph,r3
      000615 8F F0            [24] 2391 	mov	b,r7
      000617 12r00r00         [24] 2392 	lcall	__gptrget
      00061A FA               [12] 2393 	mov	r2,a
      00061B A3               [24] 2394 	inc	dptr
      00061C 12r00r00         [24] 2395 	lcall	__gptrget
      00061F FB               [12] 2396 	mov	r3,a
      000620 A3               [24] 2397 	inc	dptr
      000621 12r00r00         [24] 2398 	lcall	__gptrget
      000624 FF               [12] 2399 	mov	r7,a
      000625 EA               [12] 2400 	mov	a,r2
      000626 4B               [12] 2401 	orl	a,r3
      000627 70 31            [24] 2402 	jnz	00110$
                                   2403 ;	/home/user/contiki/cpu/cc2530edm_aman/usb/usb-arch.c:467: USBINDEX = 0;
      000629 90 62 0E         [24] 2404 	mov	dptr,#_USBINDEX
      00062C E4               [12] 2405 	clr	a
      00062D F0               [24] 2406 	movx	@dptr,a
                                   2407 ;	/home/user/contiki/cpu/cc2530edm_aman/usb/usb-arch.c:468: USBCS0 = USBCS0_CLR_OUTPKT_RDY | USBCS0_DATA_END;
      00062E 90 62 11         [24] 2408 	mov	dptr,#_USBCS0
      000631 74 48            [12] 2409 	mov	a,#0x48
      000633 F0               [24] 2410 	movx	@dptr,a
                                   2411 ;	/home/user/contiki/cpu/cc2530edm_aman/usb/usb-arch.c:469: notify_ep_process(ep, USB_EP_EVENT_NOTIFICATION);
      000634 74 01            [12] 2412 	mov	a,#0x01
      000636 C0 E0            [24] 2413 	push	acc
      000638 E4               [12] 2414 	clr	a
      000639 C0 E0            [24] 2415 	push	acc
      00063B E5 81            [12] 2416 	mov	a,sp
      00063D 24 FC            [12] 2417 	add	a,#0xfc
      00063F F8               [12] 2418 	mov	r0,a
      000640 86 82            [24] 2419 	mov	dpl,@r0
      000642 08               [12] 2420 	inc	r0
      000643 86 83            [24] 2421 	mov	dph,@r0
      000645 08               [12] 2422 	inc	r0
      000646 86 F0            [24] 2423 	mov	b,@r0
      000648 12r00r2F         [24] 2424 	lcall	_notify_ep_process
      00064B 15 81            [12] 2425 	dec	sp
      00064D 15 81            [12] 2426 	dec	sp
                                   2427 ;	/home/user/contiki/cpu/cc2530edm_aman/usb/usb-arch.c:470: usb_irq_enable(flag);
      00064F E5 81            [12] 2428 	mov	a,sp
      000651 24 FD            [12] 2429 	add	a,#0xfd
      000653 F8               [12] 2430 	mov	r0,a
      000654 E6               [12] 2431 	mov	a,@r0
      000655 42 9A            [12] 2432 	orl	_IEN2,a
                                   2433 ;	/home/user/contiki/cpu/cc2530edm_aman/usb/usb-arch.c:471: return;
      000657 02r07r8A         [24] 2434 	ljmp	00128$
      00065A                       2435 00110$:
                                   2436 ;	/home/user/contiki/cpu/cc2530edm_aman/usb/usb-arch.c:474: USBINDEX = 0;
      00065A 90 62 0E         [24] 2437 	mov	dptr,#_USBINDEX
      00065D E4               [12] 2438 	clr	a
      00065E F0               [24] 2439 	movx	@dptr,a
                                   2440 ;	/home/user/contiki/cpu/cc2530edm_aman/usb/usb-arch.c:475: USBCS0 = USBCS0_CLR_OUTPKT_RDY;
      00065F 90 62 11         [24] 2441 	mov	dptr,#_USBCS0
      000662 74 40            [12] 2442 	mov	a,#0x40
      000664 F0               [24] 2443 	movx	@dptr,a
      000665                       2444 00113$:
                                   2445 ;	/home/user/contiki/cpu/cc2530edm_aman/usb/usb-arch.c:479: tailp = &ep->buffer;
      000665 A8 81            [24] 2446 	mov	r0,sp
      000667 18               [12] 2447 	dec	r0
      000668 18               [12] 2448 	dec	r0
      000669 74 03            [12] 2449 	mov	a,#0x03
      00066B 26               [12] 2450 	add	a,@r0
      00066C FA               [12] 2451 	mov	r2,a
      00066D E4               [12] 2452 	clr	a
      00066E 08               [12] 2453 	inc	r0
      00066F 36               [12] 2454 	addc	a,@r0
      000670 FB               [12] 2455 	mov	r3,a
      000671 08               [12] 2456 	inc	r0
      000672 86 07            [24] 2457 	mov	ar7,@r0
                                   2458 ;	/home/user/contiki/cpu/cc2530edm_aman/usb/usb-arch.c:480: while(*tailp) {
      000674                       2459 00114$:
      000674 8A 82            [24] 2460 	mov	dpl,r2
      000676 8B 83            [24] 2461 	mov	dph,r3
      000678 8F F0            [24] 2462 	mov	b,r7
      00067A 12r00r00         [24] 2463 	lcall	__gptrget
      00067D FC               [12] 2464 	mov	r4,a
      00067E A3               [24] 2465 	inc	dptr
      00067F 12r00r00         [24] 2466 	lcall	__gptrget
      000682 FD               [12] 2467 	mov	r5,a
      000683 A3               [24] 2468 	inc	dptr
      000684 12r00r00         [24] 2469 	lcall	__gptrget
      000687 FE               [12] 2470 	mov	r6,a
      000688 EC               [12] 2471 	mov	a,r4
      000689 4D               [12] 2472 	orl	a,r5
      00068A 60 08            [24] 2473 	jz	00116$
                                   2474 ;	/home/user/contiki/cpu/cc2530edm_aman/usb/usb-arch.c:481: tailp = &(*tailp)->next;
      00068C 8C 02            [24] 2475 	mov	ar2,r4
      00068E 8D 03            [24] 2476 	mov	ar3,r5
      000690 8E 07            [24] 2477 	mov	ar7,r6
      000692 80 E0            [24] 2478 	sjmp	00114$
      000694                       2479 00116$:
                                   2480 ;	/home/user/contiki/cpu/cc2530edm_aman/usb/usb-arch.c:483: *tailp = buffer;
      000694 8A 82            [24] 2481 	mov	dpl,r2
      000696 8B 83            [24] 2482 	mov	dph,r3
      000698 8F F0            [24] 2483 	mov	b,r7
      00069A E5 81            [12] 2484 	mov	a,sp
      00069C 24 F5            [12] 2485 	add	a,#0xf5
      00069E F8               [12] 2486 	mov	r0,a
      00069F E6               [12] 2487 	mov	a,@r0
      0006A0 12r00r00         [24] 2488 	lcall	__gptrput
      0006A3 A3               [24] 2489 	inc	dptr
      0006A4 08               [12] 2490 	inc	r0
      0006A5 E6               [12] 2491 	mov	a,@r0
      0006A6 12r00r00         [24] 2492 	lcall	__gptrput
      0006A9 A3               [24] 2493 	inc	dptr
      0006AA 08               [12] 2494 	inc	r0
      0006AB E6               [12] 2495 	mov	a,@r0
      0006AC 12r00r00         [24] 2496 	lcall	__gptrput
                                   2497 ;	/home/user/contiki/cpu/cc2530edm_aman/usb/usb-arch.c:484: while(buffer) {
      0006AF                       2498 00117$:
      0006AF E5 81            [12] 2499 	mov	a,sp
      0006B1 24 F5            [12] 2500 	add	a,#0xf5
      0006B3 F8               [12] 2501 	mov	r0,a
      0006B4 E6               [12] 2502 	mov	a,@r0
      0006B5 08               [12] 2503 	inc	r0
      0006B6 46               [12] 2504 	orl	a,@r0
      0006B7 60 69            [24] 2505 	jz	00119$
                                   2506 ;	/home/user/contiki/cpu/cc2530edm_aman/usb/usb-arch.c:485: buffer->flags |= USB_BUFFER_SUBMITTED | USB_BUFFER_IN;
      0006B9 E5 81            [12] 2507 	mov	a,sp
      0006BB 24 F5            [12] 2508 	add	a,#0xf5
      0006BD F8               [12] 2509 	mov	r0,a
      0006BE 86 05            [24] 2510 	mov	ar5,@r0
      0006C0 08               [12] 2511 	inc	r0
      0006C1 86 06            [24] 2512 	mov	ar6,@r0
      0006C3 08               [12] 2513 	inc	r0
      0006C4 86 07            [24] 2514 	mov	ar7,@r0
      0006C6 E5 81            [12] 2515 	mov	a,sp
      0006C8 24 FA            [12] 2516 	add	a,#0xfa
      0006CA F8               [12] 2517 	mov	r0,a
      0006CB 74 08            [12] 2518 	mov	a,#0x08
      0006CD 2D               [12] 2519 	add	a,r5
      0006CE F6               [12] 2520 	mov	@r0,a
      0006CF E4               [12] 2521 	clr	a
      0006D0 3E               [12] 2522 	addc	a,r6
      0006D1 08               [12] 2523 	inc	r0
      0006D2 F6               [12] 2524 	mov	@r0,a
      0006D3 08               [12] 2525 	inc	r0
      0006D4 A6 07            [24] 2526 	mov	@r0,ar7
      0006D6 E5 81            [12] 2527 	mov	a,sp
      0006D8 24 FA            [12] 2528 	add	a,#0xfa
      0006DA F8               [12] 2529 	mov	r0,a
      0006DB 86 82            [24] 2530 	mov	dpl,@r0
      0006DD 08               [12] 2531 	inc	r0
      0006DE 86 83            [24] 2532 	mov	dph,@r0
      0006E0 08               [12] 2533 	inc	r0
      0006E1 86 F0            [24] 2534 	mov	b,@r0
      0006E3 12r00r00         [24] 2535 	lcall	__gptrget
      0006E6 FB               [12] 2536 	mov	r3,a
      0006E7 A3               [24] 2537 	inc	dptr
      0006E8 12r00r00         [24] 2538 	lcall	__gptrget
      0006EB FC               [12] 2539 	mov	r4,a
      0006EC 43 03 41         [24] 2540 	orl	ar3,#0x41
      0006EF E5 81            [12] 2541 	mov	a,sp
      0006F1 24 FA            [12] 2542 	add	a,#0xfa
      0006F3 F8               [12] 2543 	mov	r0,a
      0006F4 86 82            [24] 2544 	mov	dpl,@r0
      0006F6 08               [12] 2545 	inc	r0
      0006F7 86 83            [24] 2546 	mov	dph,@r0
      0006F9 08               [12] 2547 	inc	r0
      0006FA 86 F0            [24] 2548 	mov	b,@r0
      0006FC EB               [12] 2549 	mov	a,r3
      0006FD 12r00r00         [24] 2550 	lcall	__gptrput
      000700 A3               [24] 2551 	inc	dptr
      000701 EC               [12] 2552 	mov	a,r4
      000702 12r00r00         [24] 2553 	lcall	__gptrput
                                   2554 ;	/home/user/contiki/cpu/cc2530edm_aman/usb/usb-arch.c:486: buffer = buffer->next;
      000705 8D 82            [24] 2555 	mov	dpl,r5
      000707 8E 83            [24] 2556 	mov	dph,r6
      000709 8F F0            [24] 2557 	mov	b,r7
      00070B E5 81            [12] 2558 	mov	a,sp
      00070D 24 F5            [12] 2559 	add	a,#0xf5
      00070F F8               [12] 2560 	mov	r0,a
      000710 12r00r00         [24] 2561 	lcall	__gptrget
      000713 F6               [12] 2562 	mov	@r0,a
      000714 A3               [24] 2563 	inc	dptr
      000715 12r00r00         [24] 2564 	lcall	__gptrget
      000718 08               [12] 2565 	inc	r0
      000719 F6               [12] 2566 	mov	@r0,a
      00071A A3               [24] 2567 	inc	dptr
      00071B 12r00r00         [24] 2568 	lcall	__gptrget
      00071E 08               [12] 2569 	inc	r0
      00071F F6               [12] 2570 	mov	@r0,a
      000720 80 8D            [24] 2571 	sjmp	00117$
      000722                       2572 00119$:
                                   2573 ;	/home/user/contiki/cpu/cc2530edm_aman/usb/usb-arch.c:489: USBINDEX = EP_HW_NUM(ep->addr);
      000722 A8 81            [24] 2574 	mov	r0,sp
      000724 18               [12] 2575 	dec	r0
      000725 18               [12] 2576 	dec	r0
      000726 74 01            [12] 2577 	mov	a,#0x01
      000728 26               [12] 2578 	add	a,@r0
      000729 FD               [12] 2579 	mov	r5,a
      00072A E4               [12] 2580 	clr	a
      00072B 08               [12] 2581 	inc	r0
      00072C 36               [12] 2582 	addc	a,@r0
      00072D FE               [12] 2583 	mov	r6,a
      00072E 08               [12] 2584 	inc	r0
      00072F 86 07            [24] 2585 	mov	ar7,@r0
      000731 8D 82            [24] 2586 	mov	dpl,r5
      000733 8E 83            [24] 2587 	mov	dph,r6
      000735 8F F0            [24] 2588 	mov	b,r7
      000737 12r00r00         [24] 2589 	lcall	__gptrget
      00073A FC               [12] 2590 	mov	r4,a
      00073B 90 62 0E         [24] 2591 	mov	dptr,#_USBINDEX
      00073E 74 7F            [12] 2592 	mov	a,#0x7F
      000740 5C               [12] 2593 	anl	a,r4
      000741 F0               [24] 2594 	movx	@dptr,a
                                   2595 ;	/home/user/contiki/cpu/cc2530edm_aman/usb/usb-arch.c:490: if(EP_HW_NUM(ep->addr)) {
      000742 8D 82            [24] 2596 	mov	dpl,r5
      000744 8E 83            [24] 2597 	mov	dph,r6
      000746 8F F0            [24] 2598 	mov	b,r7
      000748 12r00r00         [24] 2599 	lcall	__gptrget
      00074B FF               [12] 2600 	mov	r7,a
      00074C 54 7F            [12] 2601 	anl	a,#0x7F
      00074E 60 0C            [24] 2602 	jz	00121$
                                   2603 ;	/home/user/contiki/cpu/cc2530edm_aman/usb/usb-arch.c:491: res = ep_tx(EP_HW_NUM(ep->addr));
      000750 53 07 7F         [24] 2604 	anl	ar7,#0x7F
      000753 8F 82            [24] 2605 	mov	dpl,r7
      000755 12r1Ar7B         [24] 2606 	lcall	_ep_tx
      000758 AF 82            [24] 2607 	mov	r7,dpl
      00075A 80 07            [24] 2608 	sjmp	00123$
      00075C                       2609 00121$:
                                   2610 ;	/home/user/contiki/cpu/cc2530edm_aman/usb/usb-arch.c:493: res = ep0_tx();
      00075C 12r17r30         [24] 2611 	lcall	_ep0_tx
      00075F AE 82            [24] 2612 	mov	r6,dpl
      000761 8E 07            [24] 2613 	mov	ar7,r6
                                   2614 ;	/home/user/contiki/cpu/cc2530edm_aman/usb/usb-arch.c:496: usb_irq_enable(flag);
      000763                       2615 00123$:
      000763 E5 81            [12] 2616 	mov	a,sp
      000765 24 FD            [12] 2617 	add	a,#0xfd
      000767 F8               [12] 2618 	mov	r0,a
      000768 E6               [12] 2619 	mov	a,@r0
      000769 42 9A            [12] 2620 	orl	_IEN2,a
                                   2621 ;	/home/user/contiki/cpu/cc2530edm_aman/usb/usb-arch.c:498: if(res & USB_WRITE_NOTIFY) {
      00076B EF               [12] 2622 	mov	a,r7
      00076C 30 E1 1B         [24] 2623 	jnb	acc.1,00128$
                                   2624 ;	/home/user/contiki/cpu/cc2530edm_aman/usb/usb-arch.c:499: notify_ep_process(ep, USB_EP_EVENT_NOTIFICATION);
      00076F 74 01            [12] 2625 	mov	a,#0x01
      000771 C0 E0            [24] 2626 	push	acc
      000773 E4               [12] 2627 	clr	a
      000774 C0 E0            [24] 2628 	push	acc
      000776 E5 81            [12] 2629 	mov	a,sp
      000778 24 FC            [12] 2630 	add	a,#0xfc
      00077A F8               [12] 2631 	mov	r0,a
      00077B 86 82            [24] 2632 	mov	dpl,@r0
      00077D 08               [12] 2633 	inc	r0
      00077E 86 83            [24] 2634 	mov	dph,@r0
      000780 08               [12] 2635 	inc	r0
      000781 86 F0            [24] 2636 	mov	b,@r0
      000783 12r00r2F         [24] 2637 	lcall	_notify_ep_process
      000786 15 81            [12] 2638 	dec	sp
      000788 15 81            [12] 2639 	dec	sp
      00078A                       2640 00128$:
      00078A E5 81            [12] 2641 	mov	a,sp
      00078C 24 F9            [12] 2642 	add	a,#0xF9
      00078E F5 81            [12] 2643 	mov	sp,a
      000790 22               [24] 2644 	ret
                                   2645 ;------------------------------------------------------------
                                   2646 ;Allocation info for local variables in function 'usb_arch_setup_endpoint0'
                                   2647 ;------------------------------------------------------------
                                   2648 ;	/home/user/contiki/cpu/cc2530edm_aman/usb/usb-arch.c:506: usb_arch_setup_endpoint0(void)
                                   2649 ;	-----------------------------------------
                                   2650 ;	 function usb_arch_setup_endpoint0
                                   2651 ;	-----------------------------------------
      000791                       2652 _usb_arch_setup_endpoint0:
                                   2653 ;	/home/user/contiki/cpu/cc2530edm_aman/usb/usb-arch.c:508: USBIIE |= USBIIE_EP0IE;
      000791 90 62 07         [24] 2654 	mov	dptr,#_USBIIE
      000794 E0               [24] 2655 	movx	a,@dptr
      000795 44 01            [12] 2656 	orl	a,#0x01
      000797 F0               [24] 2657 	movx	@dptr,a
      000798 22               [24] 2658 	ret
                                   2659 ;------------------------------------------------------------
                                   2660 ;Allocation info for local variables in function 'usb_arch_setup_in_endpoint'
                                   2661 ;------------------------------------------------------------
                                   2662 ;addr                      Allocated to registers r7 
                                   2663 ;ei                        Allocated to registers r6 
                                   2664 ;ep                        Allocated to registers r5 r7 r4 
                                   2665 ;------------------------------------------------------------
                                   2666 ;	/home/user/contiki/cpu/cc2530edm_aman/usb/usb-arch.c:512: usb_arch_setup_in_endpoint(uint8_t addr)
                                   2667 ;	-----------------------------------------
                                   2668 ;	 function usb_arch_setup_in_endpoint
                                   2669 ;	-----------------------------------------
      000799                       2670 _usb_arch_setup_in_endpoint:
                                   2671 ;	/home/user/contiki/cpu/cc2530edm_aman/usb/usb-arch.c:514: uint8_t ei = EP_HW_NUM(addr);
                                   2672 ;	/home/user/contiki/cpu/cc2530edm_aman/usb/usb-arch.c:515: USBEndpoint *ep = EP_STRUCT(addr);
      000799 E5 82            [12] 2673 	mov	a,dpl
      00079B 54 7F            [12] 2674 	anl	a,#0x7F
      00079D FE               [12] 2675 	mov	r6,a
      00079E 75 F0 0D         [24] 2676 	mov	b,#0x0D
      0007A1 A4               [48] 2677 	mul	ab
      0007A2 24r01            [12] 2678 	add	a,#_usb_endpoints
      0007A4 FD               [12] 2679 	mov	r5,a
      0007A5 74s00            [12] 2680 	mov	a,#(_usb_endpoints >> 8)
      0007A7 35 F0            [12] 2681 	addc	a,b
      0007A9 FF               [12] 2682 	mov	r7,a
      0007AA 7C 00            [12] 2683 	mov	r4,#0x00
                                   2684 ;	/home/user/contiki/cpu/cc2530edm_aman/usb/usb-arch.c:518: USBIIE |= USBIIE_INEPxIE(ei);
      0007AC 8E F0            [24] 2685 	mov	b,r6
      0007AE 05 F0            [12] 2686 	inc	b
      0007B0 74 01            [12] 2687 	mov	a,#0x01
      0007B2 80 02            [24] 2688 	sjmp	00111$
      0007B4                       2689 00109$:
      0007B4 25 E0            [12] 2690 	add	a,acc
      0007B6                       2691 00111$:
      0007B6 D5 F0 FB         [24] 2692 	djnz	b,00109$
      0007B9 FE               [12] 2693 	mov	r6,a
      0007BA 90 62 07         [24] 2694 	mov	dptr,#_USBIIE
      0007BD E0               [24] 2695 	movx	a,@dptr
      0007BE 4E               [12] 2696 	orl	a,r6
      0007BF F0               [24] 2697 	movx	@dptr,a
                                   2698 ;	/home/user/contiki/cpu/cc2530edm_aman/usb/usb-arch.c:521: USBMAXI = ep->xfer_size / 8;
      0007C0 74 0B            [12] 2699 	mov	a,#0x0B
      0007C2 2D               [12] 2700 	add	a,r5
      0007C3 FA               [12] 2701 	mov	r2,a
      0007C4 E4               [12] 2702 	clr	a
      0007C5 3F               [12] 2703 	addc	a,r7
      0007C6 FB               [12] 2704 	mov	r3,a
      0007C7 8C 06            [24] 2705 	mov	ar6,r4
      0007C9 8A 82            [24] 2706 	mov	dpl,r2
      0007CB 8B 83            [24] 2707 	mov	dph,r3
      0007CD 8E F0            [24] 2708 	mov	b,r6
      0007CF 12r00r00         [24] 2709 	lcall	__gptrget
      0007D2 FA               [12] 2710 	mov	r2,a
      0007D3 A3               [24] 2711 	inc	dptr
      0007D4 12r00r00         [24] 2712 	lcall	__gptrget
      0007D7 C4               [12] 2713 	swap	a
      0007D8 23               [12] 2714 	rl	a
      0007D9 CA               [12] 2715 	xch	a,r2
      0007DA C4               [12] 2716 	swap	a
      0007DB 23               [12] 2717 	rl	a
      0007DC 54 1F            [12] 2718 	anl	a,#0x1F
      0007DE 6A               [12] 2719 	xrl	a,r2
      0007DF CA               [12] 2720 	xch	a,r2
      0007E0 54 1F            [12] 2721 	anl	a,#0x1F
      0007E2 CA               [12] 2722 	xch	a,r2
      0007E3 6A               [12] 2723 	xrl	a,r2
      0007E4 CA               [12] 2724 	xch	a,r2
      0007E5 FB               [12] 2725 	mov	r3,a
      0007E6 90 62 10         [24] 2726 	mov	dptr,#_USBMAXI
      0007E9 EA               [12] 2727 	mov	a,r2
      0007EA F0               [24] 2728 	movx	@dptr,a
                                   2729 ;	/home/user/contiki/cpu/cc2530edm_aman/usb/usb-arch.c:523: if(IS_ISO_EP(ep)) {
      0007EB 74 02            [12] 2730 	mov	a,#0x02
      0007ED 2D               [12] 2731 	add	a,r5
      0007EE FD               [12] 2732 	mov	r5,a
      0007EF E4               [12] 2733 	clr	a
      0007F0 3F               [12] 2734 	addc	a,r7
      0007F1 FF               [12] 2735 	mov	r7,a
      0007F2 8D 82            [24] 2736 	mov	dpl,r5
      0007F4 8F 83            [24] 2737 	mov	dph,r7
      0007F6 8C F0            [24] 2738 	mov	b,r4
      0007F8 12r00r00         [24] 2739 	lcall	__gptrget
      0007FB FD               [12] 2740 	mov	r5,a
      0007FC 53 05 03         [24] 2741 	anl	ar5,#0x03
      0007FF BD 02 08         [24] 2742 	cjne	r5,#0x02,00102$
                                   2743 ;	/home/user/contiki/cpu/cc2530edm_aman/usb/usb-arch.c:524: USBCSIH |= USBCSxH_ISO;
      000802 90 62 12         [24] 2744 	mov	dptr,#_USBCSIH
      000805 E0               [24] 2745 	movx	a,@dptr
      000806 44 40            [12] 2746 	orl	a,#0x40
      000808 F0               [24] 2747 	movx	@dptr,a
      000809 22               [24] 2748 	ret
      00080A                       2749 00102$:
                                   2750 ;	/home/user/contiki/cpu/cc2530edm_aman/usb/usb-arch.c:526: USBCSIH &= ~USBCSxH_ISO;
      00080A 90 62 12         [24] 2751 	mov	dptr,#_USBCSIH
      00080D E0               [24] 2752 	movx	a,@dptr
      00080E 54 BF            [12] 2753 	anl	a,#0xBF
      000810 F0               [24] 2754 	movx	@dptr,a
      000811 22               [24] 2755 	ret
                                   2756 ;------------------------------------------------------------
                                   2757 ;Allocation info for local variables in function 'usb_arch_setup_out_endpoint'
                                   2758 ;------------------------------------------------------------
                                   2759 ;addr                      Allocated to registers r7 
                                   2760 ;ei                        Allocated to registers r6 
                                   2761 ;ep                        Allocated to registers r5 r7 r4 
                                   2762 ;------------------------------------------------------------
                                   2763 ;	/home/user/contiki/cpu/cc2530edm_aman/usb/usb-arch.c:531: usb_arch_setup_out_endpoint(uint8_t addr)
                                   2764 ;	-----------------------------------------
                                   2765 ;	 function usb_arch_setup_out_endpoint
                                   2766 ;	-----------------------------------------
      000812                       2767 _usb_arch_setup_out_endpoint:
                                   2768 ;	/home/user/contiki/cpu/cc2530edm_aman/usb/usb-arch.c:533: uint8_t ei = EP_HW_NUM(addr);
                                   2769 ;	/home/user/contiki/cpu/cc2530edm_aman/usb/usb-arch.c:534: USBEndpoint *ep = EP_STRUCT(addr);
      000812 E5 82            [12] 2770 	mov	a,dpl
      000814 54 7F            [12] 2771 	anl	a,#0x7F
      000816 FE               [12] 2772 	mov	r6,a
      000817 75 F0 0D         [24] 2773 	mov	b,#0x0D
      00081A A4               [48] 2774 	mul	ab
      00081B 24r01            [12] 2775 	add	a,#_usb_endpoints
      00081D FD               [12] 2776 	mov	r5,a
      00081E 74s00            [12] 2777 	mov	a,#(_usb_endpoints >> 8)
      000820 35 F0            [12] 2778 	addc	a,b
      000822 FF               [12] 2779 	mov	r7,a
      000823 7C 00            [12] 2780 	mov	r4,#0x00
                                   2781 ;	/home/user/contiki/cpu/cc2530edm_aman/usb/usb-arch.c:537: USBOIE |= USBOIE_OUEPxIE(ei);
      000825 8E F0            [24] 2782 	mov	b,r6
      000827 05 F0            [12] 2783 	inc	b
      000829 74 01            [12] 2784 	mov	a,#0x01
      00082B 80 02            [24] 2785 	sjmp	00111$
      00082D                       2786 00109$:
      00082D 25 E0            [12] 2787 	add	a,acc
      00082F                       2788 00111$:
      00082F D5 F0 FB         [24] 2789 	djnz	b,00109$
      000832 FE               [12] 2790 	mov	r6,a
      000833 90 62 09         [24] 2791 	mov	dptr,#_USBOIE
      000836 E0               [24] 2792 	movx	a,@dptr
      000837 4E               [12] 2793 	orl	a,r6
      000838 F0               [24] 2794 	movx	@dptr,a
                                   2795 ;	/home/user/contiki/cpu/cc2530edm_aman/usb/usb-arch.c:540: USBMAXO = ep->xfer_size / 8;
      000839 74 0B            [12] 2796 	mov	a,#0x0B
      00083B 2D               [12] 2797 	add	a,r5
      00083C FA               [12] 2798 	mov	r2,a
      00083D E4               [12] 2799 	clr	a
      00083E 3F               [12] 2800 	addc	a,r7
      00083F FB               [12] 2801 	mov	r3,a
      000840 8C 06            [24] 2802 	mov	ar6,r4
      000842 8A 82            [24] 2803 	mov	dpl,r2
      000844 8B 83            [24] 2804 	mov	dph,r3
      000846 8E F0            [24] 2805 	mov	b,r6
      000848 12r00r00         [24] 2806 	lcall	__gptrget
      00084B FA               [12] 2807 	mov	r2,a
      00084C A3               [24] 2808 	inc	dptr
      00084D 12r00r00         [24] 2809 	lcall	__gptrget
      000850 C4               [12] 2810 	swap	a
      000851 23               [12] 2811 	rl	a
      000852 CA               [12] 2812 	xch	a,r2
      000853 C4               [12] 2813 	swap	a
      000854 23               [12] 2814 	rl	a
      000855 54 1F            [12] 2815 	anl	a,#0x1F
      000857 6A               [12] 2816 	xrl	a,r2
      000858 CA               [12] 2817 	xch	a,r2
      000859 54 1F            [12] 2818 	anl	a,#0x1F
      00085B CA               [12] 2819 	xch	a,r2
      00085C 6A               [12] 2820 	xrl	a,r2
      00085D CA               [12] 2821 	xch	a,r2
      00085E FB               [12] 2822 	mov	r3,a
      00085F 90 62 13         [24] 2823 	mov	dptr,#_USBMAXO
      000862 EA               [12] 2824 	mov	a,r2
      000863 F0               [24] 2825 	movx	@dptr,a
                                   2826 ;	/home/user/contiki/cpu/cc2530edm_aman/usb/usb-arch.c:542: if(IS_ISO_EP(ep)) {
      000864 74 02            [12] 2827 	mov	a,#0x02
      000866 2D               [12] 2828 	add	a,r5
      000867 FD               [12] 2829 	mov	r5,a
      000868 E4               [12] 2830 	clr	a
      000869 3F               [12] 2831 	addc	a,r7
      00086A FF               [12] 2832 	mov	r7,a
      00086B 8D 82            [24] 2833 	mov	dpl,r5
      00086D 8F 83            [24] 2834 	mov	dph,r7
      00086F 8C F0            [24] 2835 	mov	b,r4
      000871 12r00r00         [24] 2836 	lcall	__gptrget
      000874 FD               [12] 2837 	mov	r5,a
      000875 53 05 03         [24] 2838 	anl	ar5,#0x03
      000878 BD 02 08         [24] 2839 	cjne	r5,#0x02,00102$
                                   2840 ;	/home/user/contiki/cpu/cc2530edm_aman/usb/usb-arch.c:543: USBCSOH |= USBCSxH_ISO;
      00087B 90 62 15         [24] 2841 	mov	dptr,#_USBCSOH
      00087E E0               [24] 2842 	movx	a,@dptr
      00087F 44 40            [12] 2843 	orl	a,#0x40
      000881 F0               [24] 2844 	movx	@dptr,a
      000882 22               [24] 2845 	ret
      000883                       2846 00102$:
                                   2847 ;	/home/user/contiki/cpu/cc2530edm_aman/usb/usb-arch.c:545: USBCSOH &= ~USBCSxH_ISO;
      000883 90 62 15         [24] 2848 	mov	dptr,#_USBCSOH
      000886 E0               [24] 2849 	movx	a,@dptr
      000887 54 BF            [12] 2850 	anl	a,#0xBF
      000889 F0               [24] 2851 	movx	@dptr,a
      00088A 22               [24] 2852 	ret
                                   2853 ;------------------------------------------------------------
                                   2854 ;Allocation info for local variables in function 'usb_arch_setup_endpoint'
                                   2855 ;------------------------------------------------------------
                                   2856 ;addr                      Allocated to stack - sp -4
                                   2857 ;ei                        Allocated to stack - sp -3
                                   2858 ;flag                      Allocated to registers r7 
                                   2859 ;ep                        Allocated to stack - sp -2
                                   2860 ;------------------------------------------------------------
                                   2861 ;	/home/user/contiki/cpu/cc2530edm_aman/usb/usb-arch.c:550: usb_arch_setup_endpoint(uint8_t addr)
                                   2862 ;	-----------------------------------------
                                   2863 ;	 function usb_arch_setup_endpoint
                                   2864 ;	-----------------------------------------
      00088B                       2865 _usb_arch_setup_endpoint:
      00088B C0 82            [24] 2866 	push	dpl
      00088D E5 81            [12] 2867 	mov	a,sp
      00088F 24 04            [12] 2868 	add	a,#0x04
                                   2869 ;	/home/user/contiki/cpu/cc2530edm_aman/usb/usb-arch.c:552: uint8_t ei = EP_HW_NUM(addr);
      000891 F5 81            [12] 2870 	mov	sp,a
      000893 24 FC            [12] 2871 	add	a,#0xfc
      000895 F8               [12] 2872 	mov	r0,a
      000896 74 7F            [12] 2873 	mov	a,#0x7F
      000898 56               [12] 2874 	anl	a,@r0
      000899 FE               [12] 2875 	mov	r6,a
      00089A E5 81            [12] 2876 	mov	a,sp
      00089C 24 FD            [12] 2877 	add	a,#0xfd
      00089E F8               [12] 2878 	mov	r0,a
      00089F A6 06            [24] 2879 	mov	@r0,ar6
                                   2880 ;	/home/user/contiki/cpu/cc2530edm_aman/usb/usb-arch.c:554: USBEndpoint *ep = EP_STRUCT(addr);
      0008A1 EE               [12] 2881 	mov	a,r6
      0008A2 75 F0 0D         [24] 2882 	mov	b,#0x0D
      0008A5 A4               [48] 2883 	mul	ab
      0008A6 24r01            [12] 2884 	add	a,#_usb_endpoints
      0008A8 FC               [12] 2885 	mov	r4,a
      0008A9 74s00            [12] 2886 	mov	a,#(_usb_endpoints >> 8)
      0008AB 35 F0            [12] 2887 	addc	a,b
      0008AD FE               [12] 2888 	mov	r6,a
      0008AE A8 81            [24] 2889 	mov	r0,sp
      0008B0 18               [12] 2890 	dec	r0
      0008B1 18               [12] 2891 	dec	r0
      0008B2 A6 04            [24] 2892 	mov	@r0,ar4
      0008B4 08               [12] 2893 	inc	r0
      0008B5 A6 06            [24] 2894 	mov	@r0,ar6
      0008B7 08               [12] 2895 	inc	r0
      0008B8 76 00            [12] 2896 	mov	@r0,#0x00
                                   2897 ;	/home/user/contiki/cpu/cc2530edm_aman/usb/usb-arch.c:556: ep->halted = 0;
      0008BA A8 81            [24] 2898 	mov	r0,sp
      0008BC 18               [12] 2899 	dec	r0
      0008BD 18               [12] 2900 	dec	r0
      0008BE 86 82            [24] 2901 	mov	dpl,@r0
      0008C0 08               [12] 2902 	inc	r0
      0008C1 86 83            [24] 2903 	mov	dph,@r0
      0008C3 08               [12] 2904 	inc	r0
      0008C4 86 F0            [24] 2905 	mov	b,@r0
      0008C6 E4               [12] 2906 	clr	a
      0008C7 12r00r00         [24] 2907 	lcall	__gptrput
                                   2908 ;	/home/user/contiki/cpu/cc2530edm_aman/usb/usb-arch.c:557: ep->flags |= USB_EP_FLAGS_ENABLED;
      0008CA A8 81            [24] 2909 	mov	r0,sp
      0008CC 18               [12] 2910 	dec	r0
      0008CD 18               [12] 2911 	dec	r0
      0008CE 74 02            [12] 2912 	mov	a,#0x02
      0008D0 26               [12] 2913 	add	a,@r0
      0008D1 FA               [12] 2914 	mov	r2,a
      0008D2 E4               [12] 2915 	clr	a
      0008D3 08               [12] 2916 	inc	r0
      0008D4 36               [12] 2917 	addc	a,@r0
      0008D5 FD               [12] 2918 	mov	r5,a
      0008D6 08               [12] 2919 	inc	r0
      0008D7 86 07            [24] 2920 	mov	ar7,@r0
      0008D9 8A 82            [24] 2921 	mov	dpl,r2
      0008DB 8D 83            [24] 2922 	mov	dph,r5
      0008DD 8F F0            [24] 2923 	mov	b,r7
      0008DF 12r00r00         [24] 2924 	lcall	__gptrget
      0008E2 FE               [12] 2925 	mov	r6,a
      0008E3 43 06 04         [24] 2926 	orl	ar6,#0x04
      0008E6 8A 82            [24] 2927 	mov	dpl,r2
      0008E8 8D 83            [24] 2928 	mov	dph,r5
      0008EA 8F F0            [24] 2929 	mov	b,r7
      0008EC EE               [12] 2930 	mov	a,r6
      0008ED 12r00r00         [24] 2931 	lcall	__gptrput
                                   2932 ;	/home/user/contiki/cpu/cc2530edm_aman/usb/usb-arch.c:558: ep->buffer = 0;
      0008F0 A8 81            [24] 2933 	mov	r0,sp
      0008F2 18               [12] 2934 	dec	r0
      0008F3 18               [12] 2935 	dec	r0
      0008F4 74 03            [12] 2936 	mov	a,#0x03
      0008F6 26               [12] 2937 	add	a,@r0
      0008F7 FD               [12] 2938 	mov	r5,a
      0008F8 E4               [12] 2939 	clr	a
      0008F9 08               [12] 2940 	inc	r0
      0008FA 36               [12] 2941 	addc	a,@r0
      0008FB FE               [12] 2942 	mov	r6,a
      0008FC 08               [12] 2943 	inc	r0
      0008FD 86 07            [24] 2944 	mov	ar7,@r0
      0008FF 8D 82            [24] 2945 	mov	dpl,r5
      000901 8E 83            [24] 2946 	mov	dph,r6
      000903 8F F0            [24] 2947 	mov	b,r7
      000905 E4               [12] 2948 	clr	a
      000906 12r00r00         [24] 2949 	lcall	__gptrput
      000909 A3               [24] 2950 	inc	dptr
      00090A E4               [12] 2951 	clr	a
      00090B 12r00r00         [24] 2952 	lcall	__gptrput
      00090E A3               [24] 2953 	inc	dptr
      00090F E4               [12] 2954 	clr	a
      000910 12r00r00         [24] 2955 	lcall	__gptrput
                                   2956 ;	/home/user/contiki/cpu/cc2530edm_aman/usb/usb-arch.c:559: ep->addr = addr;
      000913 A8 81            [24] 2957 	mov	r0,sp
      000915 18               [12] 2958 	dec	r0
      000916 18               [12] 2959 	dec	r0
      000917 74 01            [12] 2960 	mov	a,#0x01
      000919 26               [12] 2961 	add	a,@r0
      00091A FD               [12] 2962 	mov	r5,a
      00091B E4               [12] 2963 	clr	a
      00091C 08               [12] 2964 	inc	r0
      00091D 36               [12] 2965 	addc	a,@r0
      00091E FE               [12] 2966 	mov	r6,a
      00091F 08               [12] 2967 	inc	r0
      000920 86 07            [24] 2968 	mov	ar7,@r0
      000922 8D 82            [24] 2969 	mov	dpl,r5
      000924 8E 83            [24] 2970 	mov	dph,r6
      000926 8F F0            [24] 2971 	mov	b,r7
      000928 E5 81            [12] 2972 	mov	a,sp
      00092A 24 FC            [12] 2973 	add	a,#0xfc
      00092C F8               [12] 2974 	mov	r0,a
      00092D E6               [12] 2975 	mov	a,@r0
      00092E 12r00r00         [24] 2976 	lcall	__gptrput
                                   2977 ;	/home/user/contiki/cpu/cc2530edm_aman/usb/usb-arch.c:560: ep->events = 0;
      000931 A8 81            [24] 2978 	mov	r0,sp
      000933 18               [12] 2979 	dec	r0
      000934 18               [12] 2980 	dec	r0
      000935 74 09            [12] 2981 	mov	a,#0x09
      000937 26               [12] 2982 	add	a,@r0
      000938 FD               [12] 2983 	mov	r5,a
      000939 E4               [12] 2984 	clr	a
      00093A 08               [12] 2985 	inc	r0
      00093B 36               [12] 2986 	addc	a,@r0
      00093C FE               [12] 2987 	mov	r6,a
      00093D 08               [12] 2988 	inc	r0
      00093E 86 07            [24] 2989 	mov	ar7,@r0
      000940 8D 82            [24] 2990 	mov	dpl,r5
      000942 8E 83            [24] 2991 	mov	dph,r6
      000944 8F F0            [24] 2992 	mov	b,r7
      000946 E4               [12] 2993 	clr	a
      000947 12r00r00         [24] 2994 	lcall	__gptrput
      00094A A3               [24] 2995 	inc	dptr
      00094B E4               [12] 2996 	clr	a
      00094C 12r00r00         [24] 2997 	lcall	__gptrput
                                   2998 ;	/home/user/contiki/cpu/cc2530edm_aman/usb/usb-arch.c:561: ep->xfer_size = ep_xfer_size[ei];
      00094F A8 81            [24] 2999 	mov	r0,sp
      000951 18               [12] 3000 	dec	r0
      000952 18               [12] 3001 	dec	r0
      000953 74 0B            [12] 3002 	mov	a,#0x0B
      000955 26               [12] 3003 	add	a,@r0
      000956 FD               [12] 3004 	mov	r5,a
      000957 E4               [12] 3005 	clr	a
      000958 08               [12] 3006 	inc	r0
      000959 36               [12] 3007 	addc	a,@r0
      00095A FE               [12] 3008 	mov	r6,a
      00095B 08               [12] 3009 	inc	r0
      00095C 86 07            [24] 3010 	mov	ar7,@r0
      00095E E5 81            [12] 3011 	mov	a,sp
      000960 24 FD            [12] 3012 	add	a,#0xfd
      000962 F8               [12] 3013 	mov	r0,a
      000963 E6               [12] 3014 	mov	a,@r0
      000964 75 F0 02         [24] 3015 	mov	b,#0x02
      000967 A4               [48] 3016 	mul	ab
      000968 24r00            [12] 3017 	add	a,#_ep_xfer_size
      00096A F5 82            [12] 3018 	mov	dpl,a
      00096C 74s00            [12] 3019 	mov	a,#(_ep_xfer_size >> 8)
      00096E 35 F0            [12] 3020 	addc	a,b
      000970 F5 83            [12] 3021 	mov	dph,a
      000972 E4               [12] 3022 	clr	a
      000973 93               [24] 3023 	movc	a,@a+dptr
      000974 FB               [12] 3024 	mov	r3,a
      000975 A3               [24] 3025 	inc	dptr
      000976 E4               [12] 3026 	clr	a
      000977 93               [24] 3027 	movc	a,@a+dptr
      000978 FC               [12] 3028 	mov	r4,a
      000979 8D 82            [24] 3029 	mov	dpl,r5
      00097B 8E 83            [24] 3030 	mov	dph,r6
      00097D 8F F0            [24] 3031 	mov	b,r7
      00097F EB               [12] 3032 	mov	a,r3
      000980 12r00r00         [24] 3033 	lcall	__gptrput
      000983 A3               [24] 3034 	inc	dptr
      000984 EC               [12] 3035 	mov	a,r4
      000985 12r00r00         [24] 3036 	lcall	__gptrput
                                   3037 ;	/home/user/contiki/cpu/cc2530edm_aman/usb/usb-arch.c:563: usb_irq_disable(flag);
      000988 74 02            [12] 3038 	mov	a,#0x02
      00098A 55 9A            [12] 3039 	anl	a,_IEN2
      00098C FF               [12] 3040 	mov	r7,a
      00098D AE 9A            [24] 3041 	mov	r6,_IEN2
      00098F 74 FD            [12] 3042 	mov	a,#0xFD
      000991 5E               [12] 3043 	anl	a,r6
      000992 F5 9A            [12] 3044 	mov	_IEN2,a
                                   3045 ;	/home/user/contiki/cpu/cc2530edm_aman/usb/usb-arch.c:565: USBINDEX = ei;
      000994 E5 81            [12] 3046 	mov	a,sp
      000996 24 FD            [12] 3047 	add	a,#0xfd
      000998 F8               [12] 3048 	mov	r0,a
      000999 90 62 0E         [24] 3049 	mov	dptr,#_USBINDEX
      00099C E6               [12] 3050 	mov	a,@r0
      00099D F0               [24] 3051 	movx	@dptr,a
                                   3052 ;	/home/user/contiki/cpu/cc2530edm_aman/usb/usb-arch.c:568: if(ei == 0) {
      00099E E5 81            [12] 3053 	mov	a,sp
      0009A0 24 FD            [12] 3054 	add	a,#0xfd
      0009A2 F8               [12] 3055 	mov	r0,a
      0009A3 E6               [12] 3056 	mov	a,@r0
      0009A4 70 09            [24] 3057 	jnz	00108$
                                   3058 ;	/home/user/contiki/cpu/cc2530edm_aman/usb/usb-arch.c:569: usb_arch_setup_endpoint0();
      0009A6 C0 07            [24] 3059 	push	ar7
      0009A8 12r07r91         [24] 3060 	lcall	_usb_arch_setup_endpoint0
      0009AB D0 07            [24] 3061 	pop	ar7
      0009AD 80 27            [24] 3062 	sjmp	00110$
      0009AF                       3063 00108$:
                                   3064 ;	/home/user/contiki/cpu/cc2530edm_aman/usb/usb-arch.c:571: if(addr & 0x80) {
      0009AF E5 81            [12] 3065 	mov	a,sp
      0009B1 24 FC            [12] 3066 	add	a,#0xfc
      0009B3 F8               [12] 3067 	mov	r0,a
      0009B4 E6               [12] 3068 	mov	a,@r0
      0009B5 30 E7 10         [24] 3069 	jnb	acc.7,00105$
                                   3070 ;	/home/user/contiki/cpu/cc2530edm_aman/usb/usb-arch.c:572: usb_arch_setup_in_endpoint(addr);
      0009B8 E5 81            [12] 3071 	mov	a,sp
      0009BA 24 FC            [12] 3072 	add	a,#0xfc
      0009BC F8               [12] 3073 	mov	r0,a
      0009BD 86 82            [24] 3074 	mov	dpl,@r0
      0009BF C0 07            [24] 3075 	push	ar7
      0009C1 12r07r99         [24] 3076 	lcall	_usb_arch_setup_in_endpoint
      0009C4 D0 07            [24] 3077 	pop	ar7
      0009C6 80 0E            [24] 3078 	sjmp	00110$
      0009C8                       3079 00105$:
                                   3080 ;	/home/user/contiki/cpu/cc2530edm_aman/usb/usb-arch.c:574: usb_arch_setup_out_endpoint(addr);
      0009C8 E5 81            [12] 3081 	mov	a,sp
      0009CA 24 FC            [12] 3082 	add	a,#0xfc
      0009CC F8               [12] 3083 	mov	r0,a
      0009CD 86 82            [24] 3084 	mov	dpl,@r0
      0009CF C0 07            [24] 3085 	push	ar7
      0009D1 12r08r12         [24] 3086 	lcall	_usb_arch_setup_out_endpoint
      0009D4 D0 07            [24] 3087 	pop	ar7
                                   3088 ;	/home/user/contiki/cpu/cc2530edm_aman/usb/usb-arch.c:577: usb_irq_enable(flag);
      0009D6                       3089 00110$:
      0009D6 EF               [12] 3090 	mov	a,r7
      0009D7 42 9A            [12] 3091 	orl	_IEN2,a
      0009D9 E5 81            [12] 3092 	mov	a,sp
      0009DB 24 FB            [12] 3093 	add	a,#0xFB
      0009DD F5 81            [12] 3094 	mov	sp,a
      0009DF 22               [24] 3095 	ret
                                   3096 ;------------------------------------------------------------
                                   3097 ;Allocation info for local variables in function 'usb_arch_setup_iso_endpoint'
                                   3098 ;------------------------------------------------------------
                                   3099 ;addr                      Allocated to registers r7 
                                   3100 ;ep                        Allocated to registers r5 r6 r4 
                                   3101 ;------------------------------------------------------------
                                   3102 ;	/home/user/contiki/cpu/cc2530edm_aman/usb/usb-arch.c:581: usb_arch_setup_iso_endpoint(uint8_t addr)
                                   3103 ;	-----------------------------------------
                                   3104 ;	 function usb_arch_setup_iso_endpoint
                                   3105 ;	-----------------------------------------
      0009E0                       3106 _usb_arch_setup_iso_endpoint:
      0009E0 AF 82            [24] 3107 	mov	r7,dpl
                                   3108 ;	/home/user/contiki/cpu/cc2530edm_aman/usb/usb-arch.c:583: USBEndpoint *ep = EP_STRUCT(addr);
      0009E2 74 7F            [12] 3109 	mov	a,#0x7F
      0009E4 5F               [12] 3110 	anl	a,r7
      0009E5 75 F0 0D         [24] 3111 	mov	b,#0x0D
      0009E8 A4               [48] 3112 	mul	ab
      0009E9 24r01            [12] 3113 	add	a,#_usb_endpoints
      0009EB FD               [12] 3114 	mov	r5,a
      0009EC 74s00            [12] 3115 	mov	a,#(_usb_endpoints >> 8)
      0009EE 35 F0            [12] 3116 	addc	a,b
      0009F0 FE               [12] 3117 	mov	r6,a
      0009F1 7C 00            [12] 3118 	mov	r4,#0x00
                                   3119 ;	/home/user/contiki/cpu/cc2530edm_aman/usb/usb-arch.c:585: ep->flags = USB_EP_FLAGS_TYPE_ISO;
      0009F3 74 02            [12] 3120 	mov	a,#0x02
      0009F5 2D               [12] 3121 	add	a,r5
      0009F6 FD               [12] 3122 	mov	r5,a
      0009F7 E4               [12] 3123 	clr	a
      0009F8 3E               [12] 3124 	addc	a,r6
      0009F9 FE               [12] 3125 	mov	r6,a
      0009FA 8D 82            [24] 3126 	mov	dpl,r5
      0009FC 8E 83            [24] 3127 	mov	dph,r6
      0009FE 8C F0            [24] 3128 	mov	b,r4
      000A00 74 02            [12] 3129 	mov	a,#0x02
      000A02 12r00r00         [24] 3130 	lcall	__gptrput
                                   3131 ;	/home/user/contiki/cpu/cc2530edm_aman/usb/usb-arch.c:587: usb_arch_setup_endpoint(addr);
      000A05 8F 82            [24] 3132 	mov	dpl,r7
      000A07 02r08r8B         [24] 3133 	ljmp	_usb_arch_setup_endpoint
                                   3134 ;------------------------------------------------------------
                                   3135 ;Allocation info for local variables in function 'usb_arch_setup_control_endpoint'
                                   3136 ;------------------------------------------------------------
                                   3137 ;addr                      Allocated to registers r7 
                                   3138 ;ep                        Allocated to registers r5 r6 r4 
                                   3139 ;------------------------------------------------------------
                                   3140 ;	/home/user/contiki/cpu/cc2530edm_aman/usb/usb-arch.c:591: usb_arch_setup_control_endpoint(uint8_t addr)
                                   3141 ;	-----------------------------------------
                                   3142 ;	 function usb_arch_setup_control_endpoint
                                   3143 ;	-----------------------------------------
      000A0A                       3144 _usb_arch_setup_control_endpoint:
      000A0A AF 82            [24] 3145 	mov	r7,dpl
                                   3146 ;	/home/user/contiki/cpu/cc2530edm_aman/usb/usb-arch.c:593: USBEndpoint *ep = EP_STRUCT(addr);
      000A0C 74 7F            [12] 3147 	mov	a,#0x7F
      000A0E 5F               [12] 3148 	anl	a,r7
      000A0F 75 F0 0D         [24] 3149 	mov	b,#0x0D
      000A12 A4               [48] 3150 	mul	ab
      000A13 24r01            [12] 3151 	add	a,#_usb_endpoints
      000A15 FD               [12] 3152 	mov	r5,a
      000A16 74s00            [12] 3153 	mov	a,#(_usb_endpoints >> 8)
      000A18 35 F0            [12] 3154 	addc	a,b
      000A1A FE               [12] 3155 	mov	r6,a
      000A1B 7C 00            [12] 3156 	mov	r4,#0x00
                                   3157 ;	/home/user/contiki/cpu/cc2530edm_aman/usb/usb-arch.c:595: ep->flags = USB_EP_FLAGS_TYPE_CONTROL;
      000A1D 74 02            [12] 3158 	mov	a,#0x02
      000A1F 2D               [12] 3159 	add	a,r5
      000A20 FD               [12] 3160 	mov	r5,a
      000A21 E4               [12] 3161 	clr	a
      000A22 3E               [12] 3162 	addc	a,r6
      000A23 FE               [12] 3163 	mov	r6,a
      000A24 8D 82            [24] 3164 	mov	dpl,r5
      000A26 8E 83            [24] 3165 	mov	dph,r6
      000A28 8C F0            [24] 3166 	mov	b,r4
      000A2A 74 01            [12] 3167 	mov	a,#0x01
      000A2C 12r00r00         [24] 3168 	lcall	__gptrput
                                   3169 ;	/home/user/contiki/cpu/cc2530edm_aman/usb/usb-arch.c:597: usb_arch_setup_endpoint(addr);
      000A2F 8F 82            [24] 3170 	mov	dpl,r7
      000A31 02r08r8B         [24] 3171 	ljmp	_usb_arch_setup_endpoint
                                   3172 ;------------------------------------------------------------
                                   3173 ;Allocation info for local variables in function 'usb_arch_setup_bulk_endpoint'
                                   3174 ;------------------------------------------------------------
                                   3175 ;addr                      Allocated to registers r7 
                                   3176 ;ep                        Allocated to registers r5 r6 r4 
                                   3177 ;------------------------------------------------------------
                                   3178 ;	/home/user/contiki/cpu/cc2530edm_aman/usb/usb-arch.c:601: usb_arch_setup_bulk_endpoint(uint8_t addr)
                                   3179 ;	-----------------------------------------
                                   3180 ;	 function usb_arch_setup_bulk_endpoint
                                   3181 ;	-----------------------------------------
      000A34                       3182 _usb_arch_setup_bulk_endpoint:
      000A34 AF 82            [24] 3183 	mov	r7,dpl
                                   3184 ;	/home/user/contiki/cpu/cc2530edm_aman/usb/usb-arch.c:603: USBEndpoint *ep = EP_STRUCT(addr);
      000A36 74 7F            [12] 3185 	mov	a,#0x7F
      000A38 5F               [12] 3186 	anl	a,r7
      000A39 75 F0 0D         [24] 3187 	mov	b,#0x0D
      000A3C A4               [48] 3188 	mul	ab
      000A3D 24r01            [12] 3189 	add	a,#_usb_endpoints
      000A3F FD               [12] 3190 	mov	r5,a
      000A40 74s00            [12] 3191 	mov	a,#(_usb_endpoints >> 8)
      000A42 35 F0            [12] 3192 	addc	a,b
      000A44 FE               [12] 3193 	mov	r6,a
      000A45 7C 00            [12] 3194 	mov	r4,#0x00
                                   3195 ;	/home/user/contiki/cpu/cc2530edm_aman/usb/usb-arch.c:605: ep->flags = USB_EP_FLAGS_TYPE_BULK;
      000A47 74 02            [12] 3196 	mov	a,#0x02
      000A49 2D               [12] 3197 	add	a,r5
      000A4A FD               [12] 3198 	mov	r5,a
      000A4B E4               [12] 3199 	clr	a
      000A4C 3E               [12] 3200 	addc	a,r6
      000A4D FE               [12] 3201 	mov	r6,a
      000A4E 8D 82            [24] 3202 	mov	dpl,r5
      000A50 8E 83            [24] 3203 	mov	dph,r6
      000A52 8C F0            [24] 3204 	mov	b,r4
      000A54 E4               [12] 3205 	clr	a
      000A55 12r00r00         [24] 3206 	lcall	__gptrput
                                   3207 ;	/home/user/contiki/cpu/cc2530edm_aman/usb/usb-arch.c:607: usb_arch_setup_endpoint(addr);
      000A58 8F 82            [24] 3208 	mov	dpl,r7
      000A5A 02r08r8B         [24] 3209 	ljmp	_usb_arch_setup_endpoint
                                   3210 ;------------------------------------------------------------
                                   3211 ;Allocation info for local variables in function 'usb_arch_setup_interrupt_endpoint'
                                   3212 ;------------------------------------------------------------
                                   3213 ;addr                      Allocated to registers r7 
                                   3214 ;ep                        Allocated to registers r5 r6 r4 
                                   3215 ;------------------------------------------------------------
                                   3216 ;	/home/user/contiki/cpu/cc2530edm_aman/usb/usb-arch.c:611: usb_arch_setup_interrupt_endpoint(uint8_t addr)
                                   3217 ;	-----------------------------------------
                                   3218 ;	 function usb_arch_setup_interrupt_endpoint
                                   3219 ;	-----------------------------------------
      000A5D                       3220 _usb_arch_setup_interrupt_endpoint:
      000A5D AF 82            [24] 3221 	mov	r7,dpl
                                   3222 ;	/home/user/contiki/cpu/cc2530edm_aman/usb/usb-arch.c:613: USBEndpoint *ep = EP_STRUCT(addr);
      000A5F 74 7F            [12] 3223 	mov	a,#0x7F
      000A61 5F               [12] 3224 	anl	a,r7
      000A62 75 F0 0D         [24] 3225 	mov	b,#0x0D
      000A65 A4               [48] 3226 	mul	ab
      000A66 24r01            [12] 3227 	add	a,#_usb_endpoints
      000A68 FD               [12] 3228 	mov	r5,a
      000A69 74s00            [12] 3229 	mov	a,#(_usb_endpoints >> 8)
      000A6B 35 F0            [12] 3230 	addc	a,b
      000A6D FE               [12] 3231 	mov	r6,a
      000A6E 7C 00            [12] 3232 	mov	r4,#0x00
                                   3233 ;	/home/user/contiki/cpu/cc2530edm_aman/usb/usb-arch.c:615: ep->flags = USB_EP_FLAGS_TYPE_INTERRUPT;
      000A70 74 02            [12] 3234 	mov	a,#0x02
      000A72 2D               [12] 3235 	add	a,r5
      000A73 FD               [12] 3236 	mov	r5,a
      000A74 E4               [12] 3237 	clr	a
      000A75 3E               [12] 3238 	addc	a,r6
      000A76 FE               [12] 3239 	mov	r6,a
      000A77 8D 82            [24] 3240 	mov	dpl,r5
      000A79 8E 83            [24] 3241 	mov	dph,r6
      000A7B 8C F0            [24] 3242 	mov	b,r4
      000A7D 74 03            [12] 3243 	mov	a,#0x03
      000A7F 12r00r00         [24] 3244 	lcall	__gptrput
                                   3245 ;	/home/user/contiki/cpu/cc2530edm_aman/usb/usb-arch.c:617: usb_arch_setup_endpoint(addr);
      000A82 8F 82            [24] 3246 	mov	dpl,r7
      000A84 02r08r8B         [24] 3247 	ljmp	_usb_arch_setup_endpoint
                                   3248 ;------------------------------------------------------------
                                   3249 ;Allocation info for local variables in function 'usb_arch_disable_ep0'
                                   3250 ;------------------------------------------------------------
                                   3251 ;	/home/user/contiki/cpu/cc2530edm_aman/usb/usb-arch.c:621: usb_arch_disable_ep0(void)
                                   3252 ;	-----------------------------------------
                                   3253 ;	 function usb_arch_disable_ep0
                                   3254 ;	-----------------------------------------
      000A87                       3255 _usb_arch_disable_ep0:
                                   3256 ;	/home/user/contiki/cpu/cc2530edm_aman/usb/usb-arch.c:623: USBIIE &= ~USBIIE_EP0IE;
      000A87 90 62 07         [24] 3257 	mov	dptr,#_USBIIE
      000A8A E0               [24] 3258 	movx	a,@dptr
      000A8B 54 FE            [12] 3259 	anl	a,#0xFE
      000A8D F0               [24] 3260 	movx	@dptr,a
                                   3261 ;	/home/user/contiki/cpu/cc2530edm_aman/usb/usb-arch.c:624: USBCS0 = 0xC0;                // Clear any pending status flags
      000A8E 90 62 11         [24] 3262 	mov	dptr,#_USBCS0
      000A91 74 C0            [12] 3263 	mov	a,#0xC0
      000A93 F0               [24] 3264 	movx	@dptr,a
      000A94 22               [24] 3265 	ret
                                   3266 ;------------------------------------------------------------
                                   3267 ;Allocation info for local variables in function 'usb_arch_disable_in_endpoint'
                                   3268 ;------------------------------------------------------------
                                   3269 ;addr                      Allocated to registers r7 
                                   3270 ;------------------------------------------------------------
                                   3271 ;	/home/user/contiki/cpu/cc2530edm_aman/usb/usb-arch.c:628: usb_arch_disable_in_endpoint(uint8_t addr)
                                   3272 ;	-----------------------------------------
                                   3273 ;	 function usb_arch_disable_in_endpoint
                                   3274 ;	-----------------------------------------
      000A95                       3275 _usb_arch_disable_in_endpoint:
      000A95 AF 82            [24] 3276 	mov	r7,dpl
                                   3277 ;	/home/user/contiki/cpu/cc2530edm_aman/usb/usb-arch.c:630: USBMAXI = 0;
      000A97 90 62 10         [24] 3278 	mov	dptr,#_USBMAXI
      000A9A E4               [12] 3279 	clr	a
      000A9B F0               [24] 3280 	movx	@dptr,a
                                   3281 ;	/home/user/contiki/cpu/cc2530edm_aman/usb/usb-arch.c:631: USBIIE &= ~USBIIE_INEPxIE(EP_HW_NUM(addr));
      000A9C 74 7F            [12] 3282 	mov	a,#0x7F
      000A9E 5F               [12] 3283 	anl	a,r7
      000A9F F5 F0            [12] 3284 	mov	b,a
      000AA1 05 F0            [12] 3285 	inc	b
      000AA3 74 01            [12] 3286 	mov	a,#0x01
      000AA5 80 02            [24] 3287 	sjmp	00105$
      000AA7                       3288 00103$:
      000AA7 25 E0            [12] 3289 	add	a,acc
      000AA9                       3290 00105$:
      000AA9 D5 F0 FB         [24] 3291 	djnz	b,00103$
      000AAC F4               [12] 3292 	cpl	a
      000AAD FF               [12] 3293 	mov	r7,a
      000AAE 90 62 07         [24] 3294 	mov	dptr,#_USBIIE
      000AB1 E0               [24] 3295 	movx	a,@dptr
      000AB2 5F               [12] 3296 	anl	a,r7
      000AB3 F0               [24] 3297 	movx	@dptr,a
                                   3298 ;	/home/user/contiki/cpu/cc2530edm_aman/usb/usb-arch.c:634: USBCSIL = 0x08;               // Double-buffering not used. Flush only once
      000AB4 90 62 11         [24] 3299 	mov	dptr,#_USBCSIL
      000AB7 74 08            [12] 3300 	mov	a,#0x08
      000AB9 F0               [24] 3301 	movx	@dptr,a
      000ABA 22               [24] 3302 	ret
                                   3303 ;------------------------------------------------------------
                                   3304 ;Allocation info for local variables in function 'usb_arch_disable_out_endpoint'
                                   3305 ;------------------------------------------------------------
                                   3306 ;addr                      Allocated to registers r7 
                                   3307 ;------------------------------------------------------------
                                   3308 ;	/home/user/contiki/cpu/cc2530edm_aman/usb/usb-arch.c:638: usb_arch_disable_out_endpoint(uint8_t addr)
                                   3309 ;	-----------------------------------------
                                   3310 ;	 function usb_arch_disable_out_endpoint
                                   3311 ;	-----------------------------------------
      000ABB                       3312 _usb_arch_disable_out_endpoint:
      000ABB AF 82            [24] 3313 	mov	r7,dpl
                                   3314 ;	/home/user/contiki/cpu/cc2530edm_aman/usb/usb-arch.c:640: USBMAXO = 0;
      000ABD 90 62 13         [24] 3315 	mov	dptr,#_USBMAXO
      000AC0 E4               [12] 3316 	clr	a
      000AC1 F0               [24] 3317 	movx	@dptr,a
                                   3318 ;	/home/user/contiki/cpu/cc2530edm_aman/usb/usb-arch.c:641: USBOIE &= ~USBOIE_OUEPxIE(EP_HW_NUM(addr));
      000AC2 74 7F            [12] 3319 	mov	a,#0x7F
      000AC4 5F               [12] 3320 	anl	a,r7
      000AC5 F5 F0            [12] 3321 	mov	b,a
      000AC7 05 F0            [12] 3322 	inc	b
      000AC9 74 01            [12] 3323 	mov	a,#0x01
      000ACB 80 02            [24] 3324 	sjmp	00105$
      000ACD                       3325 00103$:
      000ACD 25 E0            [12] 3326 	add	a,acc
      000ACF                       3327 00105$:
      000ACF D5 F0 FB         [24] 3328 	djnz	b,00103$
      000AD2 F4               [12] 3329 	cpl	a
      000AD3 FF               [12] 3330 	mov	r7,a
      000AD4 90 62 09         [24] 3331 	mov	dptr,#_USBOIE
      000AD7 E0               [24] 3332 	movx	a,@dptr
      000AD8 5F               [12] 3333 	anl	a,r7
      000AD9 F0               [24] 3334 	movx	@dptr,a
                                   3335 ;	/home/user/contiki/cpu/cc2530edm_aman/usb/usb-arch.c:644: USBCSOL = 0x08;               // Double buffering not used, flush only once
      000ADA 90 62 14         [24] 3336 	mov	dptr,#_USBCSOL
      000ADD 74 08            [12] 3337 	mov	a,#0x08
      000ADF F0               [24] 3338 	movx	@dptr,a
      000AE0 22               [24] 3339 	ret
                                   3340 ;------------------------------------------------------------
                                   3341 ;Allocation info for local variables in function 'usb_arch_disable_endpoint'
                                   3342 ;------------------------------------------------------------
                                   3343 ;addr                      Allocated to registers r7 
                                   3344 ;ei                        Allocated to registers r5 
                                   3345 ;flag                      Allocated to registers r6 
                                   3346 ;ep                        Allocated to registers r4 r6 r3 
                                   3347 ;------------------------------------------------------------
                                   3348 ;	/home/user/contiki/cpu/cc2530edm_aman/usb/usb-arch.c:649: usb_arch_disable_endpoint(uint8_t addr)
                                   3349 ;	-----------------------------------------
                                   3350 ;	 function usb_arch_disable_endpoint
                                   3351 ;	-----------------------------------------
      000AE1                       3352 _usb_arch_disable_endpoint:
      000AE1 AF 82            [24] 3353 	mov	r7,dpl
                                   3354 ;	/home/user/contiki/cpu/cc2530edm_aman/usb/usb-arch.c:651: uint8_t ei = EP_HW_NUM(addr);
      000AE3 74 7F            [12] 3355 	mov	a,#0x7F
      000AE5 5F               [12] 3356 	anl	a,r7
                                   3357 ;	/home/user/contiki/cpu/cc2530edm_aman/usb/usb-arch.c:653: USBEndpoint *ep = EP_STRUCT(addr);
      000AE6 FD               [12] 3358 	mov	r5,a
      000AE7 75 F0 0D         [24] 3359 	mov	b,#0x0D
      000AEA A4               [48] 3360 	mul	ab
      000AEB 24r01            [12] 3361 	add	a,#_usb_endpoints
      000AED FC               [12] 3362 	mov	r4,a
      000AEE 74s00            [12] 3363 	mov	a,#(_usb_endpoints >> 8)
      000AF0 35 F0            [12] 3364 	addc	a,b
      000AF2 FE               [12] 3365 	mov	r6,a
      000AF3 7B 00            [12] 3366 	mov	r3,#0x00
                                   3367 ;	/home/user/contiki/cpu/cc2530edm_aman/usb/usb-arch.c:655: ep->flags &= ~USB_EP_FLAGS_ENABLED;
      000AF5 74 02            [12] 3368 	mov	a,#0x02
      000AF7 2C               [12] 3369 	add	a,r4
      000AF8 FC               [12] 3370 	mov	r4,a
      000AF9 E4               [12] 3371 	clr	a
      000AFA 3E               [12] 3372 	addc	a,r6
      000AFB FE               [12] 3373 	mov	r6,a
      000AFC 8C 82            [24] 3374 	mov	dpl,r4
      000AFE 8E 83            [24] 3375 	mov	dph,r6
      000B00 8B F0            [24] 3376 	mov	b,r3
      000B02 12r00r00         [24] 3377 	lcall	__gptrget
      000B05 FA               [12] 3378 	mov	r2,a
      000B06 53 02 FB         [24] 3379 	anl	ar2,#0xFB
      000B09 8C 82            [24] 3380 	mov	dpl,r4
      000B0B 8E 83            [24] 3381 	mov	dph,r6
      000B0D 8B F0            [24] 3382 	mov	b,r3
      000B0F EA               [12] 3383 	mov	a,r2
      000B10 12r00r00         [24] 3384 	lcall	__gptrput
                                   3385 ;	/home/user/contiki/cpu/cc2530edm_aman/usb/usb-arch.c:657: usb_irq_disable(flag);
      000B13 74 02            [12] 3386 	mov	a,#0x02
      000B15 55 9A            [12] 3387 	anl	a,_IEN2
      000B17 FE               [12] 3388 	mov	r6,a
      000B18 AC 9A            [24] 3389 	mov	r4,_IEN2
      000B1A 74 FD            [12] 3390 	mov	a,#0xFD
      000B1C 5C               [12] 3391 	anl	a,r4
      000B1D F5 9A            [12] 3392 	mov	_IEN2,a
                                   3393 ;	/home/user/contiki/cpu/cc2530edm_aman/usb/usb-arch.c:658: USBINDEX = ei;
      000B1F 90 62 0E         [24] 3394 	mov	dptr,#_USBINDEX
      000B22 ED               [12] 3395 	mov	a,r5
      000B23 F0               [24] 3396 	movx	@dptr,a
                                   3397 ;	/home/user/contiki/cpu/cc2530edm_aman/usb/usb-arch.c:659: if(ei == 0) {
      000B24 ED               [12] 3398 	mov	a,r5
      000B25 70 09            [24] 3399 	jnz	00108$
                                   3400 ;	/home/user/contiki/cpu/cc2530edm_aman/usb/usb-arch.c:660: usb_arch_disable_ep0();
      000B27 C0 06            [24] 3401 	push	ar6
      000B29 12r0Ar87         [24] 3402 	lcall	_usb_arch_disable_ep0
      000B2C D0 06            [24] 3403 	pop	ar6
      000B2E 80 18            [24] 3404 	sjmp	00110$
      000B30                       3405 00108$:
                                   3406 ;	/home/user/contiki/cpu/cc2530edm_aman/usb/usb-arch.c:662: if(addr & 0x80) {
      000B30 EF               [12] 3407 	mov	a,r7
      000B31 30 E7 0B         [24] 3408 	jnb	acc.7,00105$
                                   3409 ;	/home/user/contiki/cpu/cc2530edm_aman/usb/usb-arch.c:663: usb_arch_disable_in_endpoint(addr);
      000B34 8F 82            [24] 3410 	mov	dpl,r7
      000B36 C0 06            [24] 3411 	push	ar6
      000B38 12r0Ar95         [24] 3412 	lcall	_usb_arch_disable_in_endpoint
      000B3B D0 06            [24] 3413 	pop	ar6
      000B3D 80 09            [24] 3414 	sjmp	00110$
      000B3F                       3415 00105$:
                                   3416 ;	/home/user/contiki/cpu/cc2530edm_aman/usb/usb-arch.c:665: usb_arch_disable_out_endpoint(addr);
      000B3F 8F 82            [24] 3417 	mov	dpl,r7
      000B41 C0 06            [24] 3418 	push	ar6
      000B43 12r0ArBB         [24] 3419 	lcall	_usb_arch_disable_out_endpoint
      000B46 D0 06            [24] 3420 	pop	ar6
                                   3421 ;	/home/user/contiki/cpu/cc2530edm_aman/usb/usb-arch.c:668: usb_irq_enable(flag);
      000B48                       3422 00110$:
      000B48 EE               [12] 3423 	mov	a,r6
      000B49 42 9A            [12] 3424 	orl	_IEN2,a
      000B4B 22               [24] 3425 	ret
                                   3426 ;------------------------------------------------------------
                                   3427 ;Allocation info for local variables in function 'usb_arch_discard_all_buffers'
                                   3428 ;------------------------------------------------------------
                                   3429 ;addr                      Allocated to registers r7 
                                   3430 ;buffer                    Allocated to stack - sp -5
                                   3431 ;flag                      Allocated to registers r4 
                                   3432 ;ep                        Allocated to stack - sp -2
                                   3433 ;------------------------------------------------------------
                                   3434 ;	/home/user/contiki/cpu/cc2530edm_aman/usb/usb-arch.c:672: usb_arch_discard_all_buffers(uint8_t addr)
                                   3435 ;	-----------------------------------------
                                   3436 ;	 function usb_arch_discard_all_buffers
                                   3437 ;	-----------------------------------------
      000B4C                       3438 _usb_arch_discard_all_buffers:
      000B4C E5 81            [12] 3439 	mov	a,sp
      000B4E 24 06            [12] 3440 	add	a,#0x06
      000B50 F5 81            [12] 3441 	mov	sp,a
      000B52 AF 82            [24] 3442 	mov	r7,dpl
                                   3443 ;	/home/user/contiki/cpu/cc2530edm_aman/usb/usb-arch.c:676: volatile USBEndpoint *ep = EP_STRUCT(addr);
      000B54 74 7F            [12] 3444 	mov	a,#0x7F
      000B56 5F               [12] 3445 	anl	a,r7
      000B57 75 F0 0D         [24] 3446 	mov	b,#0x0D
      000B5A A4               [48] 3447 	mul	ab
      000B5B 24r01            [12] 3448 	add	a,#_usb_endpoints
      000B5D FE               [12] 3449 	mov	r6,a
      000B5E 74s00            [12] 3450 	mov	a,#(_usb_endpoints >> 8)
      000B60 35 F0            [12] 3451 	addc	a,b
      000B62 FF               [12] 3452 	mov	r7,a
      000B63 7D 00            [12] 3453 	mov	r5,#0x00
                                   3454 ;	/home/user/contiki/cpu/cc2530edm_aman/usb/usb-arch.c:678: usb_irq_disable(flag);
      000B65 74 02            [12] 3455 	mov	a,#0x02
      000B67 55 9A            [12] 3456 	anl	a,_IEN2
      000B69 FC               [12] 3457 	mov	r4,a
      000B6A AB 9A            [24] 3458 	mov	r3,_IEN2
      000B6C 74 FD            [12] 3459 	mov	a,#0xFD
      000B6E 5B               [12] 3460 	anl	a,r3
      000B6F F5 9A            [12] 3461 	mov	_IEN2,a
                                   3462 ;	/home/user/contiki/cpu/cc2530edm_aman/usb/usb-arch.c:679: buffer = ep->buffer;
      000B71 74 03            [12] 3463 	mov	a,#0x03
      000B73 2E               [12] 3464 	add	a,r6
      000B74 FE               [12] 3465 	mov	r6,a
      000B75 E4               [12] 3466 	clr	a
      000B76 3F               [12] 3467 	addc	a,r7
      000B77 FF               [12] 3468 	mov	r7,a
      000B78 8E 82            [24] 3469 	mov	dpl,r6
      000B7A 8F 83            [24] 3470 	mov	dph,r7
      000B7C 8D F0            [24] 3471 	mov	b,r5
      000B7E E5 81            [12] 3472 	mov	a,sp
      000B80 24 FB            [12] 3473 	add	a,#0xfb
      000B82 F8               [12] 3474 	mov	r0,a
      000B83 12r00r00         [24] 3475 	lcall	__gptrget
      000B86 F6               [12] 3476 	mov	@r0,a
      000B87 A3               [24] 3477 	inc	dptr
      000B88 12r00r00         [24] 3478 	lcall	__gptrget
      000B8B 08               [12] 3479 	inc	r0
      000B8C F6               [12] 3480 	mov	@r0,a
      000B8D A3               [24] 3481 	inc	dptr
      000B8E 12r00r00         [24] 3482 	lcall	__gptrget
      000B91 08               [12] 3483 	inc	r0
      000B92 F6               [12] 3484 	mov	@r0,a
                                   3485 ;	/home/user/contiki/cpu/cc2530edm_aman/usb/usb-arch.c:680: ep->buffer = NULL;
      000B93 8E 82            [24] 3486 	mov	dpl,r6
      000B95 8F 83            [24] 3487 	mov	dph,r7
      000B97 8D F0            [24] 3488 	mov	b,r5
      000B99 E4               [12] 3489 	clr	a
      000B9A 12r00r00         [24] 3490 	lcall	__gptrput
      000B9D A3               [24] 3491 	inc	dptr
      000B9E E4               [12] 3492 	clr	a
      000B9F 12r00r00         [24] 3493 	lcall	__gptrput
      000BA2 A3               [24] 3494 	inc	dptr
      000BA3 E4               [12] 3495 	clr	a
      000BA4 12r00r00         [24] 3496 	lcall	__gptrput
                                   3497 ;	/home/user/contiki/cpu/cc2530edm_aman/usb/usb-arch.c:681: usb_irq_enable(flag);
      000BA7 EC               [12] 3498 	mov	a,r4
      000BA8 42 9A            [12] 3499 	orl	_IEN2,a
                                   3500 ;	/home/user/contiki/cpu/cc2530edm_aman/usb/usb-arch.c:683: while(buffer) {
      000BAA                       3501 00107$:
      000BAA E5 81            [12] 3502 	mov	a,sp
      000BAC 24 FB            [12] 3503 	add	a,#0xfb
      000BAE F8               [12] 3504 	mov	r0,a
      000BAF E6               [12] 3505 	mov	a,@r0
      000BB0 08               [12] 3506 	inc	r0
      000BB1 46               [12] 3507 	orl	a,@r0
      000BB2 60 52            [24] 3508 	jz	00110$
                                   3509 ;	/home/user/contiki/cpu/cc2530edm_aman/usb/usb-arch.c:684: buffer->flags &= ~USB_BUFFER_SUBMITTED;
      000BB4 E5 81            [12] 3510 	mov	a,sp
      000BB6 24 FB            [12] 3511 	add	a,#0xfb
      000BB8 F8               [12] 3512 	mov	r0,a
      000BB9 74 08            [12] 3513 	mov	a,#0x08
      000BBB 26               [12] 3514 	add	a,@r0
      000BBC FD               [12] 3515 	mov	r5,a
      000BBD E4               [12] 3516 	clr	a
      000BBE 08               [12] 3517 	inc	r0
      000BBF 36               [12] 3518 	addc	a,@r0
      000BC0 FE               [12] 3519 	mov	r6,a
      000BC1 08               [12] 3520 	inc	r0
      000BC2 86 07            [24] 3521 	mov	ar7,@r0
      000BC4 8D 82            [24] 3522 	mov	dpl,r5
      000BC6 8E 83            [24] 3523 	mov	dph,r6
      000BC8 8F F0            [24] 3524 	mov	b,r7
      000BCA 12r00r00         [24] 3525 	lcall	__gptrget
      000BCD FB               [12] 3526 	mov	r3,a
      000BCE A3               [24] 3527 	inc	dptr
      000BCF 12r00r00         [24] 3528 	lcall	__gptrget
      000BD2 FC               [12] 3529 	mov	r4,a
      000BD3 53 03 FE         [24] 3530 	anl	ar3,#0xFE
      000BD6 8D 82            [24] 3531 	mov	dpl,r5
      000BD8 8E 83            [24] 3532 	mov	dph,r6
      000BDA 8F F0            [24] 3533 	mov	b,r7
      000BDC EB               [12] 3534 	mov	a,r3
      000BDD 12r00r00         [24] 3535 	lcall	__gptrput
      000BE0 A3               [24] 3536 	inc	dptr
      000BE1 EC               [12] 3537 	mov	a,r4
      000BE2 12r00r00         [24] 3538 	lcall	__gptrput
                                   3539 ;	/home/user/contiki/cpu/cc2530edm_aman/usb/usb-arch.c:685: buffer = buffer->next;
      000BE5 E5 81            [12] 3540 	mov	a,sp
      000BE7 24 FB            [12] 3541 	add	a,#0xfb
      000BE9 F8               [12] 3542 	mov	r0,a
      000BEA 86 82            [24] 3543 	mov	dpl,@r0
      000BEC 08               [12] 3544 	inc	r0
      000BED 86 83            [24] 3545 	mov	dph,@r0
      000BEF 08               [12] 3546 	inc	r0
      000BF0 86 F0            [24] 3547 	mov	b,@r0
      000BF2 12r00r00         [24] 3548 	lcall	__gptrget
      000BF5 18               [12] 3549 	dec	r0
      000BF6 18               [12] 3550 	dec	r0
      000BF7 F6               [12] 3551 	mov	@r0,a
      000BF8 A3               [24] 3552 	inc	dptr
      000BF9 12r00r00         [24] 3553 	lcall	__gptrget
      000BFC 08               [12] 3554 	inc	r0
      000BFD F6               [12] 3555 	mov	@r0,a
      000BFE A3               [24] 3556 	inc	dptr
      000BFF 12r00r00         [24] 3557 	lcall	__gptrget
      000C02 08               [12] 3558 	inc	r0
      000C03 F6               [12] 3559 	mov	@r0,a
      000C04 80 A4            [24] 3560 	sjmp	00107$
      000C06                       3561 00110$:
      000C06 E5 81            [12] 3562 	mov	a,sp
      000C08 24 FA            [12] 3563 	add	a,#0xFA
      000C0A F5 81            [12] 3564 	mov	sp,a
      000C0C 22               [24] 3565 	ret
                                   3566 ;------------------------------------------------------------
                                   3567 ;Allocation info for local variables in function 'set_stall'
                                   3568 ;------------------------------------------------------------
                                   3569 ;stall                     Allocated to stack - sp -2
                                   3570 ;addr                      Allocated to registers r7 
                                   3571 ;ei                        Allocated to registers r6 
                                   3572 ;------------------------------------------------------------
                                   3573 ;	/home/user/contiki/cpu/cc2530edm_aman/usb/usb-arch.c:690: set_stall(uint8_t addr, uint8_t stall)
                                   3574 ;	-----------------------------------------
                                   3575 ;	 function set_stall
                                   3576 ;	-----------------------------------------
      000C0D                       3577 _set_stall:
      000C0D AF 82            [24] 3578 	mov	r7,dpl
                                   3579 ;	/home/user/contiki/cpu/cc2530edm_aman/usb/usb-arch.c:692: uint8_t ei = EP_HW_NUM(addr);
      000C0F 74 7F            [12] 3580 	mov	a,#0x7F
      000C11 5F               [12] 3581 	anl	a,r7
                                   3582 ;	/home/user/contiki/cpu/cc2530edm_aman/usb/usb-arch.c:694: USBINDEX = ei;
      000C12 FE               [12] 3583 	mov	r6,a
      000C13 90 62 0E         [24] 3584 	mov	dptr,#_USBINDEX
      000C16 F0               [24] 3585 	movx	@dptr,a
                                   3586 ;	/home/user/contiki/cpu/cc2530edm_aman/usb/usb-arch.c:695: if(ei == 0) {
      000C17 EE               [12] 3587 	mov	a,r6
      000C18 70 14            [24] 3588 	jnz	00113$
                                   3589 ;	/home/user/contiki/cpu/cc2530edm_aman/usb/usb-arch.c:697: if(stall) {
      000C1A A8 81            [24] 3590 	mov	r0,sp
      000C1C 18               [12] 3591 	dec	r0
      000C1D 18               [12] 3592 	dec	r0
      000C1E E6               [12] 3593 	mov	a,@r0
      000C1F 60 3F            [24] 3594 	jz	00115$
                                   3595 ;	/home/user/contiki/cpu/cc2530edm_aman/usb/usb-arch.c:698: ep0status = EP_IDLE;
      000C21 90r00r00         [24] 3596 	mov	dptr,#_ep0status
      000C24 E4               [12] 3597 	clr	a
      000C25 F0               [24] 3598 	movx	@dptr,a
                                   3599 ;	/home/user/contiki/cpu/cc2530edm_aman/usb/usb-arch.c:699: USBCS0 |= USBCS0_SEND_STALL | USBCS0_OUTPKT_RDY;
      000C26 90 62 11         [24] 3600 	mov	dptr,#_USBCS0
      000C29 E0               [24] 3601 	movx	a,@dptr
      000C2A 44 21            [12] 3602 	orl	a,#0x21
      000C2C F0               [24] 3603 	movx	@dptr,a
      000C2D 22               [24] 3604 	ret
      000C2E                       3605 00113$:
                                   3606 ;	/home/user/contiki/cpu/cc2530edm_aman/usb/usb-arch.c:702: if(addr & 0x80) {
      000C2E EF               [12] 3607 	mov	a,r7
      000C2F 30 E7 17         [24] 3608 	jnb	acc.7,00110$
                                   3609 ;	/home/user/contiki/cpu/cc2530edm_aman/usb/usb-arch.c:703: if(stall) {
      000C32 A8 81            [24] 3610 	mov	r0,sp
      000C34 18               [12] 3611 	dec	r0
      000C35 18               [12] 3612 	dec	r0
      000C36 E6               [12] 3613 	mov	a,@r0
      000C37 60 08            [24] 3614 	jz	00104$
                                   3615 ;	/home/user/contiki/cpu/cc2530edm_aman/usb/usb-arch.c:704: USBCSIL |= USBCSIL_SEND_STALL;
      000C39 90 62 11         [24] 3616 	mov	dptr,#_USBCSIL
      000C3C E0               [24] 3617 	movx	a,@dptr
      000C3D 44 10            [12] 3618 	orl	a,#0x10
      000C3F F0               [24] 3619 	movx	@dptr,a
      000C40 22               [24] 3620 	ret
      000C41                       3621 00104$:
                                   3622 ;	/home/user/contiki/cpu/cc2530edm_aman/usb/usb-arch.c:706: USBCSIL &= ~USBCSIL_SEND_STALL;
      000C41 90 62 11         [24] 3623 	mov	dptr,#_USBCSIL
      000C44 E0               [24] 3624 	movx	a,@dptr
      000C45 54 EF            [12] 3625 	anl	a,#0xEF
      000C47 F0               [24] 3626 	movx	@dptr,a
      000C48 22               [24] 3627 	ret
      000C49                       3628 00110$:
                                   3629 ;	/home/user/contiki/cpu/cc2530edm_aman/usb/usb-arch.c:709: if(stall) {
      000C49 A8 81            [24] 3630 	mov	r0,sp
      000C4B 18               [12] 3631 	dec	r0
      000C4C 18               [12] 3632 	dec	r0
      000C4D E6               [12] 3633 	mov	a,@r0
      000C4E 60 08            [24] 3634 	jz	00107$
                                   3635 ;	/home/user/contiki/cpu/cc2530edm_aman/usb/usb-arch.c:710: USBCSOL |= USBCSOL_SEND_STALL;
      000C50 90 62 14         [24] 3636 	mov	dptr,#_USBCSOL
      000C53 E0               [24] 3637 	movx	a,@dptr
      000C54 44 20            [12] 3638 	orl	a,#0x20
      000C56 F0               [24] 3639 	movx	@dptr,a
      000C57 22               [24] 3640 	ret
      000C58                       3641 00107$:
                                   3642 ;	/home/user/contiki/cpu/cc2530edm_aman/usb/usb-arch.c:712: USBCSOL &= ~USBCSOL_SEND_STALL;
      000C58 90 62 14         [24] 3643 	mov	dptr,#_USBCSOL
      000C5B E0               [24] 3644 	movx	a,@dptr
      000C5C FF               [12] 3645 	mov	r7,a
      000C5D 54 DF            [12] 3646 	anl	a,#0xDF
      000C5F F0               [24] 3647 	movx	@dptr,a
      000C60                       3648 00115$:
      000C60 22               [24] 3649 	ret
                                   3650 ;------------------------------------------------------------
                                   3651 ;Allocation info for local variables in function 'usb_arch_control_stall'
                                   3652 ;------------------------------------------------------------
                                   3653 ;addr                      Allocated to registers r7 
                                   3654 ;ei                        Allocated to registers r6 
                                   3655 ;flag                      Allocated to registers r6 
                                   3656 ;------------------------------------------------------------
                                   3657 ;	/home/user/contiki/cpu/cc2530edm_aman/usb/usb-arch.c:719: usb_arch_control_stall(uint8_t addr)
                                   3658 ;	-----------------------------------------
                                   3659 ;	 function usb_arch_control_stall
                                   3660 ;	-----------------------------------------
      000C61                       3661 _usb_arch_control_stall:
      000C61 AF 82            [24] 3662 	mov	r7,dpl
                                   3663 ;	/home/user/contiki/cpu/cc2530edm_aman/usb/usb-arch.c:721: uint8_t ei = EP_HW_NUM(addr);
      000C63 74 7F            [12] 3664 	mov	a,#0x7F
      000C65 5F               [12] 3665 	anl	a,r7
                                   3666 ;	/home/user/contiki/cpu/cc2530edm_aman/usb/usb-arch.c:724: if(ei > USB_MAX_ENDPOINTS) {
      000C66 FE               [12] 3667 	mov  r6,a
      000C67 24 FB            [12] 3668 	add	a,#0xff - 0x04
      000C69 50 01            [24] 3669 	jnc	00103$
                                   3670 ;	/home/user/contiki/cpu/cc2530edm_aman/usb/usb-arch.c:725: return;
                                   3671 ;	/home/user/contiki/cpu/cc2530edm_aman/usb/usb-arch.c:728: usb_irq_disable(flag);
      000C6B 22               [24] 3672 	ret
      000C6C                       3673 00103$:
      000C6C 74 02            [12] 3674 	mov	a,#0x02
      000C6E 55 9A            [12] 3675 	anl	a,_IEN2
      000C70 FE               [12] 3676 	mov	r6,a
      000C71 AD 9A            [24] 3677 	mov	r5,_IEN2
      000C73 74 FD            [12] 3678 	mov	a,#0xFD
      000C75 5D               [12] 3679 	anl	a,r5
      000C76 F5 9A            [12] 3680 	mov	_IEN2,a
                                   3681 ;	/home/user/contiki/cpu/cc2530edm_aman/usb/usb-arch.c:730: set_stall(addr, 1);
      000C78 C0 06            [24] 3682 	push	ar6
      000C7A 74 01            [12] 3683 	mov	a,#0x01
      000C7C C0 E0            [24] 3684 	push	acc
      000C7E 8F 82            [24] 3685 	mov	dpl,r7
      000C80 12r0Cr0D         [24] 3686 	lcall	_set_stall
      000C83 15 81            [12] 3687 	dec	sp
      000C85 D0 06            [24] 3688 	pop	ar6
                                   3689 ;	/home/user/contiki/cpu/cc2530edm_aman/usb/usb-arch.c:732: usb_irq_enable(flag);
      000C87 EE               [12] 3690 	mov	a,r6
      000C88 42 9A            [12] 3691 	orl	_IEN2,a
      000C8A 22               [24] 3692 	ret
                                   3693 ;------------------------------------------------------------
                                   3694 ;Allocation info for local variables in function 'usb_arch_halt_endpoint'
                                   3695 ;------------------------------------------------------------
                                   3696 ;halt                      Allocated to stack - sp -12
                                   3697 ;addr                      Allocated to stack - sp -8
                                   3698 ;ei                        Allocated to registers r5 
                                   3699 ;flag                      Allocated to registers r7 
                                   3700 ;ep                        Allocated to stack - sp -2
                                   3701 ;sloc0                     Allocated to stack - sp -7
                                   3702 ;sloc1                     Allocated to stack - sp +1
                                   3703 ;sloc2                     Allocated to stack - sp -4
                                   3704 ;------------------------------------------------------------
                                   3705 ;	/home/user/contiki/cpu/cc2530edm_aman/usb/usb-arch.c:736: usb_arch_halt_endpoint(uint8_t addr, int halt)
                                   3706 ;	-----------------------------------------
                                   3707 ;	 function usb_arch_halt_endpoint
                                   3708 ;	-----------------------------------------
      000C8B                       3709 _usb_arch_halt_endpoint:
      000C8B C0 82            [24] 3710 	push	dpl
      000C8D E5 81            [12] 3711 	mov	a,sp
      000C8F 24 08            [12] 3712 	add	a,#0x08
                                   3713 ;	/home/user/contiki/cpu/cc2530edm_aman/usb/usb-arch.c:738: uint8_t ei = EP_HW_NUM(addr);
      000C91 F5 81            [12] 3714 	mov	sp,a
      000C93 24 F8            [12] 3715 	add	a,#0xf8
      000C95 F8               [12] 3716 	mov	r0,a
      000C96 74 7F            [12] 3717 	mov	a,#0x7F
      000C98 56               [12] 3718 	anl	a,@r0
                                   3719 ;	/home/user/contiki/cpu/cc2530edm_aman/usb/usb-arch.c:740: USBEndpoint *ep = EP_STRUCT(addr);
      000C99 FD               [12] 3720 	mov	r5,a
      000C9A 75 F0 0D         [24] 3721 	mov	b,#0x0D
      000C9D A4               [48] 3722 	mul	ab
      000C9E 24r01            [12] 3723 	add	a,#_usb_endpoints
      000CA0 FC               [12] 3724 	mov	r4,a
      000CA1 74s00            [12] 3725 	mov	a,#(_usb_endpoints >> 8)
      000CA3 35 F0            [12] 3726 	addc	a,b
      000CA5 FE               [12] 3727 	mov	r6,a
      000CA6 A8 81            [24] 3728 	mov	r0,sp
      000CA8 18               [12] 3729 	dec	r0
      000CA9 18               [12] 3730 	dec	r0
      000CAA A6 04            [24] 3731 	mov	@r0,ar4
      000CAC 08               [12] 3732 	inc	r0
      000CAD A6 06            [24] 3733 	mov	@r0,ar6
      000CAF 08               [12] 3734 	inc	r0
      000CB0 76 00            [12] 3735 	mov	@r0,#0x00
                                   3736 ;	/home/user/contiki/cpu/cc2530edm_aman/usb/usb-arch.c:743: if(ei > USB_MAX_ENDPOINTS) {
      000CB2 ED               [12] 3737 	mov	a,r5
      000CB3 24 FB            [12] 3738 	add	a,#0xff - 0x04
      000CB5 50 03            [24] 3739 	jnc	00102$
                                   3740 ;	/home/user/contiki/cpu/cc2530edm_aman/usb/usb-arch.c:744: return;
      000CB7 02r0Er7C         [24] 3741 	ljmp	00121$
      000CBA                       3742 00102$:
                                   3743 ;	/home/user/contiki/cpu/cc2530edm_aman/usb/usb-arch.c:747: if(!(ep->flags & USB_EP_FLAGS_ENABLED)) {
      000CBA C0 05            [24] 3744 	push	ar5
      000CBC E5 81            [12] 3745 	mov	a,sp
      000CBE 24 FD            [12] 3746 	add	a,#0xfd
      000CC0 F8               [12] 3747 	mov	r0,a
      000CC1 74 02            [12] 3748 	mov	a,#0x02
      000CC3 26               [12] 3749 	add	a,@r0
      000CC4 FA               [12] 3750 	mov	r2,a
      000CC5 E4               [12] 3751 	clr	a
      000CC6 08               [12] 3752 	inc	r0
      000CC7 36               [12] 3753 	addc	a,@r0
      000CC8 FD               [12] 3754 	mov	r5,a
      000CC9 08               [12] 3755 	inc	r0
      000CCA 86 07            [24] 3756 	mov	ar7,@r0
      000CCC 8A 82            [24] 3757 	mov	dpl,r2
      000CCE 8D 83            [24] 3758 	mov	dph,r5
      000CD0 8F F0            [24] 3759 	mov	b,r7
      000CD2 12r00r00         [24] 3760 	lcall	__gptrget
      000CD5 FA               [12] 3761 	mov	r2,a
      000CD6 D0 05            [24] 3762 	pop	ar5
      000CD8 20 E2 03         [24] 3763 	jb	acc.2,00105$
                                   3764 ;	/home/user/contiki/cpu/cc2530edm_aman/usb/usb-arch.c:748: return;
      000CDB 02r0Er7C         [24] 3765 	ljmp	00121$
                                   3766 ;	/home/user/contiki/cpu/cc2530edm_aman/usb/usb-arch.c:751: usb_irq_disable(flag);
      000CDE                       3767 00105$:
      000CDE 74 02            [12] 3768 	mov	a,#0x02
      000CE0 55 9A            [12] 3769 	anl	a,_IEN2
      000CE2 FF               [12] 3770 	mov	r7,a
      000CE3 AA 9A            [24] 3771 	mov	r2,_IEN2
      000CE5 74 FD            [12] 3772 	mov	a,#0xFD
      000CE7 5A               [12] 3773 	anl	a,r2
      000CE8 F5 9A            [12] 3774 	mov	_IEN2,a
                                   3775 ;	/home/user/contiki/cpu/cc2530edm_aman/usb/usb-arch.c:753: if(halt) {
      000CEA E5 81            [12] 3776 	mov	a,sp
      000CEC 24 F4            [12] 3777 	add	a,#0xf4
      000CEE F8               [12] 3778 	mov	r0,a
      000CEF E6               [12] 3779 	mov	a,@r0
      000CF0 08               [12] 3780 	inc	r0
      000CF1 46               [12] 3781 	orl	a,@r0
      000CF2 60 28            [24] 3782 	jz	00116$
                                   3783 ;	/home/user/contiki/cpu/cc2530edm_aman/usb/usb-arch.c:754: ep->halted = 0x1;
      000CF4 A8 81            [24] 3784 	mov	r0,sp
      000CF6 18               [12] 3785 	dec	r0
      000CF7 18               [12] 3786 	dec	r0
      000CF8 86 82            [24] 3787 	mov	dpl,@r0
      000CFA 08               [12] 3788 	inc	r0
      000CFB 86 83            [24] 3789 	mov	dph,@r0
      000CFD 08               [12] 3790 	inc	r0
      000CFE 86 F0            [24] 3791 	mov	b,@r0
      000D00 74 01            [12] 3792 	mov	a,#0x01
      000D02 12r00r00         [24] 3793 	lcall	__gptrput
                                   3794 ;	/home/user/contiki/cpu/cc2530edm_aman/usb/usb-arch.c:755: set_stall(addr, 1);
      000D05 C0 07            [24] 3795 	push	ar7
      000D07 74 01            [12] 3796 	mov	a,#0x01
      000D09 C0 E0            [24] 3797 	push	acc
      000D0B E5 81            [12] 3798 	mov	a,sp
      000D0D 24 F6            [12] 3799 	add	a,#0xf6
      000D0F F8               [12] 3800 	mov	r0,a
      000D10 86 82            [24] 3801 	mov	dpl,@r0
      000D12 12r0Cr0D         [24] 3802 	lcall	_set_stall
      000D15 15 81            [12] 3803 	dec	sp
      000D17 D0 07            [24] 3804 	pop	ar7
      000D19 02r0Er79         [24] 3805 	ljmp	00118$
      000D1C                       3806 00116$:
                                   3807 ;	/home/user/contiki/cpu/cc2530edm_aman/usb/usb-arch.c:757: ep->halted = 0;
      000D1C A8 81            [24] 3808 	mov	r0,sp
      000D1E 18               [12] 3809 	dec	r0
      000D1F 18               [12] 3810 	dec	r0
      000D20 86 82            [24] 3811 	mov	dpl,@r0
      000D22 08               [12] 3812 	inc	r0
      000D23 86 83            [24] 3813 	mov	dph,@r0
      000D25 08               [12] 3814 	inc	r0
      000D26 86 F0            [24] 3815 	mov	b,@r0
      000D28 E4               [12] 3816 	clr	a
      000D29 12r00r00         [24] 3817 	lcall	__gptrput
                                   3818 ;	/home/user/contiki/cpu/cc2530edm_aman/usb/usb-arch.c:758: set_stall(addr, 0);
      000D2C C0 07            [24] 3819 	push	ar7
      000D2E C0 05            [24] 3820 	push	ar5
      000D30 E4               [12] 3821 	clr	a
      000D31 C0 E0            [24] 3822 	push	acc
      000D33 E5 81            [12] 3823 	mov	a,sp
      000D35 24 F5            [12] 3824 	add	a,#0xf5
      000D37 F8               [12] 3825 	mov	r0,a
      000D38 86 82            [24] 3826 	mov	dpl,@r0
      000D3A 12r0Cr0D         [24] 3827 	lcall	_set_stall
      000D3D 15 81            [12] 3828 	dec	sp
      000D3F D0 05            [24] 3829 	pop	ar5
      000D41 D0 07            [24] 3830 	pop	ar7
                                   3831 ;	/home/user/contiki/cpu/cc2530edm_aman/usb/usb-arch.c:760: if(ep->buffer && (ep->buffer->flags & USB_BUFFER_HALT)) {
      000D43 A8 81            [24] 3832 	mov	r0,sp
      000D45 18               [12] 3833 	dec	r0
      000D46 18               [12] 3834 	dec	r0
      000D47 E5 81            [12] 3835 	mov	a,sp
      000D49 24 F9            [12] 3836 	add	a,#0xf9
      000D4B F9               [12] 3837 	mov	r1,a
      000D4C 74 03            [12] 3838 	mov	a,#0x03
      000D4E 26               [12] 3839 	add	a,@r0
      000D4F F7               [12] 3840 	mov	@r1,a
      000D50 E4               [12] 3841 	clr	a
      000D51 08               [12] 3842 	inc	r0
      000D52 36               [12] 3843 	addc	a,@r0
      000D53 09               [12] 3844 	inc	r1
      000D54 F7               [12] 3845 	mov	@r1,a
      000D55 08               [12] 3846 	inc	r0
      000D56 09               [12] 3847 	inc	r1
      000D57 E6               [12] 3848 	mov	a,@r0
      000D58 F7               [12] 3849 	mov	@r1,a
      000D59 E5 81            [12] 3850 	mov	a,sp
      000D5B 24 F9            [12] 3851 	add	a,#0xf9
      000D5D F8               [12] 3852 	mov	r0,a
      000D5E 86 82            [24] 3853 	mov	dpl,@r0
      000D60 08               [12] 3854 	inc	r0
      000D61 86 83            [24] 3855 	mov	dph,@r0
      000D63 08               [12] 3856 	inc	r0
      000D64 86 F0            [24] 3857 	mov	b,@r0
      000D66 12r00r00         [24] 3858 	lcall	__gptrget
      000D69 FE               [12] 3859 	mov	r6,a
      000D6A A3               [24] 3860 	inc	dptr
      000D6B 12r00r00         [24] 3861 	lcall	__gptrget
      000D6E FC               [12] 3862 	mov	r4,a
      000D6F A3               [24] 3863 	inc	dptr
      000D70 12r00r00         [24] 3864 	lcall	__gptrget
      000D73 FB               [12] 3865 	mov	r3,a
      000D74 EE               [12] 3866 	mov	a,r6
      000D75 4C               [12] 3867 	orl	a,r4
      000D76 70 03            [24] 3868 	jnz	00147$
      000D78 02r0Er65         [24] 3869 	ljmp	00111$
      000D7B                       3870 00147$:
      000D7B 74 08            [12] 3871 	mov	a,#0x08
      000D7D 2E               [12] 3872 	add	a,r6
      000D7E FE               [12] 3873 	mov	r6,a
      000D7F E4               [12] 3874 	clr	a
      000D80 3C               [12] 3875 	addc	a,r4
      000D81 FC               [12] 3876 	mov	r4,a
      000D82 8E 82            [24] 3877 	mov	dpl,r6
      000D84 8C 83            [24] 3878 	mov	dph,r4
      000D86 8B F0            [24] 3879 	mov	b,r3
      000D88 E5 81            [12] 3880 	mov	a,sp
      000D8A 24 FC            [12] 3881 	add	a,#0xfc
      000D8C F8               [12] 3882 	mov	r0,a
      000D8D 12r00r00         [24] 3883 	lcall	__gptrget
      000D90 F6               [12] 3884 	mov	@r0,a
      000D91 A3               [24] 3885 	inc	dptr
      000D92 12r00r00         [24] 3886 	lcall	__gptrget
      000D95 08               [12] 3887 	inc	r0
      000D96 F6               [12] 3888 	mov	@r0,a
      000D97 E5 81            [12] 3889 	mov	a,sp
      000D99 24 FC            [12] 3890 	add	a,#0xfc
      000D9B F8               [12] 3891 	mov	r0,a
      000D9C 08               [12] 3892 	inc	r0
      000D9D E6               [12] 3893 	mov	a,@r0
      000D9E 20 E0 03         [24] 3894 	jb	acc.0,00148$
      000DA1 02r0Er65         [24] 3895 	ljmp	00111$
      000DA4                       3896 00148$:
                                   3897 ;	/home/user/contiki/cpu/cc2530edm_aman/usb/usb-arch.c:761: ep->buffer->flags &= ~USB_BUFFER_SUBMITTED;
      000DA4 C0 07            [24] 3898 	push	ar7
      000DA6 E5 81            [12] 3899 	mov	a,sp
      000DA8 24 FB            [12] 3900 	add	a,#0xfb
      000DAA F8               [12] 3901 	mov	r0,a
      000DAB 74 FE            [12] 3902 	mov	a,#0xFE
      000DAD 56               [12] 3903 	anl	a,@r0
      000DAE FA               [12] 3904 	mov	r2,a
      000DAF 08               [12] 3905 	inc	r0
      000DB0 86 07            [24] 3906 	mov	ar7,@r0
      000DB2 8E 82            [24] 3907 	mov	dpl,r6
      000DB4 8C 83            [24] 3908 	mov	dph,r4
      000DB6 8B F0            [24] 3909 	mov	b,r3
      000DB8 EA               [12] 3910 	mov	a,r2
      000DB9 12r00r00         [24] 3911 	lcall	__gptrput
      000DBC A3               [24] 3912 	inc	dptr
      000DBD EF               [12] 3913 	mov	a,r7
      000DBE 12r00r00         [24] 3914 	lcall	__gptrput
                                   3915 ;	/home/user/contiki/cpu/cc2530edm_aman/usb/usb-arch.c:762: if(ep->buffer->flags & USB_BUFFER_NOTIFY) {
      000DC1 E5 81            [12] 3916 	mov	a,sp
      000DC3 24 F8            [12] 3917 	add	a,#0xf8
      000DC5 F8               [12] 3918 	mov	r0,a
      000DC6 86 82            [24] 3919 	mov	dpl,@r0
      000DC8 08               [12] 3920 	inc	r0
      000DC9 86 83            [24] 3921 	mov	dph,@r0
      000DCB 08               [12] 3922 	inc	r0
      000DCC 86 F0            [24] 3923 	mov	b,@r0
      000DCE 12r00r00         [24] 3924 	lcall	__gptrget
      000DD1 FA               [12] 3925 	mov	r2,a
      000DD2 A3               [24] 3926 	inc	dptr
      000DD3 12r00r00         [24] 3927 	lcall	__gptrget
      000DD6 FE               [12] 3928 	mov	r6,a
      000DD7 A3               [24] 3929 	inc	dptr
      000DD8 12r00r00         [24] 3930 	lcall	__gptrget
      000DDB FF               [12] 3931 	mov	r7,a
      000DDC 74 08            [12] 3932 	mov	a,#0x08
      000DDE 2A               [12] 3933 	add	a,r2
      000DDF FA               [12] 3934 	mov	r2,a
      000DE0 E4               [12] 3935 	clr	a
      000DE1 3E               [12] 3936 	addc	a,r6
      000DE2 FE               [12] 3937 	mov	r6,a
      000DE3 8A 82            [24] 3938 	mov	dpl,r2
      000DE5 8E 83            [24] 3939 	mov	dph,r6
      000DE7 8F F0            [24] 3940 	mov	b,r7
      000DE9 12r00r00         [24] 3941 	lcall	__gptrget
      000DEC FA               [12] 3942 	mov	r2,a
      000DED A3               [24] 3943 	inc	dptr
      000DEE 12r00r00         [24] 3944 	lcall	__gptrget
      000DF1 FE               [12] 3945 	mov	r6,a
      000DF2 EA               [12] 3946 	mov	a,r2
      000DF3 D0 07            [24] 3947 	pop	ar7
      000DF5 30 E3 23         [24] 3948 	jnb	acc.3,00109$
                                   3949 ;	/home/user/contiki/cpu/cc2530edm_aman/usb/usb-arch.c:763: notify_ep_process(ep, USB_EP_EVENT_NOTIFICATION);
      000DF8 C0 07            [24] 3950 	push	ar7
      000DFA C0 05            [24] 3951 	push	ar5
      000DFC 74 01            [12] 3952 	mov	a,#0x01
      000DFE C0 E0            [24] 3953 	push	acc
      000E00 E4               [12] 3954 	clr	a
      000E01 C0 E0            [24] 3955 	push	acc
      000E03 E5 81            [12] 3956 	mov	a,sp
      000E05 24 FA            [12] 3957 	add	a,#0xfa
      000E07 F8               [12] 3958 	mov	r0,a
      000E08 86 82            [24] 3959 	mov	dpl,@r0
      000E0A 08               [12] 3960 	inc	r0
      000E0B 86 83            [24] 3961 	mov	dph,@r0
      000E0D 08               [12] 3962 	inc	r0
      000E0E 86 F0            [24] 3963 	mov	b,@r0
      000E10 12r00r2F         [24] 3964 	lcall	_notify_ep_process
      000E13 15 81            [12] 3965 	dec	sp
      000E15 15 81            [12] 3966 	dec	sp
      000E17 D0 05            [24] 3967 	pop	ar5
      000E19 D0 07            [24] 3968 	pop	ar7
      000E1B                       3969 00109$:
                                   3970 ;	/home/user/contiki/cpu/cc2530edm_aman/usb/usb-arch.c:765: ep->buffer = ep->buffer->next;
      000E1B E5 81            [12] 3971 	mov	a,sp
      000E1D 24 F9            [12] 3972 	add	a,#0xf9
      000E1F F8               [12] 3973 	mov	r0,a
      000E20 86 82            [24] 3974 	mov	dpl,@r0
      000E22 08               [12] 3975 	inc	r0
      000E23 86 83            [24] 3976 	mov	dph,@r0
      000E25 08               [12] 3977 	inc	r0
      000E26 86 F0            [24] 3978 	mov	b,@r0
      000E28 12r00r00         [24] 3979 	lcall	__gptrget
      000E2B FB               [12] 3980 	mov	r3,a
      000E2C A3               [24] 3981 	inc	dptr
      000E2D 12r00r00         [24] 3982 	lcall	__gptrget
      000E30 FC               [12] 3983 	mov	r4,a
      000E31 A3               [24] 3984 	inc	dptr
      000E32 12r00r00         [24] 3985 	lcall	__gptrget
      000E35 FE               [12] 3986 	mov	r6,a
      000E36 8B 82            [24] 3987 	mov	dpl,r3
      000E38 8C 83            [24] 3988 	mov	dph,r4
      000E3A 8E F0            [24] 3989 	mov	b,r6
      000E3C 12r00r00         [24] 3990 	lcall	__gptrget
      000E3F FB               [12] 3991 	mov	r3,a
      000E40 A3               [24] 3992 	inc	dptr
      000E41 12r00r00         [24] 3993 	lcall	__gptrget
      000E44 FC               [12] 3994 	mov	r4,a
      000E45 A3               [24] 3995 	inc	dptr
      000E46 12r00r00         [24] 3996 	lcall	__gptrget
      000E49 FE               [12] 3997 	mov	r6,a
      000E4A E5 81            [12] 3998 	mov	a,sp
      000E4C 24 F9            [12] 3999 	add	a,#0xf9
      000E4E F8               [12] 4000 	mov	r0,a
      000E4F 86 82            [24] 4001 	mov	dpl,@r0
      000E51 08               [12] 4002 	inc	r0
      000E52 86 83            [24] 4003 	mov	dph,@r0
      000E54 08               [12] 4004 	inc	r0
      000E55 86 F0            [24] 4005 	mov	b,@r0
      000E57 EB               [12] 4006 	mov	a,r3
      000E58 12r00r00         [24] 4007 	lcall	__gptrput
      000E5B A3               [24] 4008 	inc	dptr
      000E5C EC               [12] 4009 	mov	a,r4
      000E5D 12r00r00         [24] 4010 	lcall	__gptrput
      000E60 A3               [24] 4011 	inc	dptr
      000E61 EE               [12] 4012 	mov	a,r6
      000E62 12r00r00         [24] 4013 	lcall	__gptrput
      000E65                       4014 00111$:
                                   4015 ;	/home/user/contiki/cpu/cc2530edm_aman/usb/usb-arch.c:767: if(ei) {
      000E65 ED               [12] 4016 	mov	a,r5
      000E66 60 11            [24] 4017 	jz	00118$
                                   4018 ;	/home/user/contiki/cpu/cc2530edm_aman/usb/usb-arch.c:768: usb_arch_epout_irq(EP_HW_NUM(addr));
      000E68 E5 81            [12] 4019 	mov	a,sp
      000E6A 24 F8            [12] 4020 	add	a,#0xf8
      000E6C F8               [12] 4021 	mov	r0,a
      000E6D 74 7F            [12] 4022 	mov	a,#0x7F
      000E6F 56               [12] 4023 	anl	a,@r0
      000E70 F5 82            [12] 4024 	mov	dpl,a
      000E72 C0 07            [24] 4025 	push	ar7
      000E74 12r1FrB3         [24] 4026 	lcall	_usb_arch_epout_irq
      000E77 D0 07            [24] 4027 	pop	ar7
                                   4028 ;	/home/user/contiki/cpu/cc2530edm_aman/usb/usb-arch.c:772: usb_irq_enable(flag);
      000E79                       4029 00118$:
      000E79 EF               [12] 4030 	mov	a,r7
      000E7A 42 9A            [12] 4031 	orl	_IEN2,a
      000E7C                       4032 00121$:
      000E7C E5 81            [12] 4033 	mov	a,sp
      000E7E 24 F7            [12] 4034 	add	a,#0xF7
      000E80 F5 81            [12] 4035 	mov	sp,a
      000E82 22               [24] 4036 	ret
                                   4037 ;------------------------------------------------------------
                                   4038 ;Allocation info for local variables in function 'usb_arch_set_configuration'
                                   4039 ;------------------------------------------------------------
                                   4040 ;usb_configuration_value   Allocated to registers 
                                   4041 ;------------------------------------------------------------
                                   4042 ;	/home/user/contiki/cpu/cc2530edm_aman/usb/usb-arch.c:776: usb_arch_set_configuration(uint8_t usb_configuration_value)
                                   4043 ;	-----------------------------------------
                                   4044 ;	 function usb_arch_set_configuration
                                   4045 ;	-----------------------------------------
      000E83                       4046 _usb_arch_set_configuration:
                                   4047 ;	/home/user/contiki/cpu/cc2530edm_aman/usb/usb-arch.c:779: }
      000E83 22               [24] 4048 	ret
                                   4049 ;------------------------------------------------------------
                                   4050 ;Allocation info for local variables in function 'usb_arch_get_ep_status'
                                   4051 ;------------------------------------------------------------
                                   4052 ;addr                      Allocated to registers r7 
                                   4053 ;ei                        Allocated to registers r6 
                                   4054 ;ep                        Allocated to registers r5 r4 r7 
                                   4055 ;------------------------------------------------------------
                                   4056 ;	/home/user/contiki/cpu/cc2530edm_aman/usb/usb-arch.c:782: usb_arch_get_ep_status(uint8_t addr)
                                   4057 ;	-----------------------------------------
                                   4058 ;	 function usb_arch_get_ep_status
                                   4059 ;	-----------------------------------------
      000E84                       4060 _usb_arch_get_ep_status:
                                   4061 ;	/home/user/contiki/cpu/cc2530edm_aman/usb/usb-arch.c:784: uint8_t ei = EP_INDEX(addr);
                                   4062 ;	/home/user/contiki/cpu/cc2530edm_aman/usb/usb-arch.c:785: USBEndpoint *ep = EP_STRUCT(addr);
      000E84 E5 82            [12] 4063 	mov	a,dpl
      000E86 54 7F            [12] 4064 	anl	a,#0x7F
      000E88 FE               [12] 4065 	mov	r6,a
      000E89 75 F0 0D         [24] 4066 	mov	b,#0x0D
      000E8C A4               [48] 4067 	mul	ab
      000E8D 24r01            [12] 4068 	add	a,#_usb_endpoints
      000E8F FD               [12] 4069 	mov	r5,a
      000E90 74s00            [12] 4070 	mov	a,#(_usb_endpoints >> 8)
      000E92 35 F0            [12] 4071 	addc	a,b
      000E94 FC               [12] 4072 	mov	r4,a
      000E95 7F 00            [12] 4073 	mov	r7,#0x00
                                   4074 ;	/home/user/contiki/cpu/cc2530edm_aman/usb/usb-arch.c:787: if(ei > USB_MAX_ENDPOINTS) {
      000E97 EE               [12] 4075 	mov	a,r6
      000E98 24 FB            [12] 4076 	add	a,#0xff - 0x04
      000E9A 50 04            [24] 4077 	jnc	00102$
                                   4078 ;	/home/user/contiki/cpu/cc2530edm_aman/usb/usb-arch.c:788: return 0;
      000E9C 90 00 00         [24] 4079 	mov	dptr,#0x0000
      000E9F 22               [24] 4080 	ret
      000EA0                       4081 00102$:
                                   4082 ;	/home/user/contiki/cpu/cc2530edm_aman/usb/usb-arch.c:791: return ep->halted;
      000EA0 8D 82            [24] 4083 	mov	dpl,r5
      000EA2 8C 83            [24] 4084 	mov	dph,r4
      000EA4 8F F0            [24] 4085 	mov	b,r7
      000EA6 12r00r00         [24] 4086 	lcall	__gptrget
      000EA9 FD               [12] 4087 	mov	r5,a
      000EAA 7F 00            [12] 4088 	mov	r7,#0x00
      000EAC 8D 82            [24] 4089 	mov	dpl,r5
      000EAE 8F 83            [24] 4090 	mov	dph,r7
      000EB0 22               [24] 4091 	ret
                                   4092 ;------------------------------------------------------------
                                   4093 ;Allocation info for local variables in function 'usb_arch_set_address'
                                   4094 ;------------------------------------------------------------
                                   4095 ;addr                      Allocated to registers 
                                   4096 ;------------------------------------------------------------
                                   4097 ;	/home/user/contiki/cpu/cc2530edm_aman/usb/usb-arch.c:795: usb_arch_set_address(uint8_t addr)
                                   4098 ;	-----------------------------------------
                                   4099 ;	 function usb_arch_set_address
                                   4100 ;	-----------------------------------------
      000EB1                       4101 _usb_arch_set_address:
      000EB1 E5 82            [12] 4102 	mov	a,dpl
      000EB3 90 62 00         [24] 4103 	mov	dptr,#_USBADDR
      000EB6 F0               [24] 4104 	movx	@dptr,a
                                   4105 ;	/home/user/contiki/cpu/cc2530edm_aman/usb/usb-arch.c:797: USBADDR = addr;
      000EB7 22               [24] 4106 	ret
                                   4107 ;------------------------------------------------------------
                                   4108 ;Allocation info for local variables in function 'usb_arch_send_pending'
                                   4109 ;------------------------------------------------------------
                                   4110 ;addr                      Allocated to registers r7 
                                   4111 ;flag                      Allocated to registers r6 
                                   4112 ;ret                       Allocated to registers r7 
                                   4113 ;ei                        Allocated to registers r7 
                                   4114 ;------------------------------------------------------------
                                   4115 ;	/home/user/contiki/cpu/cc2530edm_aman/usb/usb-arch.c:801: usb_arch_send_pending(uint8_t addr)
                                   4116 ;	-----------------------------------------
                                   4117 ;	 function usb_arch_send_pending
                                   4118 ;	-----------------------------------------
      000EB8                       4119 _usb_arch_send_pending:
      000EB8 AF 82            [24] 4120 	mov	r7,dpl
                                   4121 ;	/home/user/contiki/cpu/cc2530edm_aman/usb/usb-arch.c:805: uint8_t ei = EP_INDEX(addr);
      000EBA 53 07 7F         [24] 4122 	anl	ar7,#0x7F
                                   4123 ;	/home/user/contiki/cpu/cc2530edm_aman/usb/usb-arch.c:807: usb_irq_disable(flag);
      000EBD 74 02            [12] 4124 	mov	a,#0x02
      000EBF 55 9A            [12] 4125 	anl	a,_IEN2
      000EC1 FE               [12] 4126 	mov	r6,a
      000EC2 AD 9A            [24] 4127 	mov	r5,_IEN2
      000EC4 74 FD            [12] 4128 	mov	a,#0xFD
      000EC6 5D               [12] 4129 	anl	a,r5
      000EC7 F5 9A            [12] 4130 	mov	_IEN2,a
                                   4131 ;	/home/user/contiki/cpu/cc2530edm_aman/usb/usb-arch.c:808: USBINDEX = ei;
      000EC9 90 62 0E         [24] 4132 	mov	dptr,#_USBINDEX
      000ECC EF               [12] 4133 	mov	a,r7
      000ECD F0               [24] 4134 	movx	@dptr,a
                                   4135 ;	/home/user/contiki/cpu/cc2530edm_aman/usb/usb-arch.c:809: if(ei == 0) {
      000ECE EF               [12] 4136 	mov	a,r7
      000ECF 70 0A            [24] 4137 	jnz	00105$
                                   4138 ;	/home/user/contiki/cpu/cc2530edm_aman/usb/usb-arch.c:810: ret = USBCS0 & USBCS0_INPKT_RDY;
      000ED1 90 62 11         [24] 4139 	mov	dptr,#_USBCS0
      000ED4 E0               [24] 4140 	movx	a,@dptr
      000ED5 FF               [12] 4141 	mov	r7,a
      000ED6 53 07 02         [24] 4142 	anl	ar7,#0x02
      000ED9 80 09            [24] 4143 	sjmp	00107$
      000EDB                       4144 00105$:
                                   4145 ;	/home/user/contiki/cpu/cc2530edm_aman/usb/usb-arch.c:812: ret = USBCSIL & USBCSIL_INPKT_RDY;
      000EDB 90 62 11         [24] 4146 	mov	dptr,#_USBCSIL
      000EDE E0               [24] 4147 	movx	a,@dptr
      000EDF FD               [12] 4148 	mov	r5,a
      000EE0 74 01            [12] 4149 	mov	a,#0x01
      000EE2 5D               [12] 4150 	anl	a,r5
      000EE3 FF               [12] 4151 	mov	r7,a
                                   4152 ;	/home/user/contiki/cpu/cc2530edm_aman/usb/usb-arch.c:814: usb_irq_enable(flag);
      000EE4                       4153 00107$:
      000EE4 EE               [12] 4154 	mov	a,r6
      000EE5 42 9A            [12] 4155 	orl	_IEN2,a
                                   4156 ;	/home/user/contiki/cpu/cc2530edm_aman/usb/usb-arch.c:816: return ret;
      000EE7 7E 00            [12] 4157 	mov	r6,#0x00
      000EE9 8F 82            [24] 4158 	mov	dpl,r7
      000EEB 8E 83            [24] 4159 	mov	dph,r6
      000EED 22               [24] 4160 	ret
                                   4161 ;------------------------------------------------------------
                                   4162 ;Allocation info for local variables in function 'get_receive_capacity'
                                   4163 ;------------------------------------------------------------
                                   4164 ;buffer                    Allocated to registers r5 r6 r7 
                                   4165 ;capacity                  Allocated to stack - sp -1
                                   4166 ;------------------------------------------------------------
                                   4167 ;	/home/user/contiki/cpu/cc2530edm_aman/usb/usb-arch.c:820: get_receive_capacity(USBBuffer * buffer)
                                   4168 ;	-----------------------------------------
                                   4169 ;	 function get_receive_capacity
                                   4170 ;	-----------------------------------------
      000EEE                       4171 _get_receive_capacity:
      000EEE 05 81            [12] 4172 	inc	sp
      000EF0 05 81            [12] 4173 	inc	sp
      000EF2 AD 82            [24] 4174 	mov	r5,dpl
      000EF4 AE 83            [24] 4175 	mov	r6,dph
      000EF6 AF F0            [24] 4176 	mov	r7,b
                                   4177 ;	/home/user/contiki/cpu/cc2530edm_aman/usb/usb-arch.c:822: unsigned int capacity = 0;
      000EF8 A8 81            [24] 4178 	mov	r0,sp
      000EFA 18               [12] 4179 	dec	r0
      000EFB E4               [12] 4180 	clr	a
      000EFC F6               [12] 4181 	mov	@r0,a
      000EFD 08               [12] 4182 	inc	r0
      000EFE F6               [12] 4183 	mov	@r0,a
                                   4184 ;	/home/user/contiki/cpu/cc2530edm_aman/usb/usb-arch.c:824: while(buffer &&
      000EFF                       4185 00102$:
      000EFF ED               [12] 4186 	mov	a,r5
      000F00 4E               [12] 4187 	orl	a,r6
      000F01 60 5B            [24] 4188 	jz	00104$
                                   4189 ;	/home/user/contiki/cpu/cc2530edm_aman/usb/usb-arch.c:825: !(buffer->flags & (USB_BUFFER_IN | USB_BUFFER_SETUP | USB_BUFFER_HALT))) {
      000F03 74 08            [12] 4190 	mov	a,#0x08
      000F05 2D               [12] 4191 	add	a,r5
      000F06 FA               [12] 4192 	mov	r2,a
      000F07 E4               [12] 4193 	clr	a
      000F08 3E               [12] 4194 	addc	a,r6
      000F09 FB               [12] 4195 	mov	r3,a
      000F0A 8F 04            [24] 4196 	mov	ar4,r7
      000F0C 8A 82            [24] 4197 	mov	dpl,r2
      000F0E 8B 83            [24] 4198 	mov	dph,r3
      000F10 8C F0            [24] 4199 	mov	b,r4
      000F12 12r00r00         [24] 4200 	lcall	__gptrget
      000F15 FA               [12] 4201 	mov	r2,a
      000F16 A3               [24] 4202 	inc	dptr
      000F17 12r00r00         [24] 4203 	lcall	__gptrget
      000F1A FB               [12] 4204 	mov	r3,a
      000F1B EA               [12] 4205 	mov	a,r2
      000F1C 54 60            [12] 4206 	anl	a,#0x60
      000F1E 70 04            [24] 4207 	jnz	00117$
      000F20 EB               [12] 4208 	mov	a,r3
      000F21 30 E0 02         [24] 4209 	jnb	acc.0,00118$
      000F24                       4210 00117$:
      000F24 80 38            [24] 4211 	sjmp	00104$
      000F26                       4212 00118$:
                                   4213 ;	/home/user/contiki/cpu/cc2530edm_aman/usb/usb-arch.c:826: capacity += buffer->left;
      000F26 74 06            [12] 4214 	mov	a,#0x06
      000F28 2D               [12] 4215 	add	a,r5
      000F29 FA               [12] 4216 	mov	r2,a
      000F2A E4               [12] 4217 	clr	a
      000F2B 3E               [12] 4218 	addc	a,r6
      000F2C FB               [12] 4219 	mov	r3,a
      000F2D 8F 04            [24] 4220 	mov	ar4,r7
      000F2F 8A 82            [24] 4221 	mov	dpl,r2
      000F31 8B 83            [24] 4222 	mov	dph,r3
      000F33 8C F0            [24] 4223 	mov	b,r4
      000F35 12r00r00         [24] 4224 	lcall	__gptrget
      000F38 FA               [12] 4225 	mov	r2,a
      000F39 A3               [24] 4226 	inc	dptr
      000F3A 12r00r00         [24] 4227 	lcall	__gptrget
      000F3D FB               [12] 4228 	mov	r3,a
      000F3E A8 81            [24] 4229 	mov	r0,sp
      000F40 18               [12] 4230 	dec	r0
      000F41 EA               [12] 4231 	mov	a,r2
      000F42 26               [12] 4232 	add	a,@r0
      000F43 F6               [12] 4233 	mov	@r0,a
      000F44 EB               [12] 4234 	mov	a,r3
      000F45 08               [12] 4235 	inc	r0
      000F46 36               [12] 4236 	addc	a,@r0
      000F47 F6               [12] 4237 	mov	@r0,a
                                   4238 ;	/home/user/contiki/cpu/cc2530edm_aman/usb/usb-arch.c:827: buffer = buffer->next;
      000F48 8D 82            [24] 4239 	mov	dpl,r5
      000F4A 8E 83            [24] 4240 	mov	dph,r6
      000F4C 8F F0            [24] 4241 	mov	b,r7
      000F4E 12r00r00         [24] 4242 	lcall	__gptrget
      000F51 FD               [12] 4243 	mov	r5,a
      000F52 A3               [24] 4244 	inc	dptr
      000F53 12r00r00         [24] 4245 	lcall	__gptrget
      000F56 FE               [12] 4246 	mov	r6,a
      000F57 A3               [24] 4247 	inc	dptr
      000F58 12r00r00         [24] 4248 	lcall	__gptrget
      000F5B FF               [12] 4249 	mov	r7,a
      000F5C 80 A1            [24] 4250 	sjmp	00102$
      000F5E                       4251 00104$:
                                   4252 ;	/home/user/contiki/cpu/cc2530edm_aman/usb/usb-arch.c:829: return capacity;
      000F5E A8 81            [24] 4253 	mov	r0,sp
      000F60 18               [12] 4254 	dec	r0
      000F61 86 82            [24] 4255 	mov	dpl,@r0
      000F63 08               [12] 4256 	inc	r0
      000F64 86 83            [24] 4257 	mov	dph,@r0
      000F66 15 81            [12] 4258 	dec	sp
      000F68 15 81            [12] 4259 	dec	sp
      000F6A 22               [24] 4260 	ret
                                   4261 ;------------------------------------------------------------
                                   4262 ;Allocation info for local variables in function 'skip_buffers_until'
                                   4263 ;------------------------------------------------------------
                                   4264 ;mask                      Allocated to stack - sp -5
                                   4265 ;flags                     Allocated to stack - sp -7
                                   4266 ;resp                      Allocated to stack - sp -10
                                   4267 ;buffer                    Allocated to registers r5 r6 r7 
                                   4268 ;sloc0                     Allocated to stack - sp -1
                                   4269 ;------------------------------------------------------------
                                   4270 ;	/home/user/contiki/cpu/cc2530edm_aman/usb/usb-arch.c:833: skip_buffers_until(USBBuffer * buffer, unsigned int mask, unsigned int flags,
                                   4271 ;	-----------------------------------------
                                   4272 ;	 function skip_buffers_until
                                   4273 ;	-----------------------------------------
      000F6B                       4274 _skip_buffers_until:
      000F6B 05 81            [12] 4275 	inc	sp
      000F6D 05 81            [12] 4276 	inc	sp
      000F6F AD 82            [24] 4277 	mov	r5,dpl
      000F71 AE 83            [24] 4278 	mov	r6,dph
      000F73 AF F0            [24] 4279 	mov	r7,b
                                   4280 ;	/home/user/contiki/cpu/cc2530edm_aman/usb/usb-arch.c:836: while(buffer && !((buffer->flags & mask) == flags)) {
      000F75                       4281 00104$:
      000F75 ED               [12] 4282 	mov	a,r5
      000F76 4E               [12] 4283 	orl	a,r6
      000F77 70 03            [24] 4284 	jnz	00121$
      000F79 02r10r45         [24] 4285 	ljmp	00106$
      000F7C                       4286 00121$:
      000F7C 74 08            [12] 4287 	mov	a,#0x08
      000F7E 2D               [12] 4288 	add	a,r5
      000F7F FA               [12] 4289 	mov	r2,a
      000F80 E4               [12] 4290 	clr	a
      000F81 3E               [12] 4291 	addc	a,r6
      000F82 FB               [12] 4292 	mov	r3,a
      000F83 8F 04            [24] 4293 	mov	ar4,r7
      000F85 8A 82            [24] 4294 	mov	dpl,r2
      000F87 8B 83            [24] 4295 	mov	dph,r3
      000F89 8C F0            [24] 4296 	mov	b,r4
      000F8B A8 81            [24] 4297 	mov	r0,sp
      000F8D 18               [12] 4298 	dec	r0
      000F8E 12r00r00         [24] 4299 	lcall	__gptrget
      000F91 F6               [12] 4300 	mov	@r0,a
      000F92 A3               [24] 4301 	inc	dptr
      000F93 12r00r00         [24] 4302 	lcall	__gptrget
      000F96 08               [12] 4303 	inc	r0
      000F97 F6               [12] 4304 	mov	@r0,a
      000F98 C0 05            [24] 4305 	push	ar5
      000F9A C0 06            [24] 4306 	push	ar6
      000F9C C0 07            [24] 4307 	push	ar7
      000F9E E5 81            [12] 4308 	mov	a,sp
      000FA0 24 FC            [12] 4309 	add	a,#0xfc
      000FA2 F8               [12] 4310 	mov	r0,a
      000FA3 E5 81            [12] 4311 	mov	a,sp
      000FA5 24 F8            [12] 4312 	add	a,#0xf8
      000FA7 F9               [12] 4313 	mov	r1,a
      000FA8 E7               [12] 4314 	mov	a,@r1
      000FA9 56               [12] 4315 	anl	a,@r0
      000FAA FE               [12] 4316 	mov	r6,a
      000FAB 09               [12] 4317 	inc	r1
      000FAC E7               [12] 4318 	mov	a,@r1
      000FAD 08               [12] 4319 	inc	r0
      000FAE 56               [12] 4320 	anl	a,@r0
      000FAF FF               [12] 4321 	mov	r7,a
      000FB0 E5 81            [12] 4322 	mov	a,sp
      000FB2 24 F6            [12] 4323 	add	a,#0xf6
      000FB4 F8               [12] 4324 	mov	r0,a
      000FB5 E6               [12] 4325 	mov	a,@r0
      000FB6 B5 06 0E         [24] 4326 	cjne	a,ar6,00122$
      000FB9 08               [12] 4327 	inc	r0
      000FBA E6               [12] 4328 	mov	a,@r0
      000FBB B5 07 09         [24] 4329 	cjne	a,ar7,00122$
      000FBE D0 07            [24] 4330 	pop	ar7
      000FC0 D0 06            [24] 4331 	pop	ar6
      000FC2 D0 05            [24] 4332 	pop	ar5
      000FC4 02r10r45         [24] 4333 	ljmp	00106$
      000FC7                       4334 00122$:
                                   4335 ;	/home/user/contiki/cpu/cc2530edm_aman/usb/usb-arch.c:837: buffer->flags &= ~USB_BUFFER_SUBMITTED;
      000FC7 E5 81            [12] 4336 	mov	a,sp
      000FC9 24 FC            [12] 4337 	add	a,#0xfc
      000FCB F8               [12] 4338 	mov	r0,a
      000FCC 74 FE            [12] 4339 	mov	a,#0xFE
      000FCE 56               [12] 4340 	anl	a,@r0
      000FCF FE               [12] 4341 	mov	r6,a
      000FD0 08               [12] 4342 	inc	r0
      000FD1 86 07            [24] 4343 	mov	ar7,@r0
      000FD3 8A 82            [24] 4344 	mov	dpl,r2
      000FD5 8B 83            [24] 4345 	mov	dph,r3
      000FD7 8C F0            [24] 4346 	mov	b,r4
      000FD9 EE               [12] 4347 	mov	a,r6
      000FDA 12r00r00         [24] 4348 	lcall	__gptrput
      000FDD A3               [24] 4349 	inc	dptr
      000FDE EF               [12] 4350 	mov	a,r7
      000FDF 12r00r00         [24] 4351 	lcall	__gptrput
                                   4352 ;	/home/user/contiki/cpu/cc2530edm_aman/usb/usb-arch.c:838: buffer->flags |= USB_BUFFER_FAILED;
      000FE2 43 06 80         [24] 4353 	orl	ar6,#0x80
      000FE5 8A 82            [24] 4354 	mov	dpl,r2
      000FE7 8B 83            [24] 4355 	mov	dph,r3
      000FE9 8C F0            [24] 4356 	mov	b,r4
      000FEB EE               [12] 4357 	mov	a,r6
      000FEC 12r00r00         [24] 4358 	lcall	__gptrput
      000FEF A3               [24] 4359 	inc	dptr
      000FF0 EF               [12] 4360 	mov	a,r7
      000FF1 12r00r00         [24] 4361 	lcall	__gptrput
                                   4362 ;	/home/user/contiki/cpu/cc2530edm_aman/usb/usb-arch.c:839: if(buffer->flags & USB_BUFFER_NOTIFY) {
      000FF4 EE               [12] 4363 	mov	a,r6
      000FF5 D0 07            [24] 4364 	pop	ar7
      000FF7 D0 06            [24] 4365 	pop	ar6
      000FF9 D0 05            [24] 4366 	pop	ar5
      000FFB 30 E3 30         [24] 4367 	jnb	acc.3,00102$
                                   4368 ;	/home/user/contiki/cpu/cc2530edm_aman/usb/usb-arch.c:840: *resp |= USB_READ_NOTIFY;
      000FFE C0 05            [24] 4369 	push	ar5
      001000 C0 06            [24] 4370 	push	ar6
      001002 C0 07            [24] 4371 	push	ar7
      001004 E5 81            [12] 4372 	mov	a,sp
      001006 24 F3            [12] 4373 	add	a,#0xf3
      001008 F8               [12] 4374 	mov	r0,a
      001009 86 02            [24] 4375 	mov	ar2,@r0
      00100B 08               [12] 4376 	inc	r0
      00100C 86 03            [24] 4377 	mov	ar3,@r0
      00100E 08               [12] 4378 	inc	r0
      00100F 86 04            [24] 4379 	mov	ar4,@r0
      001011 8A 82            [24] 4380 	mov	dpl,r2
      001013 8B 83            [24] 4381 	mov	dph,r3
      001015 8C F0            [24] 4382 	mov	b,r4
      001017 12r00r00         [24] 4383 	lcall	__gptrget
      00101A FF               [12] 4384 	mov	r7,a
      00101B 43 07 02         [24] 4385 	orl	ar7,#0x02
      00101E 8A 82            [24] 4386 	mov	dpl,r2
      001020 8B 83            [24] 4387 	mov	dph,r3
      001022 8C F0            [24] 4388 	mov	b,r4
      001024 EF               [12] 4389 	mov	a,r7
      001025 12r00r00         [24] 4390 	lcall	__gptrput
                                   4391 ;	/home/user/contiki/cpu/cc2530edm_aman/usb/usb-arch.c:844: return buffer;
      001028 D0 07            [24] 4392 	pop	ar7
      00102A D0 06            [24] 4393 	pop	ar6
      00102C D0 05            [24] 4394 	pop	ar5
                                   4395 ;	/home/user/contiki/cpu/cc2530edm_aman/usb/usb-arch.c:840: *resp |= USB_READ_NOTIFY;
      00102E                       4396 00102$:
                                   4397 ;	/home/user/contiki/cpu/cc2530edm_aman/usb/usb-arch.c:842: buffer = buffer->next;
      00102E 8D 82            [24] 4398 	mov	dpl,r5
      001030 8E 83            [24] 4399 	mov	dph,r6
      001032 8F F0            [24] 4400 	mov	b,r7
      001034 12r00r00         [24] 4401 	lcall	__gptrget
      001037 FD               [12] 4402 	mov	r5,a
      001038 A3               [24] 4403 	inc	dptr
      001039 12r00r00         [24] 4404 	lcall	__gptrget
      00103C FE               [12] 4405 	mov	r6,a
      00103D A3               [24] 4406 	inc	dptr
      00103E 12r00r00         [24] 4407 	lcall	__gptrget
      001041 FF               [12] 4408 	mov	r7,a
      001042 02r0Fr75         [24] 4409 	ljmp	00104$
      001045                       4410 00106$:
                                   4411 ;	/home/user/contiki/cpu/cc2530edm_aman/usb/usb-arch.c:844: return buffer;
      001045 8D 82            [24] 4412 	mov	dpl,r5
      001047 8E 83            [24] 4413 	mov	dph,r6
      001049 8F F0            [24] 4414 	mov	b,r7
      00104B 15 81            [12] 4415 	dec	sp
      00104D 15 81            [12] 4416 	dec	sp
      00104F 22               [24] 4417 	ret
                                   4418 ;------------------------------------------------------------
                                   4419 ;Allocation info for local variables in function 'fill_buffers'
                                   4420 ;------------------------------------------------------------
                                   4421 ;hw_ep                     Allocated to stack - sp -9
                                   4422 ;len                       Allocated to stack - sp -11
                                   4423 ;short_packet              Allocated to stack - sp -12
                                   4424 ;buffer                    Allocated to stack - sp -6
                                   4425 ;t                         Allocated to stack - sp -1
                                   4426 ;res                       Allocated to registers r4 
                                   4427 ;sloc0                     Allocated to stack - sp -3
                                   4428 ;sloc1                     Allocated to stack - sp +2
                                   4429 ;sloc2                     Allocated to stack - sp +5
                                   4430 ;------------------------------------------------------------
                                   4431 ;	/home/user/contiki/cpu/cc2530edm_aman/usb/usb-arch.c:848: fill_buffers(USBBuffer * buffer, uint8_t hw_ep, unsigned int len,
                                   4432 ;	-----------------------------------------
                                   4433 ;	 function fill_buffers
                                   4434 ;	-----------------------------------------
      001050                       4435 _fill_buffers:
      001050 C0 82            [24] 4436 	push	dpl
      001052 C0 83            [24] 4437 	push	dph
      001054 C0 F0            [24] 4438 	push	b
      001056 E5 81            [12] 4439 	mov	a,sp
      001058 24 04            [12] 4440 	add	a,#0x04
      00105A F5 81            [12] 4441 	mov	sp,a
                                   4442 ;	/home/user/contiki/cpu/cc2530edm_aman/usb/usb-arch.c:852: uint8_t res = 0;
      00105C 7C 00            [12] 4443 	mov	r4,#0x00
                                   4444 ;	/home/user/contiki/cpu/cc2530edm_aman/usb/usb-arch.c:854: do {
      00105E                       4445 00108$:
                                   4446 ;	/home/user/contiki/cpu/cc2530edm_aman/usb/usb-arch.c:855: if(buffer->left < len) {
      00105E C0 04            [24] 4447 	push	ar4
      001060 E5 81            [12] 4448 	mov	a,sp
      001062 24 F9            [12] 4449 	add	a,#0xf9
      001064 F8               [12] 4450 	mov	r0,a
      001065 74 06            [12] 4451 	mov	a,#0x06
      001067 26               [12] 4452 	add	a,@r0
      001068 FA               [12] 4453 	mov	r2,a
      001069 E4               [12] 4454 	clr	a
      00106A 08               [12] 4455 	inc	r0
      00106B 36               [12] 4456 	addc	a,@r0
      00106C FB               [12] 4457 	mov	r3,a
      00106D 08               [12] 4458 	inc	r0
      00106E 86 04            [24] 4459 	mov	ar4,@r0
      001070 8A 82            [24] 4460 	mov	dpl,r2
      001072 8B 83            [24] 4461 	mov	dph,r3
      001074 8C F0            [24] 4462 	mov	b,r4
      001076 12r00r00         [24] 4463 	lcall	__gptrget
      001079 FF               [12] 4464 	mov	r7,a
      00107A A3               [24] 4465 	inc	dptr
      00107B 12r00r00         [24] 4466 	lcall	__gptrget
      00107E FE               [12] 4467 	mov	r6,a
      00107F E5 81            [12] 4468 	mov	a,sp
      001081 24 F4            [12] 4469 	add	a,#0xf4
      001083 F8               [12] 4470 	mov	r0,a
      001084 C3               [12] 4471 	clr	c
      001085 EF               [12] 4472 	mov	a,r7
      001086 96               [12] 4473 	subb	a,@r0
      001087 EE               [12] 4474 	mov	a,r6
      001088 08               [12] 4475 	inc	r0
      001089 96               [12] 4476 	subb	a,@r0
      00108A D0 04            [24] 4477 	pop	ar4
      00108C 50 0E            [24] 4478 	jnc	00102$
                                   4479 ;	/home/user/contiki/cpu/cc2530edm_aman/usb/usb-arch.c:856: t = buffer->left;
      00108E 8F 02            [24] 4480 	mov	ar2,r7
      001090 8E 03            [24] 4481 	mov	ar3,r6
      001092 A8 81            [24] 4482 	mov	r0,sp
      001094 18               [12] 4483 	dec	r0
      001095 A6 02            [24] 4484 	mov	@r0,ar2
      001097 08               [12] 4485 	inc	r0
      001098 A6 03            [24] 4486 	mov	@r0,ar3
      00109A 80 0E            [24] 4487 	sjmp	00103$
      00109C                       4488 00102$:
                                   4489 ;	/home/user/contiki/cpu/cc2530edm_aman/usb/usb-arch.c:858: t = len;
      00109C E5 81            [12] 4490 	mov	a,sp
      00109E 24 F5            [12] 4491 	add	a,#0xf5
      0010A0 F8               [12] 4492 	mov	r0,a
      0010A1 A9 81            [24] 4493 	mov	r1,sp
      0010A3 19               [12] 4494 	dec	r1
      0010A4 E6               [12] 4495 	mov	a,@r0
      0010A5 F7               [12] 4496 	mov	@r1,a
      0010A6 08               [12] 4497 	inc	r0
      0010A7 09               [12] 4498 	inc	r1
      0010A8 E6               [12] 4499 	mov	a,@r0
      0010A9 F7               [12] 4500 	mov	@r1,a
      0010AA                       4501 00103$:
                                   4502 ;	/home/user/contiki/cpu/cc2530edm_aman/usb/usb-arch.c:860: len -= t;
      0010AA C0 04            [24] 4503 	push	ar4
      0010AC E5 81            [12] 4504 	mov	a,sp
      0010AE 24 F4            [12] 4505 	add	a,#0xf4
      0010B0 F8               [12] 4506 	mov	r0,a
      0010B1 A9 81            [24] 4507 	mov	r1,sp
      0010B3 19               [12] 4508 	dec	r1
      0010B4 19               [12] 4509 	dec	r1
      0010B5 E6               [12] 4510 	mov	a,@r0
      0010B6 C3               [12] 4511 	clr	c
      0010B7 97               [12] 4512 	subb	a,@r1
      0010B8 F6               [12] 4513 	mov	@r0,a
      0010B9 08               [12] 4514 	inc	r0
      0010BA E6               [12] 4515 	mov	a,@r0
      0010BB 09               [12] 4516 	inc	r1
      0010BC 97               [12] 4517 	subb	a,@r1
      0010BD F6               [12] 4518 	mov	@r0,a
                                   4519 ;	/home/user/contiki/cpu/cc2530edm_aman/usb/usb-arch.c:861: buffer->left -= t;
      0010BE E5 81            [12] 4520 	mov	a,sp
      0010C0 24 F9            [12] 4521 	add	a,#0xf9
      0010C2 F8               [12] 4522 	mov	r0,a
      0010C3 74 06            [12] 4523 	mov	a,#0x06
      0010C5 26               [12] 4524 	add	a,@r0
      0010C6 FA               [12] 4525 	mov	r2,a
      0010C7 E4               [12] 4526 	clr	a
      0010C8 08               [12] 4527 	inc	r0
      0010C9 36               [12] 4528 	addc	a,@r0
      0010CA FB               [12] 4529 	mov	r3,a
      0010CB 08               [12] 4530 	inc	r0
      0010CC 86 04            [24] 4531 	mov	ar4,@r0
      0010CE 8A 82            [24] 4532 	mov	dpl,r2
      0010D0 8B 83            [24] 4533 	mov	dph,r3
      0010D2 8C F0            [24] 4534 	mov	b,r4
      0010D4 12r00r00         [24] 4535 	lcall	__gptrget
      0010D7 FE               [12] 4536 	mov	r6,a
      0010D8 A3               [24] 4537 	inc	dptr
      0010D9 12r00r00         [24] 4538 	lcall	__gptrget
      0010DC FF               [12] 4539 	mov	r7,a
      0010DD A8 81            [24] 4540 	mov	r0,sp
      0010DF 18               [12] 4541 	dec	r0
      0010E0 18               [12] 4542 	dec	r0
      0010E1 EE               [12] 4543 	mov	a,r6
      0010E2 C3               [12] 4544 	clr	c
      0010E3 96               [12] 4545 	subb	a,@r0
      0010E4 FE               [12] 4546 	mov	r6,a
      0010E5 EF               [12] 4547 	mov	a,r7
      0010E6 08               [12] 4548 	inc	r0
      0010E7 96               [12] 4549 	subb	a,@r0
      0010E8 FF               [12] 4550 	mov	r7,a
      0010E9 8A 82            [24] 4551 	mov	dpl,r2
      0010EB 8B 83            [24] 4552 	mov	dph,r3
      0010ED 8C F0            [24] 4553 	mov	b,r4
      0010EF EE               [12] 4554 	mov	a,r6
      0010F0 12r00r00         [24] 4555 	lcall	__gptrput
      0010F3 A3               [24] 4556 	inc	dptr
      0010F4 EF               [12] 4557 	mov	a,r7
      0010F5 12r00r00         [24] 4558 	lcall	__gptrput
                                   4559 ;	/home/user/contiki/cpu/cc2530edm_aman/usb/usb-arch.c:863: read_hw_buffer(buffer->data, hw_ep, t);
      0010F8 E5 81            [12] 4560 	mov	a,sp
      0010FA 24 F9            [12] 4561 	add	a,#0xf9
      0010FC F8               [12] 4562 	mov	r0,a
      0010FD 74 03            [12] 4563 	mov	a,#0x03
      0010FF 26               [12] 4564 	add	a,@r0
      001100 FD               [12] 4565 	mov	r5,a
      001101 E4               [12] 4566 	clr	a
      001102 08               [12] 4567 	inc	r0
      001103 36               [12] 4568 	addc	a,@r0
      001104 FE               [12] 4569 	mov	r6,a
      001105 08               [12] 4570 	inc	r0
      001106 86 07            [24] 4571 	mov	ar7,@r0
      001108 8D 82            [24] 4572 	mov	dpl,r5
      00110A 8E 83            [24] 4573 	mov	dph,r6
      00110C 8F F0            [24] 4574 	mov	b,r7
      00110E 12r00r00         [24] 4575 	lcall	__gptrget
      001111 FA               [12] 4576 	mov	r2,a
      001112 A3               [24] 4577 	inc	dptr
      001113 12r00r00         [24] 4578 	lcall	__gptrget
      001116 FB               [12] 4579 	mov	r3,a
      001117 A3               [24] 4580 	inc	dptr
      001118 12r00r00         [24] 4581 	lcall	__gptrget
      00111B FC               [12] 4582 	mov	r4,a
      00111C C0 07            [24] 4583 	push	ar7
      00111E C0 06            [24] 4584 	push	ar6
      001120 C0 05            [24] 4585 	push	ar5
      001122 C0 04            [24] 4586 	push	ar4
      001124 E5 81            [12] 4587 	mov	a,sp
      001126 24 FA            [12] 4588 	add	a,#0xfa
      001128 F8               [12] 4589 	mov	r0,a
      001129 E6               [12] 4590 	mov	a,@r0
      00112A C0 E0            [24] 4591 	push	acc
      00112C 08               [12] 4592 	inc	r0
      00112D E6               [12] 4593 	mov	a,@r0
      00112E C0 E0            [24] 4594 	push	acc
      001130 E5 81            [12] 4595 	mov	a,sp
      001132 24 F0            [12] 4596 	add	a,#0xf0
      001134 F8               [12] 4597 	mov	r0,a
      001135 E6               [12] 4598 	mov	a,@r0
      001136 C0 E0            [24] 4599 	push	acc
      001138 8A 82            [24] 4600 	mov	dpl,r2
      00113A 8B 83            [24] 4601 	mov	dph,r3
      00113C 8C F0            [24] 4602 	mov	b,r4
      00113E 12r01r7F         [24] 4603 	lcall	_read_hw_buffer
      001141 15 81            [12] 4604 	dec	sp
      001143 15 81            [12] 4605 	dec	sp
      001145 15 81            [12] 4606 	dec	sp
      001147 D0 04            [24] 4607 	pop	ar4
      001149 D0 05            [24] 4608 	pop	ar5
      00114B D0 06            [24] 4609 	pop	ar6
      00114D D0 07            [24] 4610 	pop	ar7
                                   4611 ;	/home/user/contiki/cpu/cc2530edm_aman/usb/usb-arch.c:865: buffer->data += t;
      00114F 8D 82            [24] 4612 	mov	dpl,r5
      001151 8E 83            [24] 4613 	mov	dph,r6
      001153 8F F0            [24] 4614 	mov	b,r7
      001155 12r00r00         [24] 4615 	lcall	__gptrget
      001158 FA               [12] 4616 	mov	r2,a
      001159 A3               [24] 4617 	inc	dptr
      00115A 12r00r00         [24] 4618 	lcall	__gptrget
      00115D FB               [12] 4619 	mov	r3,a
      00115E A3               [24] 4620 	inc	dptr
      00115F 12r00r00         [24] 4621 	lcall	__gptrget
      001162 FC               [12] 4622 	mov	r4,a
      001163 A8 81            [24] 4623 	mov	r0,sp
      001165 18               [12] 4624 	dec	r0
      001166 18               [12] 4625 	dec	r0
      001167 E6               [12] 4626 	mov	a,@r0
      001168 2A               [12] 4627 	add	a,r2
      001169 FA               [12] 4628 	mov	r2,a
      00116A 08               [12] 4629 	inc	r0
      00116B E6               [12] 4630 	mov	a,@r0
      00116C 3B               [12] 4631 	addc	a,r3
      00116D FB               [12] 4632 	mov	r3,a
      00116E 8D 82            [24] 4633 	mov	dpl,r5
      001170 8E 83            [24] 4634 	mov	dph,r6
      001172 8F F0            [24] 4635 	mov	b,r7
      001174 EA               [12] 4636 	mov	a,r2
      001175 12r00r00         [24] 4637 	lcall	__gptrput
      001178 A3               [24] 4638 	inc	dptr
      001179 EB               [12] 4639 	mov	a,r3
      00117A 12r00r00         [24] 4640 	lcall	__gptrput
      00117D A3               [24] 4641 	inc	dptr
      00117E EC               [12] 4642 	mov	a,r4
      00117F 12r00r00         [24] 4643 	lcall	__gptrput
                                   4644 ;	/home/user/contiki/cpu/cc2530edm_aman/usb/usb-arch.c:867: if(len == 0) {
      001182 D0 04            [24] 4645 	pop	ar4
      001184 E5 81            [12] 4646 	mov	a,sp
      001186 24 F5            [12] 4647 	add	a,#0xf5
      001188 F8               [12] 4648 	mov	r0,a
      001189 E6               [12] 4649 	mov	a,@r0
      00118A 08               [12] 4650 	inc	r0
      00118B 46               [12] 4651 	orl	a,@r0
      00118C 60 5A            [24] 4652 	jz	00110$
                                   4653 ;	/home/user/contiki/cpu/cc2530edm_aman/usb/usb-arch.c:871: buffer->flags &= ~(USB_BUFFER_SUBMITTED | USB_BUFFER_SHORT_PACKET);
      00118E E5 81            [12] 4654 	mov	a,sp
      001190 24 FA            [12] 4655 	add	a,#0xfa
      001192 F8               [12] 4656 	mov	r0,a
      001193 74 08            [12] 4657 	mov	a,#0x08
      001195 26               [12] 4658 	add	a,@r0
      001196 FD               [12] 4659 	mov	r5,a
      001197 E4               [12] 4660 	clr	a
      001198 08               [12] 4661 	inc	r0
      001199 36               [12] 4662 	addc	a,@r0
      00119A FE               [12] 4663 	mov	r6,a
      00119B 08               [12] 4664 	inc	r0
      00119C 86 07            [24] 4665 	mov	ar7,@r0
      00119E 8D 82            [24] 4666 	mov	dpl,r5
      0011A0 8E 83            [24] 4667 	mov	dph,r6
      0011A2 8F F0            [24] 4668 	mov	b,r7
      0011A4 12r00r00         [24] 4669 	lcall	__gptrget
      0011A7 FA               [12] 4670 	mov	r2,a
      0011A8 A3               [24] 4671 	inc	dptr
      0011A9 12r00r00         [24] 4672 	lcall	__gptrget
      0011AC FB               [12] 4673 	mov	r3,a
      0011AD 53 02 EE         [24] 4674 	anl	ar2,#0xEE
      0011B0 8D 82            [24] 4675 	mov	dpl,r5
      0011B2 8E 83            [24] 4676 	mov	dph,r6
      0011B4 8F F0            [24] 4677 	mov	b,r7
      0011B6 EA               [12] 4678 	mov	a,r2
      0011B7 12r00r00         [24] 4679 	lcall	__gptrput
      0011BA A3               [24] 4680 	inc	dptr
      0011BB EB               [12] 4681 	mov	a,r3
      0011BC 12r00r00         [24] 4682 	lcall	__gptrput
                                   4683 ;	/home/user/contiki/cpu/cc2530edm_aman/usb/usb-arch.c:872: if(buffer->flags & USB_BUFFER_NOTIFY) {
      0011BF EA               [12] 4684 	mov	a,r2
      0011C0 30 E3 03         [24] 4685 	jnb	acc.3,00107$
                                   4686 ;	/home/user/contiki/cpu/cc2530edm_aman/usb/usb-arch.c:873: res |= USB_READ_NOTIFY;
      0011C3 43 04 02         [24] 4687 	orl	ar4,#0x02
      0011C6                       4688 00107$:
                                   4689 ;	/home/user/contiki/cpu/cc2530edm_aman/usb/usb-arch.c:875: buffer = buffer->next;
      0011C6 E5 81            [12] 4690 	mov	a,sp
      0011C8 24 FA            [12] 4691 	add	a,#0xfa
      0011CA F8               [12] 4692 	mov	r0,a
      0011CB 86 82            [24] 4693 	mov	dpl,@r0
      0011CD 08               [12] 4694 	inc	r0
      0011CE 86 83            [24] 4695 	mov	dph,@r0
      0011D0 08               [12] 4696 	inc	r0
      0011D1 86 F0            [24] 4697 	mov	b,@r0
      0011D3 12r00r00         [24] 4698 	lcall	__gptrget
      0011D6 18               [12] 4699 	dec	r0
      0011D7 18               [12] 4700 	dec	r0
      0011D8 F6               [12] 4701 	mov	@r0,a
      0011D9 A3               [24] 4702 	inc	dptr
      0011DA 12r00r00         [24] 4703 	lcall	__gptrget
      0011DD 08               [12] 4704 	inc	r0
      0011DE F6               [12] 4705 	mov	@r0,a
      0011DF A3               [24] 4706 	inc	dptr
      0011E0 12r00r00         [24] 4707 	lcall	__gptrget
      0011E3 08               [12] 4708 	inc	r0
      0011E4 F6               [12] 4709 	mov	@r0,a
                                   4710 ;	/home/user/contiki/cpu/cc2530edm_aman/usb/usb-arch.c:876: } while(1);
      0011E5 02r10r5E         [24] 4711 	ljmp	00108$
      0011E8                       4712 00110$:
                                   4713 ;	/home/user/contiki/cpu/cc2530edm_aman/usb/usb-arch.c:878: if(short_packet) {
      0011E8 E5 81            [12] 4714 	mov	a,sp
      0011EA 24 F4            [12] 4715 	add	a,#0xf4
      0011EC F8               [12] 4716 	mov	r0,a
      0011ED E6               [12] 4717 	mov	a,@r0
      0011EE 60 31            [24] 4718 	jz	00112$
                                   4719 ;	/home/user/contiki/cpu/cc2530edm_aman/usb/usb-arch.c:879: buffer->flags |= USB_BUFFER_SHORT_PACKET;
      0011F0 E5 81            [12] 4720 	mov	a,sp
      0011F2 24 FA            [12] 4721 	add	a,#0xfa
      0011F4 F8               [12] 4722 	mov	r0,a
      0011F5 74 08            [12] 4723 	mov	a,#0x08
      0011F7 26               [12] 4724 	add	a,@r0
      0011F8 FD               [12] 4725 	mov	r5,a
      0011F9 E4               [12] 4726 	clr	a
      0011FA 08               [12] 4727 	inc	r0
      0011FB 36               [12] 4728 	addc	a,@r0
      0011FC FE               [12] 4729 	mov	r6,a
      0011FD 08               [12] 4730 	inc	r0
      0011FE 86 07            [24] 4731 	mov	ar7,@r0
      001200 8D 82            [24] 4732 	mov	dpl,r5
      001202 8E 83            [24] 4733 	mov	dph,r6
      001204 8F F0            [24] 4734 	mov	b,r7
      001206 12r00r00         [24] 4735 	lcall	__gptrget
      001209 FA               [12] 4736 	mov	r2,a
      00120A A3               [24] 4737 	inc	dptr
      00120B 12r00r00         [24] 4738 	lcall	__gptrget
      00120E FB               [12] 4739 	mov	r3,a
      00120F 43 02 10         [24] 4740 	orl	ar2,#0x10
      001212 8D 82            [24] 4741 	mov	dpl,r5
      001214 8E 83            [24] 4742 	mov	dph,r6
      001216 8F F0            [24] 4743 	mov	b,r7
      001218 EA               [12] 4744 	mov	a,r2
      001219 12r00r00         [24] 4745 	lcall	__gptrput
      00121C A3               [24] 4746 	inc	dptr
      00121D EB               [12] 4747 	mov	a,r3
      00121E 12r00r00         [24] 4748 	lcall	__gptrput
      001221                       4749 00112$:
                                   4750 ;	/home/user/contiki/cpu/cc2530edm_aman/usb/usb-arch.c:882: if((buffer->left == 0) || (buffer->flags & USB_BUFFER_PACKET_END)) {
      001221 E5 81            [12] 4751 	mov	a,sp
      001223 24 FA            [12] 4752 	add	a,#0xfa
      001225 F8               [12] 4753 	mov	r0,a
      001226 74 06            [12] 4754 	mov	a,#0x06
      001228 26               [12] 4755 	add	a,@r0
      001229 FD               [12] 4756 	mov	r5,a
      00122A E4               [12] 4757 	clr	a
      00122B 08               [12] 4758 	inc	r0
      00122C 36               [12] 4759 	addc	a,@r0
      00122D FE               [12] 4760 	mov	r6,a
      00122E 08               [12] 4761 	inc	r0
      00122F 86 07            [24] 4762 	mov	ar7,@r0
      001231 8D 82            [24] 4763 	mov	dpl,r5
      001233 8E 83            [24] 4764 	mov	dph,r6
      001235 8F F0            [24] 4765 	mov	b,r7
      001237 12r00r00         [24] 4766 	lcall	__gptrget
      00123A FE               [12] 4767 	mov	r6,a
      00123B A3               [24] 4768 	inc	dptr
      00123C 12r00r00         [24] 4769 	lcall	__gptrget
      00123F FF               [12] 4770 	mov	r7,a
      001240 4E               [12] 4771 	orl	a,r6
      001241 60 2E            [24] 4772 	jz	00122$
      001243 E5 81            [12] 4773 	mov	a,sp
      001245 24 FA            [12] 4774 	add	a,#0xfa
      001247 F8               [12] 4775 	mov	r0,a
      001248 74 08            [12] 4776 	mov	a,#0x08
      00124A 26               [12] 4777 	add	a,@r0
      00124B FA               [12] 4778 	mov	r2,a
      00124C E4               [12] 4779 	clr	a
      00124D 08               [12] 4780 	inc	r0
      00124E 36               [12] 4781 	addc	a,@r0
      00124F FB               [12] 4782 	mov	r3,a
      001250 08               [12] 4783 	inc	r0
      001251 86 05            [24] 4784 	mov	ar5,@r0
      001253 8A 82            [24] 4785 	mov	dpl,r2
      001255 8B 83            [24] 4786 	mov	dph,r3
      001257 8D F0            [24] 4787 	mov	b,r5
      001259 E5 81            [12] 4788 	mov	a,sp
      00125B 24 FD            [12] 4789 	add	a,#0xfd
      00125D F8               [12] 4790 	mov	r0,a
      00125E 12r00r00         [24] 4791 	lcall	__gptrget
      001261 F6               [12] 4792 	mov	@r0,a
      001262 A3               [24] 4793 	inc	dptr
      001263 12r00r00         [24] 4794 	lcall	__gptrget
      001266 08               [12] 4795 	inc	r0
      001267 F6               [12] 4796 	mov	@r0,a
      001268 E5 81            [12] 4797 	mov	a,sp
      00126A 24 FD            [12] 4798 	add	a,#0xfd
      00126C F8               [12] 4799 	mov	r0,a
      00126D E6               [12] 4800 	mov	a,@r0
      00126E 30 E2 5E         [24] 4801 	jnb	acc.2,00123$
      001271                       4802 00122$:
                                   4803 ;	/home/user/contiki/cpu/cc2530edm_aman/usb/usb-arch.c:883: buffer->flags &= ~USB_BUFFER_SUBMITTED;
      001271 C0 04            [24] 4804 	push	ar4
      001273 E5 81            [12] 4805 	mov	a,sp
      001275 24 F9            [12] 4806 	add	a,#0xf9
      001277 F8               [12] 4807 	mov	r0,a
      001278 74 08            [12] 4808 	mov	a,#0x08
      00127A 26               [12] 4809 	add	a,@r0
      00127B FF               [12] 4810 	mov	r7,a
      00127C E4               [12] 4811 	clr	a
      00127D 08               [12] 4812 	inc	r0
      00127E 36               [12] 4813 	addc	a,@r0
      00127F FE               [12] 4814 	mov	r6,a
      001280 08               [12] 4815 	inc	r0
      001281 86 05            [24] 4816 	mov	ar5,@r0
      001283 8F 82            [24] 4817 	mov	dpl,r7
      001285 8E 83            [24] 4818 	mov	dph,r6
      001287 8D F0            [24] 4819 	mov	b,r5
      001289 12r00r00         [24] 4820 	lcall	__gptrget
      00128C FB               [12] 4821 	mov	r3,a
      00128D A3               [24] 4822 	inc	dptr
      00128E 12r00r00         [24] 4823 	lcall	__gptrget
      001291 FA               [12] 4824 	mov	r2,a
      001292 53 03 FE         [24] 4825 	anl	ar3,#0xFE
      001295 8F 82            [24] 4826 	mov	dpl,r7
      001297 8E 83            [24] 4827 	mov	dph,r6
      001299 8D F0            [24] 4828 	mov	b,r5
      00129B EB               [12] 4829 	mov	a,r3
      00129C 12r00r00         [24] 4830 	lcall	__gptrput
      00129F A3               [24] 4831 	inc	dptr
      0012A0 EA               [12] 4832 	mov	a,r2
      0012A1 12r00r00         [24] 4833 	lcall	__gptrput
                                   4834 ;	/home/user/contiki/cpu/cc2530edm_aman/usb/usb-arch.c:884: if(buffer->flags & USB_BUFFER_NOTIFY) {
      0012A4 EB               [12] 4835 	mov	a,r3
      0012A5 D0 04            [24] 4836 	pop	ar4
      0012A7 30 E3 03         [24] 4837 	jnb	acc.3,00114$
                                   4838 ;	/home/user/contiki/cpu/cc2530edm_aman/usb/usb-arch.c:885: res |= USB_READ_NOTIFY;
      0012AA 43 04 02         [24] 4839 	orl	ar4,#0x02
      0012AD                       4840 00114$:
                                   4841 ;	/home/user/contiki/cpu/cc2530edm_aman/usb/usb-arch.c:887: buffer = buffer->next;
      0012AD E5 81            [12] 4842 	mov	a,sp
      0012AF 24 FA            [12] 4843 	add	a,#0xfa
      0012B1 F8               [12] 4844 	mov	r0,a
      0012B2 86 82            [24] 4845 	mov	dpl,@r0
      0012B4 08               [12] 4846 	inc	r0
      0012B5 86 83            [24] 4847 	mov	dph,@r0
      0012B7 08               [12] 4848 	inc	r0
      0012B8 86 F0            [24] 4849 	mov	b,@r0
      0012BA 12r00r00         [24] 4850 	lcall	__gptrget
      0012BD 18               [12] 4851 	dec	r0
      0012BE 18               [12] 4852 	dec	r0
      0012BF F6               [12] 4853 	mov	@r0,a
      0012C0 A3               [24] 4854 	inc	dptr
      0012C1 12r00r00         [24] 4855 	lcall	__gptrget
      0012C4 08               [12] 4856 	inc	r0
      0012C5 F6               [12] 4857 	mov	@r0,a
      0012C6 A3               [24] 4858 	inc	dptr
      0012C7 12r00r00         [24] 4859 	lcall	__gptrget
      0012CA 08               [12] 4860 	inc	r0
      0012CB F6               [12] 4861 	mov	@r0,a
      0012CC 02r13r49         [24] 4862 	ljmp	00124$
      0012CF                       4863 00123$:
                                   4864 ;	/home/user/contiki/cpu/cc2530edm_aman/usb/usb-arch.c:889: if(short_packet) {
      0012CF E5 81            [12] 4865 	mov	a,sp
      0012D1 24 F4            [12] 4866 	add	a,#0xf4
      0012D3 F8               [12] 4867 	mov	r0,a
      0012D4 E6               [12] 4868 	mov	a,@r0
      0012D5 60 72            [24] 4869 	jz	00124$
                                   4870 ;	/home/user/contiki/cpu/cc2530edm_aman/usb/usb-arch.c:890: if(buffer->left && !(buffer->flags & USB_BUFFER_SHORT_END)) {
      0012D7 EE               [12] 4871 	mov	a,r6
      0012D8 4F               [12] 4872 	orl	a,r7
      0012D9 60 27            [24] 4873 	jz	00116$
      0012DB E5 81            [12] 4874 	mov	a,sp
      0012DD 24 FD            [12] 4875 	add	a,#0xfd
      0012DF F8               [12] 4876 	mov	r0,a
      0012E0 E6               [12] 4877 	mov	a,@r0
      0012E1 20 E1 1E         [24] 4878 	jb	acc.1,00116$
                                   4879 ;	/home/user/contiki/cpu/cc2530edm_aman/usb/usb-arch.c:891: buffer->flags |= USB_BUFFER_FAILED;
      0012E4 E5 81            [12] 4880 	mov	a,sp
      0012E6 24 FD            [12] 4881 	add	a,#0xfd
      0012E8 F8               [12] 4882 	mov	r0,a
      0012E9 74 80            [12] 4883 	mov	a,#0x80
      0012EB 46               [12] 4884 	orl	a,@r0
      0012EC FE               [12] 4885 	mov	r6,a
      0012ED 08               [12] 4886 	inc	r0
      0012EE 86 07            [24] 4887 	mov	ar7,@r0
      0012F0 8A 82            [24] 4888 	mov	dpl,r2
      0012F2 8B 83            [24] 4889 	mov	dph,r3
      0012F4 8D F0            [24] 4890 	mov	b,r5
      0012F6 EE               [12] 4891 	mov	a,r6
      0012F7 12r00r00         [24] 4892 	lcall	__gptrput
      0012FA A3               [24] 4893 	inc	dptr
      0012FB EF               [12] 4894 	mov	a,r7
      0012FC 12r00r00         [24] 4895 	lcall	__gptrput
                                   4896 ;	/home/user/contiki/cpu/cc2530edm_aman/usb/usb-arch.c:892: res |= USB_READ_FAIL;
      0012FF 43 04 04         [24] 4897 	orl	ar4,#0x04
      001302                       4898 00116$:
                                   4899 ;	/home/user/contiki/cpu/cc2530edm_aman/usb/usb-arch.c:894: buffer->flags &= ~USB_BUFFER_SUBMITTED;
      001302 8A 82            [24] 4900 	mov	dpl,r2
      001304 8B 83            [24] 4901 	mov	dph,r3
      001306 8D F0            [24] 4902 	mov	b,r5
      001308 12r00r00         [24] 4903 	lcall	__gptrget
      00130B FE               [12] 4904 	mov	r6,a
      00130C A3               [24] 4905 	inc	dptr
      00130D 12r00r00         [24] 4906 	lcall	__gptrget
      001310 FF               [12] 4907 	mov	r7,a
      001311 53 06 FE         [24] 4908 	anl	ar6,#0xFE
      001314 8A 82            [24] 4909 	mov	dpl,r2
      001316 8B 83            [24] 4910 	mov	dph,r3
      001318 8D F0            [24] 4911 	mov	b,r5
      00131A EE               [12] 4912 	mov	a,r6
      00131B 12r00r00         [24] 4913 	lcall	__gptrput
      00131E A3               [24] 4914 	inc	dptr
      00131F EF               [12] 4915 	mov	a,r7
      001320 12r00r00         [24] 4916 	lcall	__gptrput
                                   4917 ;	/home/user/contiki/cpu/cc2530edm_aman/usb/usb-arch.c:895: if(buffer->flags & USB_BUFFER_NOTIFY) {
      001323 EE               [12] 4918 	mov	a,r6
      001324 30 E3 03         [24] 4919 	jnb	acc.3,00119$
                                   4920 ;	/home/user/contiki/cpu/cc2530edm_aman/usb/usb-arch.c:896: res |= USB_READ_NOTIFY;
      001327 43 04 02         [24] 4921 	orl	ar4,#0x02
      00132A                       4922 00119$:
                                   4923 ;	/home/user/contiki/cpu/cc2530edm_aman/usb/usb-arch.c:898: buffer = buffer->next;
      00132A E5 81            [12] 4924 	mov	a,sp
      00132C 24 FA            [12] 4925 	add	a,#0xfa
      00132E F8               [12] 4926 	mov	r0,a
      00132F 86 82            [24] 4927 	mov	dpl,@r0
      001331 08               [12] 4928 	inc	r0
      001332 86 83            [24] 4929 	mov	dph,@r0
      001334 08               [12] 4930 	inc	r0
      001335 86 F0            [24] 4931 	mov	b,@r0
      001337 12r00r00         [24] 4932 	lcall	__gptrget
      00133A 18               [12] 4933 	dec	r0
      00133B 18               [12] 4934 	dec	r0
      00133C F6               [12] 4935 	mov	@r0,a
      00133D A3               [24] 4936 	inc	dptr
      00133E 12r00r00         [24] 4937 	lcall	__gptrget
      001341 08               [12] 4938 	inc	r0
      001342 F6               [12] 4939 	mov	@r0,a
      001343 A3               [24] 4940 	inc	dptr
      001344 12r00r00         [24] 4941 	lcall	__gptrget
      001347 08               [12] 4942 	inc	r0
      001348 F6               [12] 4943 	mov	@r0,a
      001349                       4944 00124$:
                                   4945 ;	/home/user/contiki/cpu/cc2530edm_aman/usb/usb-arch.c:902: usb_endpoints[hw_ep].buffer = buffer;
      001349 E5 81            [12] 4946 	mov	a,sp
      00134B 24 F7            [12] 4947 	add	a,#0xf7
      00134D F8               [12] 4948 	mov	r0,a
      00134E E6               [12] 4949 	mov	a,@r0
      00134F 75 F0 0D         [24] 4950 	mov	b,#0x0D
      001352 A4               [48] 4951 	mul	ab
      001353 24r01            [12] 4952 	add	a,#_usb_endpoints
      001355 FE               [12] 4953 	mov	r6,a
      001356 74s00            [12] 4954 	mov	a,#(_usb_endpoints >> 8)
      001358 35 F0            [12] 4955 	addc	a,b
      00135A FF               [12] 4956 	mov	r7,a
      00135B 8E 82            [24] 4957 	mov	dpl,r6
      00135D 8F 83            [24] 4958 	mov	dph,r7
      00135F A3               [24] 4959 	inc	dptr
      001360 A3               [24] 4960 	inc	dptr
      001361 A3               [24] 4961 	inc	dptr
      001362 E5 81            [12] 4962 	mov	a,sp
      001364 24 FA            [12] 4963 	add	a,#0xfa
      001366 F8               [12] 4964 	mov	r0,a
      001367 E6               [12] 4965 	mov	a,@r0
      001368 F0               [24] 4966 	movx	@dptr,a
      001369 08               [12] 4967 	inc	r0
      00136A E6               [12] 4968 	mov	a,@r0
      00136B A3               [24] 4969 	inc	dptr
      00136C F0               [24] 4970 	movx	@dptr,a
      00136D 08               [12] 4971 	inc	r0
      00136E E6               [12] 4972 	mov	a,@r0
      00136F A3               [24] 4973 	inc	dptr
      001370 F0               [24] 4974 	movx	@dptr,a
                                   4975 ;	/home/user/contiki/cpu/cc2530edm_aman/usb/usb-arch.c:904: return res;
      001371 8C 82            [24] 4976 	mov	dpl,r4
      001373 E5 81            [12] 4977 	mov	a,sp
      001375 24 F9            [12] 4978 	add	a,#0xF9
      001377 F5 81            [12] 4979 	mov	sp,a
      001379 22               [24] 4980 	ret
                                   4981 ;------------------------------------------------------------
                                   4982 ;Allocation info for local variables in function 'ep0_get_setup_pkt'
                                   4983 ;------------------------------------------------------------
                                   4984 ;res                       Allocated to stack - sp -3
                                   4985 ;buffer                    Allocated to stack - sp -2
                                   4986 ;sloc0                     Allocated to stack - sp -6
                                   4987 ;------------------------------------------------------------
                                   4988 ;	/home/user/contiki/cpu/cc2530edm_aman/usb/usb-arch.c:909: ep0_get_setup_pkt(void)
                                   4989 ;	-----------------------------------------
                                   4990 ;	 function ep0_get_setup_pkt
                                   4991 ;	-----------------------------------------
      00137A                       4992 _ep0_get_setup_pkt:
      00137A E5 81            [12] 4993 	mov	a,sp
      00137C 24 07            [12] 4994 	add	a,#0x07
                                   4995 ;	/home/user/contiki/cpu/cc2530edm_aman/usb/usb-arch.c:914: USBBuffer *buffer =
      00137E F5 81            [12] 4996 	mov	sp,a
      001380 24 FD            [12] 4997 	add	a,#0xFD
      001382 FF               [12] 4998 	mov	r7,a
      001383 7E 00            [12] 4999 	mov	r6,#0x00
      001385 7D 40            [12] 5000 	mov	r5,#0x40
      001387 90r00r04         [24] 5001 	mov	dptr,#(_usb_endpoints + 0x0003)
      00138A E0               [24] 5002 	movx	a,@dptr
      00138B FA               [12] 5003 	mov	r2,a
      00138C A3               [24] 5004 	inc	dptr
      00138D E0               [24] 5005 	movx	a,@dptr
      00138E FB               [12] 5006 	mov	r3,a
      00138F A3               [24] 5007 	inc	dptr
      001390 E0               [24] 5008 	movx	a,@dptr
      001391 FC               [12] 5009 	mov	r4,a
      001392 C0 07            [24] 5010 	push	ar7
      001394 C0 06            [24] 5011 	push	ar6
      001396 C0 05            [24] 5012 	push	ar5
      001398 74 20            [12] 5013 	mov	a,#0x20
      00139A C0 E0            [24] 5014 	push	acc
      00139C E4               [12] 5015 	clr	a
      00139D C0 E0            [24] 5016 	push	acc
      00139F 74 20            [12] 5017 	mov	a,#0x20
      0013A1 C0 E0            [24] 5018 	push	acc
      0013A3 E4               [12] 5019 	clr	a
      0013A4 C0 E0            [24] 5020 	push	acc
      0013A6 8A 82            [24] 5021 	mov	dpl,r2
      0013A8 8B 83            [24] 5022 	mov	dph,r3
      0013AA 8C F0            [24] 5023 	mov	b,r4
      0013AC 12r0Fr6B         [24] 5024 	lcall	_skip_buffers_until
      0013AF AD 82            [24] 5025 	mov	r5,dpl
      0013B1 AE 83            [24] 5026 	mov	r6,dph
      0013B3 AF F0            [24] 5027 	mov	r7,b
      0013B5 E5 81            [12] 5028 	mov	a,sp
      0013B7 24 F9            [12] 5029 	add	a,#0xf9
      0013B9 F5 81            [12] 5030 	mov	sp,a
      0013BB A8 81            [24] 5031 	mov	r0,sp
      0013BD 18               [12] 5032 	dec	r0
      0013BE 18               [12] 5033 	dec	r0
      0013BF A6 05            [24] 5034 	mov	@r0,ar5
      0013C1 08               [12] 5035 	inc	r0
      0013C2 A6 06            [24] 5036 	mov	@r0,ar6
      0013C4 08               [12] 5037 	inc	r0
      0013C5 A6 07            [24] 5038 	mov	@r0,ar7
                                   5039 ;	/home/user/contiki/cpu/cc2530edm_aman/usb/usb-arch.c:918: usb_endpoints[0].buffer = buffer;
      0013C7 90r00r04         [24] 5040 	mov	dptr,#(_usb_endpoints + 0x0003)
      0013CA A8 81            [24] 5041 	mov	r0,sp
      0013CC 18               [12] 5042 	dec	r0
      0013CD 18               [12] 5043 	dec	r0
      0013CE E6               [12] 5044 	mov	a,@r0
      0013CF F0               [24] 5045 	movx	@dptr,a
      0013D0 08               [12] 5046 	inc	r0
      0013D1 E6               [12] 5047 	mov	a,@r0
      0013D2 A3               [24] 5048 	inc	dptr
      0013D3 F0               [24] 5049 	movx	@dptr,a
      0013D4 08               [12] 5050 	inc	r0
      0013D5 E6               [12] 5051 	mov	a,@r0
      0013D6 A3               [24] 5052 	inc	dptr
      0013D7 F0               [24] 5053 	movx	@dptr,a
                                   5054 ;	/home/user/contiki/cpu/cc2530edm_aman/usb/usb-arch.c:920: if(!buffer || buffer->left < 8) {
      0013D8 A8 81            [24] 5055 	mov	r0,sp
      0013DA 18               [12] 5056 	dec	r0
      0013DB 18               [12] 5057 	dec	r0
      0013DC E6               [12] 5058 	mov	a,@r0
      0013DD 08               [12] 5059 	inc	r0
      0013DE 46               [12] 5060 	orl	a,@r0
      0013DF 60 27            [24] 5061 	jz	00101$
      0013E1 A8 81            [24] 5062 	mov	r0,sp
      0013E3 18               [12] 5063 	dec	r0
      0013E4 18               [12] 5064 	dec	r0
      0013E5 74 06            [12] 5065 	mov	a,#0x06
      0013E7 26               [12] 5066 	add	a,@r0
      0013E8 FA               [12] 5067 	mov	r2,a
      0013E9 E4               [12] 5068 	clr	a
      0013EA 08               [12] 5069 	inc	r0
      0013EB 36               [12] 5070 	addc	a,@r0
      0013EC FB               [12] 5071 	mov	r3,a
      0013ED 08               [12] 5072 	inc	r0
      0013EE 86 04            [24] 5073 	mov	ar4,@r0
      0013F0 8A 82            [24] 5074 	mov	dpl,r2
      0013F2 8B 83            [24] 5075 	mov	dph,r3
      0013F4 8C F0            [24] 5076 	mov	b,r4
      0013F6 12r00r00         [24] 5077 	lcall	__gptrget
      0013F9 FE               [12] 5078 	mov	r6,a
      0013FA A3               [24] 5079 	inc	dptr
      0013FB 12r00r00         [24] 5080 	lcall	__gptrget
      0013FE FF               [12] 5081 	mov	r7,a
      0013FF C3               [12] 5082 	clr	c
      001400 EE               [12] 5083 	mov	a,r6
      001401 94 08            [12] 5084 	subb	a,#0x08
      001403 EF               [12] 5085 	mov	a,r7
      001404 94 00            [12] 5086 	subb	a,#0x00
      001406 50 06            [24] 5087 	jnc	00102$
      001408                       5088 00101$:
                                   5089 ;	/home/user/contiki/cpu/cc2530edm_aman/usb/usb-arch.c:921: return USB_READ_BLOCK;
      001408 75 82 01         [24] 5090 	mov	dpl,#0x01
      00140B 02r15rAB         [24] 5091 	ljmp	00109$
      00140E                       5092 00102$:
                                   5093 ;	/home/user/contiki/cpu/cc2530edm_aman/usb/usb-arch.c:924: read_hw_buffer(buffer->data, 0, 8);
      00140E A8 81            [24] 5094 	mov	r0,sp
      001410 18               [12] 5095 	dec	r0
      001411 18               [12] 5096 	dec	r0
      001412 E5 81            [12] 5097 	mov	a,sp
      001414 24 FA            [12] 5098 	add	a,#0xfa
      001416 F9               [12] 5099 	mov	r1,a
      001417 74 03            [12] 5100 	mov	a,#0x03
      001419 26               [12] 5101 	add	a,@r0
      00141A F7               [12] 5102 	mov	@r1,a
      00141B E4               [12] 5103 	clr	a
      00141C 08               [12] 5104 	inc	r0
      00141D 36               [12] 5105 	addc	a,@r0
      00141E 09               [12] 5106 	inc	r1
      00141F F7               [12] 5107 	mov	@r1,a
      001420 08               [12] 5108 	inc	r0
      001421 09               [12] 5109 	inc	r1
      001422 E6               [12] 5110 	mov	a,@r0
      001423 F7               [12] 5111 	mov	@r1,a
      001424 E5 81            [12] 5112 	mov	a,sp
      001426 24 FA            [12] 5113 	add	a,#0xfa
      001428 F8               [12] 5114 	mov	r0,a
      001429 86 82            [24] 5115 	mov	dpl,@r0
      00142B 08               [12] 5116 	inc	r0
      00142C 86 83            [24] 5117 	mov	dph,@r0
      00142E 08               [12] 5118 	inc	r0
      00142F 86 F0            [24] 5119 	mov	b,@r0
      001431 12r00r00         [24] 5120 	lcall	__gptrget
      001434 FD               [12] 5121 	mov	r5,a
      001435 A3               [24] 5122 	inc	dptr
      001436 12r00r00         [24] 5123 	lcall	__gptrget
      001439 FE               [12] 5124 	mov	r6,a
      00143A A3               [24] 5125 	inc	dptr
      00143B 12r00r00         [24] 5126 	lcall	__gptrget
      00143E FF               [12] 5127 	mov	r7,a
      00143F C0 04            [24] 5128 	push	ar4
      001441 C0 03            [24] 5129 	push	ar3
      001443 C0 02            [24] 5130 	push	ar2
      001445 74 08            [12] 5131 	mov	a,#0x08
      001447 C0 E0            [24] 5132 	push	acc
      001449 E4               [12] 5133 	clr	a
      00144A C0 E0            [24] 5134 	push	acc
      00144C E4               [12] 5135 	clr	a
      00144D C0 E0            [24] 5136 	push	acc
      00144F 8D 82            [24] 5137 	mov	dpl,r5
      001451 8E 83            [24] 5138 	mov	dph,r6
      001453 8F F0            [24] 5139 	mov	b,r7
      001455 12r01r7F         [24] 5140 	lcall	_read_hw_buffer
      001458 15 81            [12] 5141 	dec	sp
      00145A 15 81            [12] 5142 	dec	sp
      00145C 15 81            [12] 5143 	dec	sp
      00145E D0 02            [24] 5144 	pop	ar2
      001460 D0 03            [24] 5145 	pop	ar3
      001462 D0 04            [24] 5146 	pop	ar4
                                   5147 ;	/home/user/contiki/cpu/cc2530edm_aman/usb/usb-arch.c:925: buffer->left -= 8;
      001464 8A 82            [24] 5148 	mov	dpl,r2
      001466 8B 83            [24] 5149 	mov	dph,r3
      001468 8C F0            [24] 5150 	mov	b,r4
      00146A 12r00r00         [24] 5151 	lcall	__gptrget
      00146D FE               [12] 5152 	mov	r6,a
      00146E A3               [24] 5153 	inc	dptr
      00146F 12r00r00         [24] 5154 	lcall	__gptrget
      001472 FF               [12] 5155 	mov	r7,a
      001473 EE               [12] 5156 	mov	a,r6
      001474 24 F8            [12] 5157 	add	a,#0xF8
      001476 FE               [12] 5158 	mov	r6,a
      001477 EF               [12] 5159 	mov	a,r7
      001478 34 FF            [12] 5160 	addc	a,#0xFF
      00147A FF               [12] 5161 	mov	r7,a
      00147B 8A 82            [24] 5162 	mov	dpl,r2
      00147D 8B 83            [24] 5163 	mov	dph,r3
      00147F 8C F0            [24] 5164 	mov	b,r4
      001481 EE               [12] 5165 	mov	a,r6
      001482 12r00r00         [24] 5166 	lcall	__gptrput
      001485 A3               [24] 5167 	inc	dptr
      001486 EF               [12] 5168 	mov	a,r7
      001487 12r00r00         [24] 5169 	lcall	__gptrput
                                   5170 ;	/home/user/contiki/cpu/cc2530edm_aman/usb/usb-arch.c:927: buffer->flags &= ~USB_BUFFER_SUBMITTED;
      00148A A8 81            [24] 5171 	mov	r0,sp
      00148C 18               [12] 5172 	dec	r0
      00148D 18               [12] 5173 	dec	r0
      00148E 74 08            [12] 5174 	mov	a,#0x08
      001490 26               [12] 5175 	add	a,@r0
      001491 FD               [12] 5176 	mov	r5,a
      001492 E4               [12] 5177 	clr	a
      001493 08               [12] 5178 	inc	r0
      001494 36               [12] 5179 	addc	a,@r0
      001495 FE               [12] 5180 	mov	r6,a
      001496 08               [12] 5181 	inc	r0
      001497 86 07            [24] 5182 	mov	ar7,@r0
      001499 8D 82            [24] 5183 	mov	dpl,r5
      00149B 8E 83            [24] 5184 	mov	dph,r6
      00149D 8F F0            [24] 5185 	mov	b,r7
      00149F 12r00r00         [24] 5186 	lcall	__gptrget
      0014A2 FB               [12] 5187 	mov	r3,a
      0014A3 A3               [24] 5188 	inc	dptr
      0014A4 12r00r00         [24] 5189 	lcall	__gptrget
      0014A7 FC               [12] 5190 	mov	r4,a
      0014A8 53 03 FE         [24] 5191 	anl	ar3,#0xFE
      0014AB 8D 82            [24] 5192 	mov	dpl,r5
      0014AD 8E 83            [24] 5193 	mov	dph,r6
      0014AF 8F F0            [24] 5194 	mov	b,r7
      0014B1 EB               [12] 5195 	mov	a,r3
      0014B2 12r00r00         [24] 5196 	lcall	__gptrput
      0014B5 A3               [24] 5197 	inc	dptr
      0014B6 EC               [12] 5198 	mov	a,r4
      0014B7 12r00r00         [24] 5199 	lcall	__gptrput
                                   5200 ;	/home/user/contiki/cpu/cc2530edm_aman/usb/usb-arch.c:928: if(buffer->flags & USB_BUFFER_NOTIFY) {
      0014BA EB               [12] 5201 	mov	a,r3
      0014BB 30 E3 09         [24] 5202 	jnb	acc.3,00105$
                                   5203 ;	/home/user/contiki/cpu/cc2530edm_aman/usb/usb-arch.c:929: res |= USB_READ_NOTIFY;
      0014BE E5 81            [12] 5204 	mov	a,sp
      0014C0 24 FD            [12] 5205 	add	a,#0xfd
      0014C2 F8               [12] 5206 	mov	r0,a
      0014C3 E6               [12] 5207 	mov	a,@r0
      0014C4 44 02            [12] 5208 	orl	a,#0x02
      0014C6 F6               [12] 5209 	mov	@r0,a
      0014C7                       5210 00105$:
                                   5211 ;	/home/user/contiki/cpu/cc2530edm_aman/usb/usb-arch.c:932: if(buffer->data[6] || buffer->data[7]) {
      0014C7 E5 81            [12] 5212 	mov	a,sp
      0014C9 24 FA            [12] 5213 	add	a,#0xfa
      0014CB F8               [12] 5214 	mov	r0,a
      0014CC 86 82            [24] 5215 	mov	dpl,@r0
      0014CE 08               [12] 5216 	inc	r0
      0014CF 86 83            [24] 5217 	mov	dph,@r0
      0014D1 08               [12] 5218 	inc	r0
      0014D2 86 F0            [24] 5219 	mov	b,@r0
      0014D4 12r00r00         [24] 5220 	lcall	__gptrget
      0014D7 FD               [12] 5221 	mov	r5,a
      0014D8 A3               [24] 5222 	inc	dptr
      0014D9 12r00r00         [24] 5223 	lcall	__gptrget
      0014DC FE               [12] 5224 	mov	r6,a
      0014DD A3               [24] 5225 	inc	dptr
      0014DE 12r00r00         [24] 5226 	lcall	__gptrget
      0014E1 FF               [12] 5227 	mov	r7,a
      0014E2 74 06            [12] 5228 	mov	a,#0x06
      0014E4 2D               [12] 5229 	add	a,r5
      0014E5 FA               [12] 5230 	mov	r2,a
      0014E6 E4               [12] 5231 	clr	a
      0014E7 3E               [12] 5232 	addc	a,r6
      0014E8 FB               [12] 5233 	mov	r3,a
      0014E9 8F 04            [24] 5234 	mov	ar4,r7
      0014EB 8A 82            [24] 5235 	mov	dpl,r2
      0014ED 8B 83            [24] 5236 	mov	dph,r3
      0014EF 8C F0            [24] 5237 	mov	b,r4
      0014F1 12r00r00         [24] 5238 	lcall	__gptrget
      0014F4 70 12            [24] 5239 	jnz	00106$
      0014F6 74 07            [12] 5240 	mov	a,#0x07
      0014F8 2D               [12] 5241 	add	a,r5
      0014F9 FD               [12] 5242 	mov	r5,a
      0014FA E4               [12] 5243 	clr	a
      0014FB 3E               [12] 5244 	addc	a,r6
      0014FC FE               [12] 5245 	mov	r6,a
      0014FD 8D 82            [24] 5246 	mov	dpl,r5
      0014FF 8E 83            [24] 5247 	mov	dph,r6
      001501 8F F0            [24] 5248 	mov	b,r7
      001503 12r00r00         [24] 5249 	lcall	__gptrget
      001506 60 3A            [24] 5250 	jz	00107$
      001508                       5251 00106$:
                                   5252 ;	/home/user/contiki/cpu/cc2530edm_aman/usb/usb-arch.c:934: USBCS0 |= USBCS0_CLR_OUTPKT_RDY;
      001508 90 62 11         [24] 5253 	mov	dptr,#_USBCS0
      00150B E0               [24] 5254 	movx	a,@dptr
      00150C 44 40            [12] 5255 	orl	a,#0x40
      00150E F0               [24] 5256 	movx	@dptr,a
                                   5257 ;	/home/user/contiki/cpu/cc2530edm_aman/usb/usb-arch.c:935: ep0status = buffer->data[0] & 0x80 ? EP_TX : EP_RX;
      00150F E5 81            [12] 5258 	mov	a,sp
      001511 24 FA            [12] 5259 	add	a,#0xfa
      001513 F8               [12] 5260 	mov	r0,a
      001514 86 82            [24] 5261 	mov	dpl,@r0
      001516 08               [12] 5262 	inc	r0
      001517 86 83            [24] 5263 	mov	dph,@r0
      001519 08               [12] 5264 	inc	r0
      00151A 86 F0            [24] 5265 	mov	b,@r0
      00151C 12r00r00         [24] 5266 	lcall	__gptrget
      00151F FD               [12] 5267 	mov	r5,a
      001520 A3               [24] 5268 	inc	dptr
      001521 12r00r00         [24] 5269 	lcall	__gptrget
      001524 FE               [12] 5270 	mov	r6,a
      001525 A3               [24] 5271 	inc	dptr
      001526 12r00r00         [24] 5272 	lcall	__gptrget
      001529 FF               [12] 5273 	mov	r7,a
      00152A 8D 82            [24] 5274 	mov	dpl,r5
      00152C 8E 83            [24] 5275 	mov	dph,r6
      00152E 8F F0            [24] 5276 	mov	b,r7
      001530 12r00r00         [24] 5277 	lcall	__gptrget
      001533 FD               [12] 5278 	mov	r5,a
      001534 30 E7 04         [24] 5279 	jnb	acc.7,00111$
      001537 7F 02            [12] 5280 	mov	r7,#0x02
      001539 80 02            [24] 5281 	sjmp	00112$
      00153B                       5282 00111$:
      00153B 7F 01            [12] 5283 	mov	r7,#0x01
      00153D                       5284 00112$:
      00153D 90r00r00         [24] 5285 	mov	dptr,#_ep0status
      001540 EF               [12] 5286 	mov	a,r7
      001541 F0               [24] 5287 	movx	@dptr,a
      001542                       5288 00107$:
                                   5289 ;	/home/user/contiki/cpu/cc2530edm_aman/usb/usb-arch.c:942: buffer->data += 8;
      001542 E5 81            [12] 5290 	mov	a,sp
      001544 24 FA            [12] 5291 	add	a,#0xfa
      001546 F8               [12] 5292 	mov	r0,a
      001547 86 82            [24] 5293 	mov	dpl,@r0
      001549 08               [12] 5294 	inc	r0
      00154A 86 83            [24] 5295 	mov	dph,@r0
      00154C 08               [12] 5296 	inc	r0
      00154D 86 F0            [24] 5297 	mov	b,@r0
      00154F 12r00r00         [24] 5298 	lcall	__gptrget
      001552 FD               [12] 5299 	mov	r5,a
      001553 A3               [24] 5300 	inc	dptr
      001554 12r00r00         [24] 5301 	lcall	__gptrget
      001557 FE               [12] 5302 	mov	r6,a
      001558 A3               [24] 5303 	inc	dptr
      001559 12r00r00         [24] 5304 	lcall	__gptrget
      00155C FF               [12] 5305 	mov	r7,a
      00155D 74 08            [12] 5306 	mov	a,#0x08
      00155F 2D               [12] 5307 	add	a,r5
      001560 FD               [12] 5308 	mov	r5,a
      001561 E4               [12] 5309 	clr	a
      001562 3E               [12] 5310 	addc	a,r6
      001563 FE               [12] 5311 	mov	r6,a
      001564 E5 81            [12] 5312 	mov	a,sp
      001566 24 FA            [12] 5313 	add	a,#0xfa
      001568 F8               [12] 5314 	mov	r0,a
      001569 86 82            [24] 5315 	mov	dpl,@r0
      00156B 08               [12] 5316 	inc	r0
      00156C 86 83            [24] 5317 	mov	dph,@r0
      00156E 08               [12] 5318 	inc	r0
      00156F 86 F0            [24] 5319 	mov	b,@r0
      001571 ED               [12] 5320 	mov	a,r5
      001572 12r00r00         [24] 5321 	lcall	__gptrput
      001575 A3               [24] 5322 	inc	dptr
      001576 EE               [12] 5323 	mov	a,r6
      001577 12r00r00         [24] 5324 	lcall	__gptrput
      00157A A3               [24] 5325 	inc	dptr
      00157B EF               [12] 5326 	mov	a,r7
      00157C 12r00r00         [24] 5327 	lcall	__gptrput
                                   5328 ;	/home/user/contiki/cpu/cc2530edm_aman/usb/usb-arch.c:944: usb_endpoints[0].buffer = buffer->next;
      00157F A8 81            [24] 5329 	mov	r0,sp
      001581 18               [12] 5330 	dec	r0
      001582 18               [12] 5331 	dec	r0
      001583 86 82            [24] 5332 	mov	dpl,@r0
      001585 08               [12] 5333 	inc	r0
      001586 86 83            [24] 5334 	mov	dph,@r0
      001588 08               [12] 5335 	inc	r0
      001589 86 F0            [24] 5336 	mov	b,@r0
      00158B 12r00r00         [24] 5337 	lcall	__gptrget
      00158E FD               [12] 5338 	mov	r5,a
      00158F A3               [24] 5339 	inc	dptr
      001590 12r00r00         [24] 5340 	lcall	__gptrget
      001593 FE               [12] 5341 	mov	r6,a
      001594 A3               [24] 5342 	inc	dptr
      001595 12r00r00         [24] 5343 	lcall	__gptrget
      001598 FF               [12] 5344 	mov	r7,a
      001599 90r00r04         [24] 5345 	mov	dptr,#(_usb_endpoints + 0x0003)
      00159C ED               [12] 5346 	mov	a,r5
      00159D F0               [24] 5347 	movx	@dptr,a
      00159E EE               [12] 5348 	mov	a,r6
      00159F A3               [24] 5349 	inc	dptr
      0015A0 F0               [24] 5350 	movx	@dptr,a
      0015A1 EF               [12] 5351 	mov	a,r7
      0015A2 A3               [24] 5352 	inc	dptr
      0015A3 F0               [24] 5353 	movx	@dptr,a
                                   5354 ;	/home/user/contiki/cpu/cc2530edm_aman/usb/usb-arch.c:946: return res;
      0015A4 E5 81            [12] 5355 	mov	a,sp
      0015A6 24 FD            [12] 5356 	add	a,#0xfd
      0015A8 F8               [12] 5357 	mov	r0,a
      0015A9 86 82            [24] 5358 	mov	dpl,@r0
      0015AB                       5359 00109$:
      0015AB E5 81            [12] 5360 	mov	a,sp
      0015AD 24 F9            [12] 5361 	add	a,#0xF9
      0015AF F5 81            [12] 5362 	mov	sp,a
      0015B1 22               [24] 5363 	ret
                                   5364 ;------------------------------------------------------------
                                   5365 ;Allocation info for local variables in function 'ep0_get_data_pkt'
                                   5366 ;------------------------------------------------------------
                                   5367 ;res                       Allocated to stack - sp -1
                                   5368 ;short_packet              Allocated to stack - sp +0
                                   5369 ;buffer                    Allocated to registers r3 r4 r5 
                                   5370 ;len                       Allocated to stack - sp -2
                                   5371 ;temp                      Allocated to registers 
                                   5372 ;sloc0                     Allocated to stack - sp -4
                                   5373 ;------------------------------------------------------------
                                   5374 ;	/home/user/contiki/cpu/cc2530edm_aman/usb/usb-arch.c:950: ep0_get_data_pkt(void)
                                   5375 ;	-----------------------------------------
                                   5376 ;	 function ep0_get_data_pkt
                                   5377 ;	-----------------------------------------
      0015B2                       5378 _ep0_get_data_pkt:
      0015B2 E5 81            [12] 5379 	mov	a,sp
      0015B4 24 05            [12] 5380 	add	a,#0x05
      0015B6 F5 81            [12] 5381 	mov	sp,a
                                   5382 ;	/home/user/contiki/cpu/cc2530edm_aman/usb/usb-arch.c:952: uint8_t res = 0;
      0015B8 A8 81            [24] 5383 	mov	r0,sp
      0015BA 18               [12] 5384 	dec	r0
      0015BB 76 00            [12] 5385 	mov	@r0,#0x00
                                   5386 ;	/home/user/contiki/cpu/cc2530edm_aman/usb/usb-arch.c:953: uint8_t short_packet = 0;
      0015BD A8 81            [24] 5387 	mov	r0,sp
      0015BF 76 00            [12] 5388 	mov	@r0,#0x00
                                   5389 ;	/home/user/contiki/cpu/cc2530edm_aman/usb/usb-arch.c:954: USBBuffer *buffer = usb_endpoints[0].buffer;
      0015C1 90r00r04         [24] 5390 	mov	dptr,#(_usb_endpoints + 0x0003)
      0015C4 E0               [24] 5391 	movx	a,@dptr
      0015C5 FB               [12] 5392 	mov	r3,a
      0015C6 A3               [24] 5393 	inc	dptr
      0015C7 E0               [24] 5394 	movx	a,@dptr
      0015C8 FC               [12] 5395 	mov	r4,a
      0015C9 A3               [24] 5396 	inc	dptr
      0015CA E0               [24] 5397 	movx	a,@dptr
      0015CB FD               [12] 5398 	mov	r5,a
                                   5399 ;	/home/user/contiki/cpu/cc2530edm_aman/usb/usb-arch.c:955: uint8_t len = USBCNT0;
      0015CC 90 62 16         [24] 5400 	mov	dptr,#_USBCNT0
      0015CF E0               [24] 5401 	movx	a,@dptr
      0015D0 FA               [12] 5402 	mov	r2,a
      0015D1 A8 81            [24] 5403 	mov	r0,sp
      0015D3 18               [12] 5404 	dec	r0
      0015D4 18               [12] 5405 	dec	r0
      0015D5 A6 02            [24] 5406 	mov	@r0,ar2
                                   5407 ;	/home/user/contiki/cpu/cc2530edm_aman/usb/usb-arch.c:957: if(!buffer) {
      0015D7 EB               [12] 5408 	mov	a,r3
      0015D8 4C               [12] 5409 	orl	a,r4
      0015D9 70 06            [24] 5410 	jnz	00102$
                                   5411 ;	/home/user/contiki/cpu/cc2530edm_aman/usb/usb-arch.c:958: return USB_READ_BLOCK;
      0015DB 75 82 01         [24] 5412 	mov	dpl,#0x01
      0015DE 02r17r29         [24] 5413 	ljmp	00117$
      0015E1                       5414 00102$:
                                   5415 ;	/home/user/contiki/cpu/cc2530edm_aman/usb/usb-arch.c:961: if(buffer->flags & (USB_BUFFER_SETUP | USB_BUFFER_IN)) {
      0015E1 74 08            [12] 5416 	mov	a,#0x08
      0015E3 2B               [12] 5417 	add	a,r3
      0015E4 FA               [12] 5418 	mov	r2,a
      0015E5 E4               [12] 5419 	clr	a
      0015E6 3C               [12] 5420 	addc	a,r4
      0015E7 FE               [12] 5421 	mov	r6,a
      0015E8 8D 07            [24] 5422 	mov	ar7,r5
      0015EA 8A 82            [24] 5423 	mov	dpl,r2
      0015EC 8E 83            [24] 5424 	mov	dph,r6
      0015EE 8F F0            [24] 5425 	mov	b,r7
      0015F0 E5 81            [12] 5426 	mov	a,sp
      0015F2 24 FC            [12] 5427 	add	a,#0xfc
      0015F4 F8               [12] 5428 	mov	r0,a
      0015F5 12r00r00         [24] 5429 	lcall	__gptrget
      0015F8 F6               [12] 5430 	mov	@r0,a
      0015F9 A3               [24] 5431 	inc	dptr
      0015FA 12r00r00         [24] 5432 	lcall	__gptrget
      0015FD 08               [12] 5433 	inc	r0
      0015FE F6               [12] 5434 	mov	@r0,a
      0015FF E5 81            [12] 5435 	mov	a,sp
      001601 24 FC            [12] 5436 	add	a,#0xfc
      001603 F8               [12] 5437 	mov	r0,a
      001604 E6               [12] 5438 	mov	a,@r0
      001605 54 60            [12] 5439 	anl	a,#0x60
      001607 70 03            [24] 5440 	jnz	00145$
      001609 02r16r94         [24] 5441 	ljmp	00109$
      00160C                       5442 00145$:
                                   5443 ;	/home/user/contiki/cpu/cc2530edm_aman/usb/usb-arch.c:964: buffer->flags |= USB_BUFFER_FAILED;
      00160C C0 03            [24] 5444 	push	ar3
      00160E C0 04            [24] 5445 	push	ar4
      001610 C0 05            [24] 5446 	push	ar5
      001612 E5 81            [12] 5447 	mov	a,sp
      001614 24 F9            [12] 5448 	add	a,#0xf9
      001616 F8               [12] 5449 	mov	r0,a
      001617 74 80            [12] 5450 	mov	a,#0x80
      001619 46               [12] 5451 	orl	a,@r0
      00161A FC               [12] 5452 	mov	r4,a
      00161B 08               [12] 5453 	inc	r0
      00161C 86 05            [24] 5454 	mov	ar5,@r0
      00161E 8A 82            [24] 5455 	mov	dpl,r2
      001620 8E 83            [24] 5456 	mov	dph,r6
      001622 8F F0            [24] 5457 	mov	b,r7
      001624 EC               [12] 5458 	mov	a,r4
      001625 12r00r00         [24] 5459 	lcall	__gptrput
      001628 A3               [24] 5460 	inc	dptr
      001629 ED               [12] 5461 	mov	a,r5
      00162A 12r00r00         [24] 5462 	lcall	__gptrput
                                   5463 ;	/home/user/contiki/cpu/cc2530edm_aman/usb/usb-arch.c:965: buffer->flags &= ~USB_BUFFER_SUBMITTED;
      00162D 53 04 FE         [24] 5464 	anl	ar4,#0xFE
      001630 8A 82            [24] 5465 	mov	dpl,r2
      001632 8E 83            [24] 5466 	mov	dph,r6
      001634 8F F0            [24] 5467 	mov	b,r7
      001636 EC               [12] 5468 	mov	a,r4
      001637 12r00r00         [24] 5469 	lcall	__gptrput
      00163A A3               [24] 5470 	inc	dptr
      00163B ED               [12] 5471 	mov	a,r5
      00163C 12r00r00         [24] 5472 	lcall	__gptrput
                                   5473 ;	/home/user/contiki/cpu/cc2530edm_aman/usb/usb-arch.c:966: if(buffer->flags & USB_BUFFER_NOTIFY) {
      00163F EC               [12] 5474 	mov	a,r4
      001640 D0 05            [24] 5475 	pop	ar5
      001642 D0 04            [24] 5476 	pop	ar4
      001644 D0 03            [24] 5477 	pop	ar3
      001646 30 E3 05         [24] 5478 	jnb	acc.3,00123$
                                   5479 ;	/home/user/contiki/cpu/cc2530edm_aman/usb/usb-arch.c:967: res |= USB_READ_NOTIFY;
      001649 A8 81            [24] 5480 	mov	r0,sp
      00164B 18               [12] 5481 	dec	r0
      00164C 76 02            [12] 5482 	mov	@r0,#0x02
                                   5483 ;	/home/user/contiki/cpu/cc2530edm_aman/usb/usb-arch.c:970: while(len--) {
      00164E                       5484 00123$:
      00164E A8 81            [24] 5485 	mov	r0,sp
      001650 18               [12] 5486 	dec	r0
      001651 18               [12] 5487 	dec	r0
      001652 86 07            [24] 5488 	mov	ar7,@r0
      001654                       5489 00105$:
      001654 8F 06            [24] 5490 	mov	ar6,r7
      001656 1F               [12] 5491 	dec	r7
      001657 EE               [12] 5492 	mov	a,r6
      001658 60 06            [24] 5493 	jz	00107$
                                   5494 ;	/home/user/contiki/cpu/cc2530edm_aman/usb/usb-arch.c:971: temp = USBF0;
      00165A 90 62 20         [24] 5495 	mov	dptr,#_USBF0
      00165D E0               [24] 5496 	movx	a,@dptr
      00165E 80 F4            [24] 5497 	sjmp	00105$
      001660                       5498 00107$:
                                   5499 ;	/home/user/contiki/cpu/cc2530edm_aman/usb/usb-arch.c:973: usb_endpoints[0].buffer = buffer->next;
      001660 8B 82            [24] 5500 	mov	dpl,r3
      001662 8C 83            [24] 5501 	mov	dph,r4
      001664 8D F0            [24] 5502 	mov	b,r5
      001666 12r00r00         [24] 5503 	lcall	__gptrget
      001669 FA               [12] 5504 	mov	r2,a
      00166A A3               [24] 5505 	inc	dptr
      00166B 12r00r00         [24] 5506 	lcall	__gptrget
      00166E FE               [12] 5507 	mov	r6,a
      00166F A3               [24] 5508 	inc	dptr
      001670 12r00r00         [24] 5509 	lcall	__gptrget
      001673 FF               [12] 5510 	mov	r7,a
      001674 90r00r04         [24] 5511 	mov	dptr,#(_usb_endpoints + 0x0003)
      001677 EA               [12] 5512 	mov	a,r2
      001678 F0               [24] 5513 	movx	@dptr,a
      001679 EE               [12] 5514 	mov	a,r6
      00167A A3               [24] 5515 	inc	dptr
      00167B F0               [24] 5516 	movx	@dptr,a
      00167C EF               [12] 5517 	mov	a,r7
      00167D A3               [24] 5518 	inc	dptr
      00167E F0               [24] 5519 	movx	@dptr,a
                                   5520 ;	/home/user/contiki/cpu/cc2530edm_aman/usb/usb-arch.c:975: USBCS0 |= USBCS0_CLR_OUTPKT_RDY | USBCS0_DATA_END;
      00167F 90 62 11         [24] 5521 	mov	dptr,#_USBCS0
      001682 E0               [24] 5522 	movx	a,@dptr
      001683 FF               [12] 5523 	mov	r7,a
      001684 44 48            [12] 5524 	orl	a,#0x48
      001686 F0               [24] 5525 	movx	@dptr,a
                                   5526 ;	/home/user/contiki/cpu/cc2530edm_aman/usb/usb-arch.c:977: ep0status = EP_IDLE;
      001687 90r00r00         [24] 5527 	mov	dptr,#_ep0status
      00168A E4               [12] 5528 	clr	a
      00168B F0               [24] 5529 	movx	@dptr,a
                                   5530 ;	/home/user/contiki/cpu/cc2530edm_aman/usb/usb-arch.c:978: return res;
      00168C A8 81            [24] 5531 	mov	r0,sp
      00168E 18               [12] 5532 	dec	r0
      00168F 86 82            [24] 5533 	mov	dpl,@r0
      001691 02r17r29         [24] 5534 	ljmp	00117$
      001694                       5535 00109$:
                                   5536 ;	/home/user/contiki/cpu/cc2530edm_aman/usb/usb-arch.c:981: if(get_receive_capacity(buffer) < len) {
      001694 8B 82            [24] 5537 	mov	dpl,r3
      001696 8C 83            [24] 5538 	mov	dph,r4
      001698 8D F0            [24] 5539 	mov	b,r5
      00169A C0 05            [24] 5540 	push	ar5
      00169C C0 04            [24] 5541 	push	ar4
      00169E C0 03            [24] 5542 	push	ar3
      0016A0 12r0ErEE         [24] 5543 	lcall	_get_receive_capacity
      0016A3 AE 82            [24] 5544 	mov	r6,dpl
      0016A5 AF 83            [24] 5545 	mov	r7,dph
      0016A7 D0 03            [24] 5546 	pop	ar3
      0016A9 D0 04            [24] 5547 	pop	ar4
      0016AB D0 05            [24] 5548 	pop	ar5
      0016AD A8 81            [24] 5549 	mov	r0,sp
      0016AF 18               [12] 5550 	dec	r0
      0016B0 18               [12] 5551 	dec	r0
      0016B1 E5 81            [12] 5552 	mov	a,sp
      0016B3 24 FC            [12] 5553 	add	a,#0xfc
      0016B5 F9               [12] 5554 	mov	r1,a
      0016B6 E6               [12] 5555 	mov	a,@r0
      0016B7 F7               [12] 5556 	mov	@r1,a
      0016B8 09               [12] 5557 	inc	r1
      0016B9 77 00            [12] 5558 	mov	@r1,#0x00
      0016BB E5 81            [12] 5559 	mov	a,sp
      0016BD 24 FC            [12] 5560 	add	a,#0xfc
      0016BF F8               [12] 5561 	mov	r0,a
      0016C0 C3               [12] 5562 	clr	c
      0016C1 EE               [12] 5563 	mov	a,r6
      0016C2 96               [12] 5564 	subb	a,@r0
      0016C3 EF               [12] 5565 	mov	a,r7
      0016C4 08               [12] 5566 	inc	r0
      0016C5 96               [12] 5567 	subb	a,@r0
      0016C6 50 05            [24] 5568 	jnc	00111$
                                   5569 ;	/home/user/contiki/cpu/cc2530edm_aman/usb/usb-arch.c:983: return USB_READ_BLOCK;
      0016C8 75 82 01         [24] 5570 	mov	dpl,#0x01
      0016CB 80 5C            [24] 5571 	sjmp	00117$
      0016CD                       5572 00111$:
                                   5573 ;	/home/user/contiki/cpu/cc2530edm_aman/usb/usb-arch.c:986: if(len < usb_endpoints[0].xfer_size) {
      0016CD 90r00r0C         [24] 5574 	mov	dptr,#(_usb_endpoints + 0x000b)
      0016D0 E0               [24] 5575 	movx	a,@dptr
      0016D1 FE               [12] 5576 	mov	r6,a
      0016D2 A3               [24] 5577 	inc	dptr
      0016D3 E0               [24] 5578 	movx	a,@dptr
      0016D4 FF               [12] 5579 	mov	r7,a
      0016D5 E5 81            [12] 5580 	mov	a,sp
      0016D7 24 FC            [12] 5581 	add	a,#0xfc
      0016D9 F8               [12] 5582 	mov	r0,a
      0016DA C3               [12] 5583 	clr	c
      0016DB E6               [12] 5584 	mov	a,@r0
      0016DC 9E               [12] 5585 	subb	a,r6
      0016DD 08               [12] 5586 	inc	r0
      0016DE E6               [12] 5587 	mov	a,@r0
      0016DF 9F               [12] 5588 	subb	a,r7
      0016E0 50 04            [24] 5589 	jnc	00113$
                                   5590 ;	/home/user/contiki/cpu/cc2530edm_aman/usb/usb-arch.c:987: short_packet = 1;
      0016E2 A8 81            [24] 5591 	mov	r0,sp
      0016E4 76 01            [12] 5592 	mov	@r0,#0x01
      0016E6                       5593 00113$:
                                   5594 ;	/home/user/contiki/cpu/cc2530edm_aman/usb/usb-arch.c:990: res = fill_buffers(buffer, 0, len, short_packet);
      0016E6 A8 81            [24] 5595 	mov	r0,sp
      0016E8 E6               [12] 5596 	mov	a,@r0
      0016E9 C0 E0            [24] 5597 	push	acc
      0016EB E5 81            [12] 5598 	mov	a,sp
      0016ED 24 FB            [12] 5599 	add	a,#0xfb
      0016EF F8               [12] 5600 	mov	r0,a
      0016F0 E6               [12] 5601 	mov	a,@r0
      0016F1 C0 E0            [24] 5602 	push	acc
      0016F3 08               [12] 5603 	inc	r0
      0016F4 E6               [12] 5604 	mov	a,@r0
      0016F5 C0 E0            [24] 5605 	push	acc
      0016F7 E4               [12] 5606 	clr	a
      0016F8 C0 E0            [24] 5607 	push	acc
      0016FA 8B 82            [24] 5608 	mov	dpl,r3
      0016FC 8C 83            [24] 5609 	mov	dph,r4
      0016FE 8D F0            [24] 5610 	mov	b,r5
      001700 12r10r50         [24] 5611 	lcall	_fill_buffers
      001703 AF 82            [24] 5612 	mov	r7,dpl
      001705 E5 81            [12] 5613 	mov	a,sp
      001707 24 FC            [12] 5614 	add	a,#0xfc
      001709 F5 81            [12] 5615 	mov	sp,a
      00170B A8 81            [24] 5616 	mov	r0,sp
      00170D 18               [12] 5617 	dec	r0
      00170E A6 07            [24] 5618 	mov	@r0,ar7
                                   5619 ;	/home/user/contiki/cpu/cc2530edm_aman/usb/usb-arch.c:992: if(short_packet) {
      001710 A8 81            [24] 5620 	mov	r0,sp
      001712 E6               [12] 5621 	mov	a,@r0
      001713 60 07            [24] 5622 	jz	00115$
                                   5623 ;	/home/user/contiki/cpu/cc2530edm_aman/usb/usb-arch.c:994: ep0status = EP_IDLE;
      001715 90r00r00         [24] 5624 	mov	dptr,#_ep0status
      001718 E4               [12] 5625 	clr	a
      001719 F0               [24] 5626 	movx	@dptr,a
      00171A 80 08            [24] 5627 	sjmp	00116$
      00171C                       5628 00115$:
                                   5629 ;	/home/user/contiki/cpu/cc2530edm_aman/usb/usb-arch.c:997: USBCS0 |= USBCS0_CLR_OUTPKT_RDY;
      00171C 90 62 11         [24] 5630 	mov	dptr,#_USBCS0
      00171F E0               [24] 5631 	movx	a,@dptr
      001720 FF               [12] 5632 	mov	r7,a
      001721 44 40            [12] 5633 	orl	a,#0x40
      001723 F0               [24] 5634 	movx	@dptr,a
      001724                       5635 00116$:
                                   5636 ;	/home/user/contiki/cpu/cc2530edm_aman/usb/usb-arch.c:999: return res;
      001724 A8 81            [24] 5637 	mov	r0,sp
      001726 18               [12] 5638 	dec	r0
      001727 86 82            [24] 5639 	mov	dpl,@r0
      001729                       5640 00117$:
      001729 E5 81            [12] 5641 	mov	a,sp
      00172B 24 FB            [12] 5642 	add	a,#0xFB
      00172D F5 81            [12] 5643 	mov	sp,a
      00172F 22               [24] 5644 	ret
                                   5645 ;------------------------------------------------------------
                                   5646 ;Allocation info for local variables in function 'ep0_tx'
                                   5647 ;------------------------------------------------------------
                                   5648 ;buffer                    Allocated to stack - sp -8
                                   5649 ;len                       Allocated to stack - sp -5
                                   5650 ;data_end                  Allocated to stack - sp -3
                                   5651 ;res                       Allocated to stack - sp -2
                                   5652 ;copy                      Allocated to stack - sp -1
                                   5653 ;sloc0                     Allocated to stack - sp -11
                                   5654 ;------------------------------------------------------------
                                   5655 ;	/home/user/contiki/cpu/cc2530edm_aman/usb/usb-arch.c:1003: ep0_tx(void)
                                   5656 ;	-----------------------------------------
                                   5657 ;	 function ep0_tx
                                   5658 ;	-----------------------------------------
      001730                       5659 _ep0_tx:
      001730 E5 81            [12] 5660 	mov	a,sp
      001732 24 0C            [12] 5661 	add	a,#0x0C
                                   5662 ;	/home/user/contiki/cpu/cc2530edm_aman/usb/usb-arch.c:1005: USBBuffer *buffer = usb_endpoints[0].buffer;
      001734 F5 81            [12] 5663 	mov	sp,a
      001736 90r00r04         [24] 5664 	mov	dptr,#(_usb_endpoints + 0x0003)
      001739 24 F8            [12] 5665 	add	a,#0xf8
      00173B F8               [12] 5666 	mov	r0,a
      00173C E0               [24] 5667 	movx	a,@dptr
      00173D F6               [12] 5668 	mov	@r0,a
      00173E A3               [24] 5669 	inc	dptr
      00173F E0               [24] 5670 	movx	a,@dptr
      001740 08               [12] 5671 	inc	r0
      001741 F6               [12] 5672 	mov	@r0,a
      001742 A3               [24] 5673 	inc	dptr
      001743 E0               [24] 5674 	movx	a,@dptr
      001744 08               [12] 5675 	inc	r0
      001745 F6               [12] 5676 	mov	@r0,a
                                   5677 ;	/home/user/contiki/cpu/cc2530edm_aman/usb/usb-arch.c:1006: unsigned int len = usb_endpoints[0].xfer_size;
      001746 90r00r0C         [24] 5678 	mov	dptr,#(_usb_endpoints + 0x000b)
      001749 E5 81            [12] 5679 	mov	a,sp
      00174B 24 FB            [12] 5680 	add	a,#0xfb
      00174D F8               [12] 5681 	mov	r0,a
      00174E E0               [24] 5682 	movx	a,@dptr
      00174F F6               [12] 5683 	mov	@r0,a
      001750 A3               [24] 5684 	inc	dptr
      001751 E0               [24] 5685 	movx	a,@dptr
      001752 08               [12] 5686 	inc	r0
      001753 F6               [12] 5687 	mov	@r0,a
                                   5688 ;	/home/user/contiki/cpu/cc2530edm_aman/usb/usb-arch.c:1007: uint8_t data_end = 0;
      001754 E5 81            [12] 5689 	mov	a,sp
      001756 24 FD            [12] 5690 	add	a,#0xfd
      001758 F8               [12] 5691 	mov	r0,a
      001759 76 00            [12] 5692 	mov	@r0,#0x00
                                   5693 ;	/home/user/contiki/cpu/cc2530edm_aman/usb/usb-arch.c:1008: uint8_t res = 0;
      00175B A8 81            [24] 5694 	mov	r0,sp
      00175D 18               [12] 5695 	dec	r0
      00175E 18               [12] 5696 	dec	r0
      00175F 76 00            [12] 5697 	mov	@r0,#0x00
                                   5698 ;	/home/user/contiki/cpu/cc2530edm_aman/usb/usb-arch.c:1011: if((USBCS0 & USBCS0_INPKT_RDY) || (ep0status != EP_TX)) {
      001761 90 62 11         [24] 5699 	mov	dptr,#_USBCS0
      001764 E0               [24] 5700 	movx	a,@dptr
      001765 FA               [12] 5701 	mov	r2,a
      001766 20 E1 0A         [24] 5702 	jb	acc.1,00101$
      001769 90r00r00         [24] 5703 	mov	dptr,#_ep0status
      00176C E0               [24] 5704 	movx	a,@dptr
      00176D FA               [12] 5705 	mov	r2,a
      00176E BA 02 02         [24] 5706 	cjne	r2,#0x02,00170$
      001771 80 06            [24] 5707 	sjmp	00102$
      001773                       5708 00170$:
      001773                       5709 00101$:
                                   5710 ;	/home/user/contiki/cpu/cc2530edm_aman/usb/usb-arch.c:1012: return 0;
      001773 75 82 00         [24] 5711 	mov	dpl,#0x00
      001776 02r19rF5         [24] 5712 	ljmp	00131$
      001779                       5713 00102$:
                                   5714 ;	/home/user/contiki/cpu/cc2530edm_aman/usb/usb-arch.c:1015: if(!buffer) {
      001779 E5 81            [12] 5715 	mov	a,sp
      00177B 24 F8            [12] 5716 	add	a,#0xf8
      00177D F8               [12] 5717 	mov	r0,a
      00177E E6               [12] 5718 	mov	a,@r0
      00177F 08               [12] 5719 	inc	r0
      001780 46               [12] 5720 	orl	a,@r0
                                   5721 ;	/home/user/contiki/cpu/cc2530edm_aman/usb/usb-arch.c:1016: return 0;
      001781 70 05            [24] 5722 	jnz	00105$
      001783 F5 82            [12] 5723 	mov	dpl,a
      001785 02r19rF5         [24] 5724 	ljmp	00131$
      001788                       5725 00105$:
                                   5726 ;	/home/user/contiki/cpu/cc2530edm_aman/usb/usb-arch.c:1019: if(!(buffer->flags & USB_BUFFER_IN)) {
      001788 E5 81            [12] 5727 	mov	a,sp
      00178A 24 F8            [12] 5728 	add	a,#0xf8
      00178C F8               [12] 5729 	mov	r0,a
      00178D 74 08            [12] 5730 	mov	a,#0x08
      00178F 26               [12] 5731 	add	a,@r0
      001790 FA               [12] 5732 	mov	r2,a
      001791 E4               [12] 5733 	clr	a
      001792 08               [12] 5734 	inc	r0
      001793 36               [12] 5735 	addc	a,@r0
      001794 FB               [12] 5736 	mov	r3,a
      001795 08               [12] 5737 	inc	r0
      001796 86 04            [24] 5738 	mov	ar4,@r0
      001798 8A 82            [24] 5739 	mov	dpl,r2
      00179A 8B 83            [24] 5740 	mov	dph,r3
      00179C 8C F0            [24] 5741 	mov	b,r4
      00179E 12r00r00         [24] 5742 	lcall	__gptrget
      0017A1 FA               [12] 5743 	mov	r2,a
      0017A2 A3               [24] 5744 	inc	dptr
      0017A3 12r00r00         [24] 5745 	lcall	__gptrget
      0017A6 FB               [12] 5746 	mov	r3,a
      0017A7 EA               [12] 5747 	mov	a,r2
      0017A8 20 E6 06         [24] 5748 	jb	acc.6,00122$
                                   5749 ;	/home/user/contiki/cpu/cc2530edm_aman/usb/usb-arch.c:1020: return 0;                   // Huh .. problem ... we should TX but queued buffer is in RX ...
      0017AB 75 82 00         [24] 5750 	mov	dpl,#0x00
      0017AE 02r19rF5         [24] 5751 	ljmp	00131$
                                   5752 ;	/home/user/contiki/cpu/cc2530edm_aman/usb/usb-arch.c:1023: while(buffer) {
      0017B1                       5753 00122$:
      0017B1 E5 81            [12] 5754 	mov	a,sp
      0017B3 24 F8            [12] 5755 	add	a,#0xf8
      0017B5 F8               [12] 5756 	mov	r0,a
      0017B6 E6               [12] 5757 	mov	a,@r0
      0017B7 08               [12] 5758 	inc	r0
      0017B8 46               [12] 5759 	orl	a,@r0
      0017B9 70 03            [24] 5760 	jnz	00173$
      0017BB 02r19rA3         [24] 5761 	ljmp	00124$
      0017BE                       5762 00173$:
                                   5763 ;	/home/user/contiki/cpu/cc2530edm_aman/usb/usb-arch.c:1026: if(buffer->left < len) {
      0017BE E5 81            [12] 5764 	mov	a,sp
      0017C0 24 F8            [12] 5765 	add	a,#0xf8
      0017C2 F8               [12] 5766 	mov	r0,a
      0017C3 74 06            [12] 5767 	mov	a,#0x06
      0017C5 26               [12] 5768 	add	a,@r0
      0017C6 FA               [12] 5769 	mov	r2,a
      0017C7 E4               [12] 5770 	clr	a
      0017C8 08               [12] 5771 	inc	r0
      0017C9 36               [12] 5772 	addc	a,@r0
      0017CA FB               [12] 5773 	mov	r3,a
      0017CB 08               [12] 5774 	inc	r0
      0017CC 86 04            [24] 5775 	mov	ar4,@r0
      0017CE 8A 82            [24] 5776 	mov	dpl,r2
      0017D0 8B 83            [24] 5777 	mov	dph,r3
      0017D2 8C F0            [24] 5778 	mov	b,r4
      0017D4 12r00r00         [24] 5779 	lcall	__gptrget
      0017D7 FB               [12] 5780 	mov	r3,a
      0017D8 A3               [24] 5781 	inc	dptr
      0017D9 12r00r00         [24] 5782 	lcall	__gptrget
      0017DC FC               [12] 5783 	mov	r4,a
      0017DD E5 81            [12] 5784 	mov	a,sp
      0017DF 24 FB            [12] 5785 	add	a,#0xfb
      0017E1 F8               [12] 5786 	mov	r0,a
      0017E2 C3               [12] 5787 	clr	c
      0017E3 EB               [12] 5788 	mov	a,r3
      0017E4 96               [12] 5789 	subb	a,@r0
      0017E5 EC               [12] 5790 	mov	a,r4
      0017E6 08               [12] 5791 	inc	r0
      0017E7 96               [12] 5792 	subb	a,@r0
      0017E8 50 0A            [24] 5793 	jnc	00109$
                                   5794 ;	/home/user/contiki/cpu/cc2530edm_aman/usb/usb-arch.c:1027: copy = buffer->left;
      0017EA A8 81            [24] 5795 	mov	r0,sp
      0017EC 18               [12] 5796 	dec	r0
      0017ED A6 03            [24] 5797 	mov	@r0,ar3
      0017EF 08               [12] 5798 	inc	r0
      0017F0 A6 04            [24] 5799 	mov	@r0,ar4
      0017F2 80 0E            [24] 5800 	sjmp	00110$
      0017F4                       5801 00109$:
                                   5802 ;	/home/user/contiki/cpu/cc2530edm_aman/usb/usb-arch.c:1029: copy = len;
      0017F4 E5 81            [12] 5803 	mov	a,sp
      0017F6 24 FB            [12] 5804 	add	a,#0xfb
      0017F8 F8               [12] 5805 	mov	r0,a
      0017F9 A9 81            [24] 5806 	mov	r1,sp
      0017FB 19               [12] 5807 	dec	r1
      0017FC E6               [12] 5808 	mov	a,@r0
      0017FD F7               [12] 5809 	mov	@r1,a
      0017FE 08               [12] 5810 	inc	r0
      0017FF 09               [12] 5811 	inc	r1
      001800 E6               [12] 5812 	mov	a,@r0
      001801 F7               [12] 5813 	mov	@r1,a
      001802                       5814 00110$:
                                   5815 ;	/home/user/contiki/cpu/cc2530edm_aman/usb/usb-arch.c:1032: len -= copy;
      001802 E5 81            [12] 5816 	mov	a,sp
      001804 24 FB            [12] 5817 	add	a,#0xfb
      001806 F8               [12] 5818 	mov	r0,a
      001807 A9 81            [24] 5819 	mov	r1,sp
      001809 19               [12] 5820 	dec	r1
      00180A E6               [12] 5821 	mov	a,@r0
      00180B C3               [12] 5822 	clr	c
      00180C 97               [12] 5823 	subb	a,@r1
      00180D F6               [12] 5824 	mov	@r0,a
      00180E 08               [12] 5825 	inc	r0
      00180F E6               [12] 5826 	mov	a,@r0
      001810 09               [12] 5827 	inc	r1
      001811 97               [12] 5828 	subb	a,@r1
      001812 F6               [12] 5829 	mov	@r0,a
                                   5830 ;	/home/user/contiki/cpu/cc2530edm_aman/usb/usb-arch.c:1033: buffer->left -= copy;
      001813 E5 81            [12] 5831 	mov	a,sp
      001815 24 F8            [12] 5832 	add	a,#0xf8
      001817 F8               [12] 5833 	mov	r0,a
      001818 74 06            [12] 5834 	mov	a,#0x06
      00181A 26               [12] 5835 	add	a,@r0
      00181B FA               [12] 5836 	mov	r2,a
      00181C E4               [12] 5837 	clr	a
      00181D 08               [12] 5838 	inc	r0
      00181E 36               [12] 5839 	addc	a,@r0
      00181F FB               [12] 5840 	mov	r3,a
      001820 08               [12] 5841 	inc	r0
      001821 86 04            [24] 5842 	mov	ar4,@r0
      001823 8A 82            [24] 5843 	mov	dpl,r2
      001825 8B 83            [24] 5844 	mov	dph,r3
      001827 8C F0            [24] 5845 	mov	b,r4
      001829 12r00r00         [24] 5846 	lcall	__gptrget
      00182C FE               [12] 5847 	mov	r6,a
      00182D A3               [24] 5848 	inc	dptr
      00182E 12r00r00         [24] 5849 	lcall	__gptrget
      001831 FF               [12] 5850 	mov	r7,a
      001832 A8 81            [24] 5851 	mov	r0,sp
      001834 18               [12] 5852 	dec	r0
      001835 EE               [12] 5853 	mov	a,r6
      001836 C3               [12] 5854 	clr	c
      001837 96               [12] 5855 	subb	a,@r0
      001838 FE               [12] 5856 	mov	r6,a
      001839 EF               [12] 5857 	mov	a,r7
      00183A 08               [12] 5858 	inc	r0
      00183B 96               [12] 5859 	subb	a,@r0
      00183C FF               [12] 5860 	mov	r7,a
      00183D 8A 82            [24] 5861 	mov	dpl,r2
      00183F 8B 83            [24] 5862 	mov	dph,r3
      001841 8C F0            [24] 5863 	mov	b,r4
      001843 EE               [12] 5864 	mov	a,r6
      001844 12r00r00         [24] 5865 	lcall	__gptrput
      001847 A3               [24] 5866 	inc	dptr
      001848 EF               [12] 5867 	mov	a,r7
      001849 12r00r00         [24] 5868 	lcall	__gptrput
                                   5869 ;	/home/user/contiki/cpu/cc2530edm_aman/usb/usb-arch.c:1034: write_hw_buffer(0, buffer->data, copy);
      00184C E5 81            [12] 5870 	mov	a,sp
      00184E 24 F8            [12] 5871 	add	a,#0xf8
      001850 F8               [12] 5872 	mov	r0,a
      001851 E5 81            [12] 5873 	mov	a,sp
      001853 24 F5            [12] 5874 	add	a,#0xf5
      001855 F9               [12] 5875 	mov	r1,a
      001856 74 03            [12] 5876 	mov	a,#0x03
      001858 26               [12] 5877 	add	a,@r0
      001859 F7               [12] 5878 	mov	@r1,a
      00185A E4               [12] 5879 	clr	a
      00185B 08               [12] 5880 	inc	r0
      00185C 36               [12] 5881 	addc	a,@r0
      00185D 09               [12] 5882 	inc	r1
      00185E F7               [12] 5883 	mov	@r1,a
      00185F 08               [12] 5884 	inc	r0
      001860 09               [12] 5885 	inc	r1
      001861 E6               [12] 5886 	mov	a,@r0
      001862 F7               [12] 5887 	mov	@r1,a
      001863 E5 81            [12] 5888 	mov	a,sp
      001865 24 F5            [12] 5889 	add	a,#0xf5
      001867 F8               [12] 5890 	mov	r0,a
      001868 86 82            [24] 5891 	mov	dpl,@r0
      00186A 08               [12] 5892 	inc	r0
      00186B 86 83            [24] 5893 	mov	dph,@r0
      00186D 08               [12] 5894 	inc	r0
      00186E 86 F0            [24] 5895 	mov	b,@r0
      001870 12r00r00         [24] 5896 	lcall	__gptrget
      001873 FD               [12] 5897 	mov	r5,a
      001874 A3               [24] 5898 	inc	dptr
      001875 12r00r00         [24] 5899 	lcall	__gptrget
      001878 FE               [12] 5900 	mov	r6,a
      001879 A3               [24] 5901 	inc	dptr
      00187A 12r00r00         [24] 5902 	lcall	__gptrget
      00187D FF               [12] 5903 	mov	r7,a
      00187E C0 04            [24] 5904 	push	ar4
      001880 C0 03            [24] 5905 	push	ar3
      001882 C0 02            [24] 5906 	push	ar2
      001884 E5 81            [12] 5907 	mov	a,sp
      001886 24 FC            [12] 5908 	add	a,#0xfc
      001888 F8               [12] 5909 	mov	r0,a
      001889 E6               [12] 5910 	mov	a,@r0
      00188A C0 E0            [24] 5911 	push	acc
      00188C 08               [12] 5912 	inc	r0
      00188D E6               [12] 5913 	mov	a,@r0
      00188E C0 E0            [24] 5914 	push	acc
      001890 C0 05            [24] 5915 	push	ar5
      001892 C0 06            [24] 5916 	push	ar6
      001894 C0 07            [24] 5917 	push	ar7
      001896 75 82 00         [24] 5918 	mov	dpl,#0x00
      001899 12r01rF3         [24] 5919 	lcall	_write_hw_buffer
      00189C E5 81            [12] 5920 	mov	a,sp
      00189E 24 FB            [12] 5921 	add	a,#0xfb
      0018A0 F5 81            [12] 5922 	mov	sp,a
      0018A2 D0 02            [24] 5923 	pop	ar2
      0018A4 D0 03            [24] 5924 	pop	ar3
      0018A6 D0 04            [24] 5925 	pop	ar4
                                   5926 ;	/home/user/contiki/cpu/cc2530edm_aman/usb/usb-arch.c:1035: buffer->data += copy;
      0018A8 E5 81            [12] 5927 	mov	a,sp
      0018AA 24 F5            [12] 5928 	add	a,#0xf5
      0018AC F8               [12] 5929 	mov	r0,a
      0018AD 86 82            [24] 5930 	mov	dpl,@r0
      0018AF 08               [12] 5931 	inc	r0
      0018B0 86 83            [24] 5932 	mov	dph,@r0
      0018B2 08               [12] 5933 	inc	r0
      0018B3 86 F0            [24] 5934 	mov	b,@r0
      0018B5 12r00r00         [24] 5935 	lcall	__gptrget
      0018B8 FD               [12] 5936 	mov	r5,a
      0018B9 A3               [24] 5937 	inc	dptr
      0018BA 12r00r00         [24] 5938 	lcall	__gptrget
      0018BD FE               [12] 5939 	mov	r6,a
      0018BE A3               [24] 5940 	inc	dptr
      0018BF 12r00r00         [24] 5941 	lcall	__gptrget
      0018C2 FF               [12] 5942 	mov	r7,a
      0018C3 A8 81            [24] 5943 	mov	r0,sp
      0018C5 18               [12] 5944 	dec	r0
      0018C6 E6               [12] 5945 	mov	a,@r0
      0018C7 2D               [12] 5946 	add	a,r5
      0018C8 FD               [12] 5947 	mov	r5,a
      0018C9 08               [12] 5948 	inc	r0
      0018CA E6               [12] 5949 	mov	a,@r0
      0018CB 3E               [12] 5950 	addc	a,r6
      0018CC FE               [12] 5951 	mov	r6,a
      0018CD E5 81            [12] 5952 	mov	a,sp
      0018CF 24 F5            [12] 5953 	add	a,#0xf5
      0018D1 F8               [12] 5954 	mov	r0,a
      0018D2 86 82            [24] 5955 	mov	dpl,@r0
      0018D4 08               [12] 5956 	inc	r0
      0018D5 86 83            [24] 5957 	mov	dph,@r0
      0018D7 08               [12] 5958 	inc	r0
      0018D8 86 F0            [24] 5959 	mov	b,@r0
      0018DA ED               [12] 5960 	mov	a,r5
      0018DB 12r00r00         [24] 5961 	lcall	__gptrput
      0018DE A3               [24] 5962 	inc	dptr
      0018DF EE               [12] 5963 	mov	a,r6
      0018E0 12r00r00         [24] 5964 	lcall	__gptrput
      0018E3 A3               [24] 5965 	inc	dptr
      0018E4 EF               [12] 5966 	mov	a,r7
      0018E5 12r00r00         [24] 5967 	lcall	__gptrput
                                   5968 ;	/home/user/contiki/cpu/cc2530edm_aman/usb/usb-arch.c:1036: if(buffer->left == 0) {
      0018E8 8A 82            [24] 5969 	mov	dpl,r2
      0018EA 8B 83            [24] 5970 	mov	dph,r3
      0018EC 8C F0            [24] 5971 	mov	b,r4
      0018EE 12r00r00         [24] 5972 	lcall	__gptrget
      0018F1 FA               [12] 5973 	mov	r2,a
      0018F2 A3               [24] 5974 	inc	dptr
      0018F3 12r00r00         [24] 5975 	lcall	__gptrget
      0018F6 FB               [12] 5976 	mov	r3,a
      0018F7 4A               [12] 5977 	orl	a,r2
      0018F8 60 03            [24] 5978 	jz	00175$
      0018FA 02r19r96         [24] 5979 	ljmp	00119$
      0018FD                       5980 00175$:
                                   5981 ;	/home/user/contiki/cpu/cc2530edm_aman/usb/usb-arch.c:1037: if(buffer->flags & USB_BUFFER_SHORT_END) {
      0018FD E5 81            [12] 5982 	mov	a,sp
      0018FF 24 F8            [12] 5983 	add	a,#0xf8
      001901 F8               [12] 5984 	mov	r0,a
      001902 74 08            [12] 5985 	mov	a,#0x08
      001904 26               [12] 5986 	add	a,@r0
      001905 FD               [12] 5987 	mov	r5,a
      001906 E4               [12] 5988 	clr	a
      001907 08               [12] 5989 	inc	r0
      001908 36               [12] 5990 	addc	a,@r0
      001909 FE               [12] 5991 	mov	r6,a
      00190A 08               [12] 5992 	inc	r0
      00190B 86 07            [24] 5993 	mov	ar7,@r0
      00190D 8D 82            [24] 5994 	mov	dpl,r5
      00190F 8E 83            [24] 5995 	mov	dph,r6
      001911 8F F0            [24] 5996 	mov	b,r7
      001913 12r00r00         [24] 5997 	lcall	__gptrget
      001916 FD               [12] 5998 	mov	r5,a
      001917 A3               [24] 5999 	inc	dptr
      001918 12r00r00         [24] 6000 	lcall	__gptrget
      00191B FE               [12] 6001 	mov	r6,a
      00191C ED               [12] 6002 	mov	a,r5
      00191D 30 E1 1A         [24] 6003 	jnb	acc.1,00115$
                                   6004 ;	/home/user/contiki/cpu/cc2530edm_aman/usb/usb-arch.c:1038: if(len == 0) {
      001920 E5 81            [12] 6005 	mov	a,sp
      001922 24 FB            [12] 6006 	add	a,#0xfb
      001924 F8               [12] 6007 	mov	r0,a
      001925 E6               [12] 6008 	mov	a,@r0
      001926 08               [12] 6009 	inc	r0
      001927 46               [12] 6010 	orl	a,@r0
      001928 60 79            [24] 6011 	jz	00124$
                                   6012 ;	/home/user/contiki/cpu/cc2530edm_aman/usb/usb-arch.c:1041: data_end = 1;
      00192A E5 81            [12] 6013 	mov	a,sp
      00192C 24 FD            [12] 6014 	add	a,#0xfd
      00192E F8               [12] 6015 	mov	r0,a
      00192F 76 01            [12] 6016 	mov	@r0,#0x01
                                   6017 ;	/home/user/contiki/cpu/cc2530edm_aman/usb/usb-arch.c:1042: len = 0;              // Stop looking for more data to send
      001931 E5 81            [12] 6018 	mov	a,sp
      001933 24 FB            [12] 6019 	add	a,#0xfb
      001935 F8               [12] 6020 	mov	r0,a
      001936 E4               [12] 6021 	clr	a
      001937 F6               [12] 6022 	mov	@r0,a
      001938 08               [12] 6023 	inc	r0
      001939 F6               [12] 6024 	mov	@r0,a
      00193A                       6025 00115$:
                                   6026 ;	/home/user/contiki/cpu/cc2530edm_aman/usb/usb-arch.c:1045: buffer->flags &= ~USB_BUFFER_SUBMITTED;
      00193A E5 81            [12] 6027 	mov	a,sp
      00193C 24 F8            [12] 6028 	add	a,#0xf8
      00193E F8               [12] 6029 	mov	r0,a
      00193F 74 08            [12] 6030 	mov	a,#0x08
      001941 26               [12] 6031 	add	a,@r0
      001942 FD               [12] 6032 	mov	r5,a
      001943 E4               [12] 6033 	clr	a
      001944 08               [12] 6034 	inc	r0
      001945 36               [12] 6035 	addc	a,@r0
      001946 FE               [12] 6036 	mov	r6,a
      001947 08               [12] 6037 	inc	r0
      001948 86 07            [24] 6038 	mov	ar7,@r0
      00194A 8D 82            [24] 6039 	mov	dpl,r5
      00194C 8E 83            [24] 6040 	mov	dph,r6
      00194E 8F F0            [24] 6041 	mov	b,r7
      001950 12r00r00         [24] 6042 	lcall	__gptrget
      001953 FB               [12] 6043 	mov	r3,a
      001954 A3               [24] 6044 	inc	dptr
      001955 12r00r00         [24] 6045 	lcall	__gptrget
      001958 FC               [12] 6046 	mov	r4,a
      001959 53 03 FE         [24] 6047 	anl	ar3,#0xFE
      00195C 8D 82            [24] 6048 	mov	dpl,r5
      00195E 8E 83            [24] 6049 	mov	dph,r6
      001960 8F F0            [24] 6050 	mov	b,r7
      001962 EB               [12] 6051 	mov	a,r3
      001963 12r00r00         [24] 6052 	lcall	__gptrput
      001966 A3               [24] 6053 	inc	dptr
      001967 EC               [12] 6054 	mov	a,r4
      001968 12r00r00         [24] 6055 	lcall	__gptrput
                                   6056 ;	/home/user/contiki/cpu/cc2530edm_aman/usb/usb-arch.c:1046: if(buffer->flags & USB_BUFFER_NOTIFY) {
      00196B EB               [12] 6057 	mov	a,r3
      00196C 30 E3 08         [24] 6058 	jnb	acc.3,00117$
                                   6059 ;	/home/user/contiki/cpu/cc2530edm_aman/usb/usb-arch.c:1047: res |= USB_WRITE_NOTIFY;
      00196F A8 81            [24] 6060 	mov	r0,sp
      001971 18               [12] 6061 	dec	r0
      001972 18               [12] 6062 	dec	r0
      001973 E6               [12] 6063 	mov	a,@r0
      001974 44 02            [12] 6064 	orl	a,#0x02
      001976 F6               [12] 6065 	mov	@r0,a
      001977                       6066 00117$:
                                   6067 ;	/home/user/contiki/cpu/cc2530edm_aman/usb/usb-arch.c:1049: buffer = buffer->next;
      001977 E5 81            [12] 6068 	mov	a,sp
      001979 24 F8            [12] 6069 	add	a,#0xf8
      00197B F8               [12] 6070 	mov	r0,a
      00197C 86 82            [24] 6071 	mov	dpl,@r0
      00197E 08               [12] 6072 	inc	r0
      00197F 86 83            [24] 6073 	mov	dph,@r0
      001981 08               [12] 6074 	inc	r0
      001982 86 F0            [24] 6075 	mov	b,@r0
      001984 12r00r00         [24] 6076 	lcall	__gptrget
      001987 18               [12] 6077 	dec	r0
      001988 18               [12] 6078 	dec	r0
      001989 F6               [12] 6079 	mov	@r0,a
      00198A A3               [24] 6080 	inc	dptr
      00198B 12r00r00         [24] 6081 	lcall	__gptrget
      00198E 08               [12] 6082 	inc	r0
      00198F F6               [12] 6083 	mov	@r0,a
      001990 A3               [24] 6084 	inc	dptr
      001991 12r00r00         [24] 6085 	lcall	__gptrget
      001994 08               [12] 6086 	inc	r0
      001995 F6               [12] 6087 	mov	@r0,a
      001996                       6088 00119$:
                                   6089 ;	/home/user/contiki/cpu/cc2530edm_aman/usb/usb-arch.c:1051: if(len == 0) {
      001996 E5 81            [12] 6090 	mov	a,sp
      001998 24 FB            [12] 6091 	add	a,#0xfb
      00199A F8               [12] 6092 	mov	r0,a
      00199B E6               [12] 6093 	mov	a,@r0
      00199C 08               [12] 6094 	inc	r0
      00199D 46               [12] 6095 	orl	a,@r0
      00199E 60 03            [24] 6096 	jz	00179$
      0019A0 02r17rB1         [24] 6097 	ljmp	00122$
      0019A3                       6098 00179$:
                                   6099 ;	/home/user/contiki/cpu/cc2530edm_aman/usb/usb-arch.c:1052: break;                    // FIFO is full, send packet.
      0019A3                       6100 00124$:
                                   6101 ;	/home/user/contiki/cpu/cc2530edm_aman/usb/usb-arch.c:1055: if(len) {
      0019A3 E5 81            [12] 6102 	mov	a,sp
      0019A5 24 FB            [12] 6103 	add	a,#0xfb
      0019A7 F8               [12] 6104 	mov	r0,a
      0019A8 E6               [12] 6105 	mov	a,@r0
      0019A9 08               [12] 6106 	inc	r0
      0019AA 46               [12] 6107 	orl	a,@r0
      0019AB 60 07            [24] 6108 	jz	00126$
                                   6109 ;	/home/user/contiki/cpu/cc2530edm_aman/usb/usb-arch.c:1057: data_end = 1;
      0019AD E5 81            [12] 6110 	mov	a,sp
      0019AF 24 FD            [12] 6111 	add	a,#0xfd
      0019B1 F8               [12] 6112 	mov	r0,a
      0019B2 76 01            [12] 6113 	mov	@r0,#0x01
      0019B4                       6114 00126$:
                                   6115 ;	/home/user/contiki/cpu/cc2530edm_aman/usb/usb-arch.c:1059: usb_endpoints[0].buffer = buffer;
      0019B4 90r00r04         [24] 6116 	mov	dptr,#(_usb_endpoints + 0x0003)
      0019B7 E5 81            [12] 6117 	mov	a,sp
      0019B9 24 F8            [12] 6118 	add	a,#0xf8
      0019BB F8               [12] 6119 	mov	r0,a
      0019BC E6               [12] 6120 	mov	a,@r0
      0019BD F0               [24] 6121 	movx	@dptr,a
      0019BE 08               [12] 6122 	inc	r0
      0019BF E6               [12] 6123 	mov	a,@r0
      0019C0 A3               [24] 6124 	inc	dptr
      0019C1 F0               [24] 6125 	movx	@dptr,a
      0019C2 08               [12] 6126 	inc	r0
      0019C3 E6               [12] 6127 	mov	a,@r0
      0019C4 A3               [24] 6128 	inc	dptr
      0019C5 F0               [24] 6129 	movx	@dptr,a
                                   6130 ;	/home/user/contiki/cpu/cc2530edm_aman/usb/usb-arch.c:1063: if(data_end || !buffer) {
      0019C6 E5 81            [12] 6131 	mov	a,sp
      0019C8 24 FD            [12] 6132 	add	a,#0xfd
      0019CA F8               [12] 6133 	mov	r0,a
      0019CB E6               [12] 6134 	mov	a,@r0
      0019CC 70 0A            [24] 6135 	jnz	00127$
      0019CE E5 81            [12] 6136 	mov	a,sp
      0019D0 24 F8            [12] 6137 	add	a,#0xf8
      0019D2 F8               [12] 6138 	mov	r0,a
      0019D3 E6               [12] 6139 	mov	a,@r0
      0019D4 08               [12] 6140 	inc	r0
      0019D5 46               [12] 6141 	orl	a,@r0
      0019D6 70 0F            [24] 6142 	jnz	00128$
      0019D8                       6143 00127$:
                                   6144 ;	/home/user/contiki/cpu/cc2530edm_aman/usb/usb-arch.c:1064: ep0status = EP_IDLE;
      0019D8 90r00r00         [24] 6145 	mov	dptr,#_ep0status
      0019DB E4               [12] 6146 	clr	a
      0019DC F0               [24] 6147 	movx	@dptr,a
                                   6148 ;	/home/user/contiki/cpu/cc2530edm_aman/usb/usb-arch.c:1065: USBCS0 |= USBCS0_INPKT_RDY | USBCS0_DATA_END;
      0019DD 90 62 11         [24] 6149 	mov	dptr,#_USBCS0
      0019E0 E0               [24] 6150 	movx	a,@dptr
      0019E1 FF               [12] 6151 	mov	r7,a
      0019E2 44 0A            [12] 6152 	orl	a,#0x0A
      0019E4 F0               [24] 6153 	movx	@dptr,a
      0019E5 80 08            [24] 6154 	sjmp	00129$
      0019E7                       6155 00128$:
                                   6156 ;	/home/user/contiki/cpu/cc2530edm_aman/usb/usb-arch.c:1067: USBCS0 |= USBCS0_INPKT_RDY;
      0019E7 90 62 11         [24] 6157 	mov	dptr,#_USBCS0
      0019EA E0               [24] 6158 	movx	a,@dptr
      0019EB FF               [12] 6159 	mov	r7,a
      0019EC 44 02            [12] 6160 	orl	a,#0x02
      0019EE F0               [24] 6161 	movx	@dptr,a
      0019EF                       6162 00129$:
                                   6163 ;	/home/user/contiki/cpu/cc2530edm_aman/usb/usb-arch.c:1070: return res;
      0019EF A8 81            [24] 6164 	mov	r0,sp
      0019F1 18               [12] 6165 	dec	r0
      0019F2 18               [12] 6166 	dec	r0
      0019F3 86 82            [24] 6167 	mov	dpl,@r0
      0019F5                       6168 00131$:
      0019F5 E5 81            [12] 6169 	mov	a,sp
      0019F7 24 F4            [12] 6170 	add	a,#0xF4
      0019F9 F5 81            [12] 6171 	mov	sp,a
      0019FB 22               [24] 6172 	ret
                                   6173 ;------------------------------------------------------------
                                   6174 ;Allocation info for local variables in function 'usb_arch_ep0_irq'
                                   6175 ;------------------------------------------------------------
                                   6176 ;cs0                       Allocated to registers r7 
                                   6177 ;res                       Allocated to registers r7 
                                   6178 ;------------------------------------------------------------
                                   6179 ;	/home/user/contiki/cpu/cc2530edm_aman/usb/usb-arch.c:1074: usb_arch_ep0_irq(void)
                                   6180 ;	-----------------------------------------
                                   6181 ;	 function usb_arch_ep0_irq
                                   6182 ;	-----------------------------------------
      0019FC                       6183 _usb_arch_ep0_irq:
                                   6184 ;	/home/user/contiki/cpu/cc2530edm_aman/usb/usb-arch.c:1079: USBINDEX = 0;
      0019FC 90 62 0E         [24] 6185 	mov	dptr,#_USBINDEX
      0019FF E4               [12] 6186 	clr	a
      001A00 F0               [24] 6187 	movx	@dptr,a
                                   6188 ;	/home/user/contiki/cpu/cc2530edm_aman/usb/usb-arch.c:1080: cs0 = USBCS0;
      001A01 90 62 11         [24] 6189 	mov	dptr,#_USBCS0
      001A04 E0               [24] 6190 	movx	a,@dptr
                                   6191 ;	/home/user/contiki/cpu/cc2530edm_aman/usb/usb-arch.c:1081: if(cs0 & USBCS0_SENT_STALL) {
      001A05 FF               [12] 6192 	mov	r7,a
      001A06 30 E2 09         [24] 6193 	jnb	acc.2,00102$
                                   6194 ;	/home/user/contiki/cpu/cc2530edm_aman/usb/usb-arch.c:1083: USBCS0 = 0;
      001A09 90 62 11         [24] 6195 	mov	dptr,#_USBCS0
                                   6196 ;	/home/user/contiki/cpu/cc2530edm_aman/usb/usb-arch.c:1084: ep0status = EP_IDLE;
      001A0C E4               [12] 6197 	clr	a
      001A0D F0               [24] 6198 	movx	@dptr,a
      001A0E 90r00r00         [24] 6199 	mov	dptr,#_ep0status
      001A11 F0               [24] 6200 	movx	@dptr,a
      001A12                       6201 00102$:
                                   6202 ;	/home/user/contiki/cpu/cc2530edm_aman/usb/usb-arch.c:1086: if(cs0 & USBCS0_SETUP_END) {
      001A12 EF               [12] 6203 	mov	a,r7
      001A13 30 E4 0B         [24] 6204 	jnb	acc.4,00104$
                                   6205 ;	/home/user/contiki/cpu/cc2530edm_aman/usb/usb-arch.c:1088: USBCS0 = USBCS0_CLR_SETUP_END;
      001A16 90 62 11         [24] 6206 	mov	dptr,#_USBCS0
      001A19 74 80            [12] 6207 	mov	a,#0x80
      001A1B F0               [24] 6208 	movx	@dptr,a
                                   6209 ;	/home/user/contiki/cpu/cc2530edm_aman/usb/usb-arch.c:1089: ep0status = EP_IDLE;
      001A1C 90r00r00         [24] 6210 	mov	dptr,#_ep0status
      001A1F E4               [12] 6211 	clr	a
      001A20 F0               [24] 6212 	movx	@dptr,a
      001A21                       6213 00104$:
                                   6214 ;	/home/user/contiki/cpu/cc2530edm_aman/usb/usb-arch.c:1092: if(cs0 & USBCS0_OUTPKT_RDY) {
      001A21 EF               [12] 6215 	mov	a,r7
      001A22 30 E0 36         [24] 6216 	jnb	acc.0,00113$
                                   6217 ;	/home/user/contiki/cpu/cc2530edm_aman/usb/usb-arch.c:1093: if(ep0status == EP_IDLE) {
      001A25 90r00r00         [24] 6218 	mov	dptr,#_ep0status
      001A28 E0               [24] 6219 	movx	a,@dptr
      001A29 FF               [12] 6220 	mov	r7,a
      001A2A 70 07            [24] 6221 	jnz	00106$
                                   6222 ;	/home/user/contiki/cpu/cc2530edm_aman/usb/usb-arch.c:1094: res = ep0_get_setup_pkt();
      001A2C 12r13r7A         [24] 6223 	lcall	_ep0_get_setup_pkt
      001A2F AF 82            [24] 6224 	mov	r7,dpl
      001A31 80 07            [24] 6225 	sjmp	00107$
      001A33                       6226 00106$:
                                   6227 ;	/home/user/contiki/cpu/cc2530edm_aman/usb/usb-arch.c:1096: res = ep0_get_data_pkt();
      001A33 12r15rB2         [24] 6228 	lcall	_ep0_get_data_pkt
      001A36 AE 82            [24] 6229 	mov	r6,dpl
      001A38 8E 07            [24] 6230 	mov	ar7,r6
      001A3A                       6231 00107$:
                                   6232 ;	/home/user/contiki/cpu/cc2530edm_aman/usb/usb-arch.c:1099: if(res & USB_READ_NOTIFY) {
      001A3A EF               [12] 6233 	mov	a,r7
      001A3B 30 E1 18         [24] 6234 	jnb	acc.1,00109$
                                   6235 ;	/home/user/contiki/cpu/cc2530edm_aman/usb/usb-arch.c:1100: notify_ep_process(&usb_endpoints[0], USB_EP_EVENT_NOTIFICATION);
      001A3E C0 07            [24] 6236 	push	ar7
      001A40 74 01            [12] 6237 	mov	a,#0x01
      001A42 C0 E0            [24] 6238 	push	acc
      001A44 E4               [12] 6239 	clr	a
      001A45 C0 E0            [24] 6240 	push	acc
      001A47 90r00r01         [24] 6241 	mov	dptr,#_usb_endpoints
      001A4A 75 F0 00         [24] 6242 	mov	b,#0x00
      001A4D 12r00r2F         [24] 6243 	lcall	_notify_ep_process
      001A50 15 81            [12] 6244 	dec	sp
      001A52 15 81            [12] 6245 	dec	sp
      001A54 D0 07            [24] 6246 	pop	ar7
      001A56                       6247 00109$:
                                   6248 ;	/home/user/contiki/cpu/cc2530edm_aman/usb/usb-arch.c:1102: if(res & USB_READ_BLOCK) {
      001A56 EF               [12] 6249 	mov	a,r7
      001A57 30 E0 01         [24] 6250 	jnb	acc.0,00113$
                                   6251 ;	/home/user/contiki/cpu/cc2530edm_aman/usb/usb-arch.c:1103: return;
      001A5A 22               [24] 6252 	ret
      001A5B                       6253 00113$:
                                   6254 ;	/home/user/contiki/cpu/cc2530edm_aman/usb/usb-arch.c:1107: res = ep0_tx();
      001A5B 12r17r30         [24] 6255 	lcall	_ep0_tx
      001A5E AE 82            [24] 6256 	mov	r6,dpl
      001A60 8E 07            [24] 6257 	mov	ar7,r6
                                   6258 ;	/home/user/contiki/cpu/cc2530edm_aman/usb/usb-arch.c:1109: if(res & USB_WRITE_NOTIFY) {
      001A62 EF               [12] 6259 	mov	a,r7
      001A63 30 E1 14         [24] 6260 	jnb	acc.1,00116$
                                   6261 ;	/home/user/contiki/cpu/cc2530edm_aman/usb/usb-arch.c:1110: notify_ep_process(&usb_endpoints[0], USB_EP_EVENT_NOTIFICATION);
      001A66 74 01            [12] 6262 	mov	a,#0x01
      001A68 C0 E0            [24] 6263 	push	acc
      001A6A E4               [12] 6264 	clr	a
      001A6B C0 E0            [24] 6265 	push	acc
      001A6D 90r00r01         [24] 6266 	mov	dptr,#_usb_endpoints
      001A70 75 F0 00         [24] 6267 	mov	b,#0x00
      001A73 12r00r2F         [24] 6268 	lcall	_notify_ep_process
      001A76 15 81            [12] 6269 	dec	sp
      001A78 15 81            [12] 6270 	dec	sp
      001A7A                       6271 00116$:
      001A7A 22               [24] 6272 	ret
                                   6273 ;------------------------------------------------------------
                                   6274 ;Allocation info for local variables in function 'ep_tx'
                                   6275 ;------------------------------------------------------------
                                   6276 ;ep_hw                     Allocated to stack - sp -9
                                   6277 ;len                       Allocated to stack - sp -4
                                   6278 ;res                       Allocated to stack - sp -2
                                   6279 ;ep                        Allocated to registers r4 r3 r5 
                                   6280 ;copy                      Allocated to stack - sp -1
                                   6281 ;sloc0                     Allocated to stack - sp -8
                                   6282 ;sloc1                     Allocated to stack - sp -5
                                   6283 ;------------------------------------------------------------
                                   6284 ;	/home/user/contiki/cpu/cc2530edm_aman/usb/usb-arch.c:1116: ep_tx(uint8_t ep_hw)
                                   6285 ;	-----------------------------------------
                                   6286 ;	 function ep_tx
                                   6287 ;	-----------------------------------------
      001A7B                       6288 _ep_tx:
      001A7B C0 82            [24] 6289 	push	dpl
      001A7D E5 81            [12] 6290 	mov	a,sp
      001A7F 24 09            [12] 6291 	add	a,#0x09
      001A81 F5 81            [12] 6292 	mov	sp,a
                                   6293 ;	/home/user/contiki/cpu/cc2530edm_aman/usb/usb-arch.c:1119: uint8_t res = 0;
      001A83 A8 81            [24] 6294 	mov	r0,sp
      001A85 18               [12] 6295 	dec	r0
      001A86 18               [12] 6296 	dec	r0
      001A87 76 00            [12] 6297 	mov	@r0,#0x00
                                   6298 ;	/home/user/contiki/cpu/cc2530edm_aman/usb/usb-arch.c:1120: USBEndpoint *ep = EP_STRUCT(ep_hw);
      001A89 E5 81            [12] 6299 	mov	a,sp
      001A8B 24 F7            [12] 6300 	add	a,#0xf7
      001A8D F8               [12] 6301 	mov	r0,a
      001A8E 74 7F            [12] 6302 	mov	a,#0x7F
      001A90 56               [12] 6303 	anl	a,@r0
      001A91 75 F0 0D         [24] 6304 	mov	b,#0x0D
      001A94 A4               [48] 6305 	mul	ab
      001A95 24r01            [12] 6306 	add	a,#_usb_endpoints
      001A97 FC               [12] 6307 	mov	r4,a
      001A98 74s00            [12] 6308 	mov	a,#(_usb_endpoints >> 8)
      001A9A 35 F0            [12] 6309 	addc	a,b
      001A9C FB               [12] 6310 	mov	r3,a
      001A9D 7D 00            [12] 6311 	mov	r5,#0x00
                                   6312 ;	/home/user/contiki/cpu/cc2530edm_aman/usb/usb-arch.c:1122: len = ep->xfer_size;
      001A9F 74 0B            [12] 6313 	mov	a,#0x0B
      001AA1 2C               [12] 6314 	add	a,r4
      001AA2 FA               [12] 6315 	mov	r2,a
      001AA3 E4               [12] 6316 	clr	a
      001AA4 3B               [12] 6317 	addc	a,r3
      001AA5 FE               [12] 6318 	mov	r6,a
      001AA6 8D 07            [24] 6319 	mov	ar7,r5
      001AA8 8A 82            [24] 6320 	mov	dpl,r2
      001AAA 8E 83            [24] 6321 	mov	dph,r6
      001AAC 8F F0            [24] 6322 	mov	b,r7
      001AAE E5 81            [12] 6323 	mov	a,sp
      001AB0 24 FC            [12] 6324 	add	a,#0xfc
      001AB2 F8               [12] 6325 	mov	r0,a
      001AB3 12r00r00         [24] 6326 	lcall	__gptrget
      001AB6 F6               [12] 6327 	mov	@r0,a
      001AB7 A3               [24] 6328 	inc	dptr
      001AB8 12r00r00         [24] 6329 	lcall	__gptrget
      001ABB 08               [12] 6330 	inc	r0
      001ABC F6               [12] 6331 	mov	@r0,a
                                   6332 ;	/home/user/contiki/cpu/cc2530edm_aman/usb/usb-arch.c:1124: if(ep->halted) {
      001ABD 8C 82            [24] 6333 	mov	dpl,r4
      001ABF 8B 83            [24] 6334 	mov	dph,r3
      001AC1 8D F0            [24] 6335 	mov	b,r5
      001AC3 12r00r00         [24] 6336 	lcall	__gptrget
      001AC6 60 06            [24] 6337 	jz	00102$
                                   6338 ;	/home/user/contiki/cpu/cc2530edm_aman/usb/usb-arch.c:1125: return 0;
      001AC8 75 82 00         [24] 6339 	mov	dpl,#0x00
      001ACB 02r1Er01         [24] 6340 	ljmp	00123$
      001ACE                       6341 00102$:
                                   6342 ;	/home/user/contiki/cpu/cc2530edm_aman/usb/usb-arch.c:1128: if(!ep->buffer || !(ep->buffer->flags & USB_BUFFER_IN)) {
      001ACE 74 03            [12] 6343 	mov	a,#0x03
      001AD0 2C               [12] 6344 	add	a,r4
      001AD1 FC               [12] 6345 	mov	r4,a
      001AD2 E4               [12] 6346 	clr	a
      001AD3 3B               [12] 6347 	addc	a,r3
      001AD4 FB               [12] 6348 	mov	r3,a
      001AD5 8C 82            [24] 6349 	mov	dpl,r4
      001AD7 8B 83            [24] 6350 	mov	dph,r3
      001AD9 8D F0            [24] 6351 	mov	b,r5
      001ADB 12r00r00         [24] 6352 	lcall	__gptrget
      001ADE FA               [12] 6353 	mov	r2,a
      001ADF A3               [24] 6354 	inc	dptr
      001AE0 12r00r00         [24] 6355 	lcall	__gptrget
      001AE3 FE               [12] 6356 	mov	r6,a
      001AE4 A3               [24] 6357 	inc	dptr
      001AE5 12r00r00         [24] 6358 	lcall	__gptrget
      001AE8 FF               [12] 6359 	mov	r7,a
      001AE9 EA               [12] 6360 	mov	a,r2
      001AEA 4E               [12] 6361 	orl	a,r6
      001AEB 60 1A            [24] 6362 	jz	00103$
      001AED 74 08            [12] 6363 	mov	a,#0x08
      001AEF 2A               [12] 6364 	add	a,r2
      001AF0 FA               [12] 6365 	mov	r2,a
      001AF1 E4               [12] 6366 	clr	a
      001AF2 3E               [12] 6367 	addc	a,r6
      001AF3 FE               [12] 6368 	mov	r6,a
      001AF4 8A 82            [24] 6369 	mov	dpl,r2
      001AF6 8E 83            [24] 6370 	mov	dph,r6
      001AF8 8F F0            [24] 6371 	mov	b,r7
      001AFA 12r00r00         [24] 6372 	lcall	__gptrget
      001AFD FA               [12] 6373 	mov	r2,a
      001AFE A3               [24] 6374 	inc	dptr
      001AFF 12r00r00         [24] 6375 	lcall	__gptrget
      001B02 FE               [12] 6376 	mov	r6,a
      001B03 EA               [12] 6377 	mov	a,r2
      001B04 20 E6 06         [24] 6378 	jb	acc.6,00133$
      001B07                       6379 00103$:
                                   6380 ;	/home/user/contiki/cpu/cc2530edm_aman/usb/usb-arch.c:1129: return 0;
      001B07 75 82 00         [24] 6381 	mov	dpl,#0x00
      001B0A 02r1Er01         [24] 6382 	ljmp	00123$
                                   6383 ;	/home/user/contiki/cpu/cc2530edm_aman/usb/usb-arch.c:1132: while(ep->buffer) {
      001B0D                       6384 00133$:
      001B0D E5 81            [12] 6385 	mov	a,sp
      001B0F 24 F7            [12] 6386 	add	a,#0xf7
      001B11 F8               [12] 6387 	mov	r0,a
      001B12 E5 81            [12] 6388 	mov	a,sp
      001B14 24 FB            [12] 6389 	add	a,#0xfb
      001B16 F9               [12] 6390 	mov	r1,a
      001B17 74 7F            [12] 6391 	mov	a,#0x7F
      001B19 56               [12] 6392 	anl	a,@r0
      001B1A F7               [12] 6393 	mov	@r1,a
      001B1B                       6394 00120$:
      001B1B 8C 82            [24] 6395 	mov	dpl,r4
      001B1D 8B 83            [24] 6396 	mov	dph,r3
      001B1F 8D F0            [24] 6397 	mov	b,r5
      001B21 12r00r00         [24] 6398 	lcall	__gptrget
      001B24 FA               [12] 6399 	mov	r2,a
      001B25 A3               [24] 6400 	inc	dptr
      001B26 12r00r00         [24] 6401 	lcall	__gptrget
      001B29 FE               [12] 6402 	mov	r6,a
      001B2A A3               [24] 6403 	inc	dptr
      001B2B 12r00r00         [24] 6404 	lcall	__gptrget
      001B2E FF               [12] 6405 	mov	r7,a
      001B2F EA               [12] 6406 	mov	a,r2
      001B30 4E               [12] 6407 	orl	a,r6
      001B31 70 03            [24] 6408 	jnz	00155$
      001B33 02r1DrF3         [24] 6409 	ljmp	00122$
      001B36                       6410 00155$:
                                   6411 ;	/home/user/contiki/cpu/cc2530edm_aman/usb/usb-arch.c:1135: if(ep->buffer->left < len) {
      001B36 74 06            [12] 6412 	mov	a,#0x06
      001B38 2A               [12] 6413 	add	a,r2
      001B39 FA               [12] 6414 	mov	r2,a
      001B3A E4               [12] 6415 	clr	a
      001B3B 3E               [12] 6416 	addc	a,r6
      001B3C FE               [12] 6417 	mov	r6,a
      001B3D 8A 82            [24] 6418 	mov	dpl,r2
      001B3F 8E 83            [24] 6419 	mov	dph,r6
      001B41 8F F0            [24] 6420 	mov	b,r7
      001B43 E5 81            [12] 6421 	mov	a,sp
      001B45 24 F8            [12] 6422 	add	a,#0xf8
      001B47 F8               [12] 6423 	mov	r0,a
      001B48 12r00r00         [24] 6424 	lcall	__gptrget
      001B4B F6               [12] 6425 	mov	@r0,a
      001B4C A3               [24] 6426 	inc	dptr
      001B4D 12r00r00         [24] 6427 	lcall	__gptrget
      001B50 08               [12] 6428 	inc	r0
      001B51 F6               [12] 6429 	mov	@r0,a
      001B52 E5 81            [12] 6430 	mov	a,sp
      001B54 24 F8            [12] 6431 	add	a,#0xf8
      001B56 F8               [12] 6432 	mov	r0,a
      001B57 E5 81            [12] 6433 	mov	a,sp
      001B59 24 FC            [12] 6434 	add	a,#0xfc
      001B5B F9               [12] 6435 	mov	r1,a
      001B5C C3               [12] 6436 	clr	c
      001B5D E6               [12] 6437 	mov	a,@r0
      001B5E 97               [12] 6438 	subb	a,@r1
      001B5F 08               [12] 6439 	inc	r0
      001B60 E6               [12] 6440 	mov	a,@r0
      001B61 09               [12] 6441 	inc	r1
      001B62 97               [12] 6442 	subb	a,@r1
      001B63 50 14            [24] 6443 	jnc	00107$
                                   6444 ;	/home/user/contiki/cpu/cc2530edm_aman/usb/usb-arch.c:1136: copy = ep->buffer->left;
      001B65 E5 81            [12] 6445 	mov	a,sp
      001B67 24 F8            [12] 6446 	add	a,#0xf8
      001B69 F8               [12] 6447 	mov	r0,a
      001B6A 86 06            [24] 6448 	mov	ar6,@r0
      001B6C 08               [12] 6449 	inc	r0
      001B6D 86 07            [24] 6450 	mov	ar7,@r0
      001B6F A8 81            [24] 6451 	mov	r0,sp
      001B71 18               [12] 6452 	dec	r0
      001B72 A6 06            [24] 6453 	mov	@r0,ar6
      001B74 08               [12] 6454 	inc	r0
      001B75 A6 07            [24] 6455 	mov	@r0,ar7
      001B77 80 0E            [24] 6456 	sjmp	00108$
      001B79                       6457 00107$:
                                   6458 ;	/home/user/contiki/cpu/cc2530edm_aman/usb/usb-arch.c:1138: copy = len;
      001B79 E5 81            [12] 6459 	mov	a,sp
      001B7B 24 FC            [12] 6460 	add	a,#0xfc
      001B7D F8               [12] 6461 	mov	r0,a
      001B7E A9 81            [24] 6462 	mov	r1,sp
      001B80 19               [12] 6463 	dec	r1
      001B81 E6               [12] 6464 	mov	a,@r0
      001B82 F7               [12] 6465 	mov	@r1,a
      001B83 08               [12] 6466 	inc	r0
      001B84 09               [12] 6467 	inc	r1
      001B85 E6               [12] 6468 	mov	a,@r0
      001B86 F7               [12] 6469 	mov	@r1,a
      001B87                       6470 00108$:
                                   6471 ;	/home/user/contiki/cpu/cc2530edm_aman/usb/usb-arch.c:1141: len -= copy;
      001B87 E5 81            [12] 6472 	mov	a,sp
      001B89 24 FC            [12] 6473 	add	a,#0xfc
      001B8B F8               [12] 6474 	mov	r0,a
      001B8C A9 81            [24] 6475 	mov	r1,sp
      001B8E 19               [12] 6476 	dec	r1
      001B8F E6               [12] 6477 	mov	a,@r0
      001B90 C3               [12] 6478 	clr	c
      001B91 97               [12] 6479 	subb	a,@r1
      001B92 F6               [12] 6480 	mov	@r0,a
      001B93 08               [12] 6481 	inc	r0
      001B94 E6               [12] 6482 	mov	a,@r0
      001B95 09               [12] 6483 	inc	r1
      001B96 97               [12] 6484 	subb	a,@r1
      001B97 F6               [12] 6485 	mov	@r0,a
                                   6486 ;	/home/user/contiki/cpu/cc2530edm_aman/usb/usb-arch.c:1142: ep->buffer->left -= copy;
      001B98 8C 82            [24] 6487 	mov	dpl,r4
      001B9A 8B 83            [24] 6488 	mov	dph,r3
      001B9C 8D F0            [24] 6489 	mov	b,r5
      001B9E 12r00r00         [24] 6490 	lcall	__gptrget
      001BA1 FA               [12] 6491 	mov	r2,a
      001BA2 A3               [24] 6492 	inc	dptr
      001BA3 12r00r00         [24] 6493 	lcall	__gptrget
      001BA6 FE               [12] 6494 	mov	r6,a
      001BA7 A3               [24] 6495 	inc	dptr
      001BA8 12r00r00         [24] 6496 	lcall	__gptrget
      001BAB FF               [12] 6497 	mov	r7,a
      001BAC E5 81            [12] 6498 	mov	a,sp
      001BAE 24 F8            [12] 6499 	add	a,#0xf8
      001BB0 F8               [12] 6500 	mov	r0,a
      001BB1 74 06            [12] 6501 	mov	a,#0x06
      001BB3 2A               [12] 6502 	add	a,r2
      001BB4 F6               [12] 6503 	mov	@r0,a
      001BB5 E4               [12] 6504 	clr	a
      001BB6 3E               [12] 6505 	addc	a,r6
      001BB7 08               [12] 6506 	inc	r0
      001BB8 F6               [12] 6507 	mov	@r0,a
      001BB9 08               [12] 6508 	inc	r0
      001BBA A6 07            [24] 6509 	mov	@r0,ar7
      001BBC E5 81            [12] 6510 	mov	a,sp
      001BBE 24 F8            [12] 6511 	add	a,#0xf8
      001BC0 F8               [12] 6512 	mov	r0,a
      001BC1 86 82            [24] 6513 	mov	dpl,@r0
      001BC3 08               [12] 6514 	inc	r0
      001BC4 86 83            [24] 6515 	mov	dph,@r0
      001BC6 08               [12] 6516 	inc	r0
      001BC7 86 F0            [24] 6517 	mov	b,@r0
      001BC9 12r00r00         [24] 6518 	lcall	__gptrget
      001BCC FE               [12] 6519 	mov	r6,a
      001BCD A3               [24] 6520 	inc	dptr
      001BCE 12r00r00         [24] 6521 	lcall	__gptrget
      001BD1 FF               [12] 6522 	mov	r7,a
      001BD2 A8 81            [24] 6523 	mov	r0,sp
      001BD4 18               [12] 6524 	dec	r0
      001BD5 EE               [12] 6525 	mov	a,r6
      001BD6 C3               [12] 6526 	clr	c
      001BD7 96               [12] 6527 	subb	a,@r0
      001BD8 FE               [12] 6528 	mov	r6,a
      001BD9 EF               [12] 6529 	mov	a,r7
      001BDA 08               [12] 6530 	inc	r0
      001BDB 96               [12] 6531 	subb	a,@r0
      001BDC FF               [12] 6532 	mov	r7,a
      001BDD E5 81            [12] 6533 	mov	a,sp
      001BDF 24 F8            [12] 6534 	add	a,#0xf8
      001BE1 F8               [12] 6535 	mov	r0,a
      001BE2 86 82            [24] 6536 	mov	dpl,@r0
      001BE4 08               [12] 6537 	inc	r0
      001BE5 86 83            [24] 6538 	mov	dph,@r0
      001BE7 08               [12] 6539 	inc	r0
      001BE8 86 F0            [24] 6540 	mov	b,@r0
      001BEA EE               [12] 6541 	mov	a,r6
      001BEB 12r00r00         [24] 6542 	lcall	__gptrput
      001BEE A3               [24] 6543 	inc	dptr
      001BEF EF               [12] 6544 	mov	a,r7
      001BF0 12r00r00         [24] 6545 	lcall	__gptrput
                                   6546 ;	/home/user/contiki/cpu/cc2530edm_aman/usb/usb-arch.c:1143: write_hw_buffer(EP_INDEX(ep_hw), ep->buffer->data, copy);
      001BF3 8C 82            [24] 6547 	mov	dpl,r4
      001BF5 8B 83            [24] 6548 	mov	dph,r3
      001BF7 8D F0            [24] 6549 	mov	b,r5
      001BF9 12r00r00         [24] 6550 	lcall	__gptrget
      001BFC FA               [12] 6551 	mov	r2,a
      001BFD A3               [24] 6552 	inc	dptr
      001BFE 12r00r00         [24] 6553 	lcall	__gptrget
      001C01 FE               [12] 6554 	mov	r6,a
      001C02 A3               [24] 6555 	inc	dptr
      001C03 12r00r00         [24] 6556 	lcall	__gptrget
      001C06 FF               [12] 6557 	mov	r7,a
      001C07 74 03            [12] 6558 	mov	a,#0x03
      001C09 2A               [12] 6559 	add	a,r2
      001C0A FA               [12] 6560 	mov	r2,a
      001C0B E4               [12] 6561 	clr	a
      001C0C 3E               [12] 6562 	addc	a,r6
      001C0D FE               [12] 6563 	mov	r6,a
      001C0E 8A 82            [24] 6564 	mov	dpl,r2
      001C10 8E 83            [24] 6565 	mov	dph,r6
      001C12 8F F0            [24] 6566 	mov	b,r7
      001C14 12r00r00         [24] 6567 	lcall	__gptrget
      001C17 FA               [12] 6568 	mov	r2,a
      001C18 A3               [24] 6569 	inc	dptr
      001C19 12r00r00         [24] 6570 	lcall	__gptrget
      001C1C FE               [12] 6571 	mov	r6,a
      001C1D A3               [24] 6572 	inc	dptr
      001C1E 12r00r00         [24] 6573 	lcall	__gptrget
      001C21 FF               [12] 6574 	mov	r7,a
      001C22 C0 05            [24] 6575 	push	ar5
      001C24 C0 04            [24] 6576 	push	ar4
      001C26 C0 03            [24] 6577 	push	ar3
      001C28 E5 81            [12] 6578 	mov	a,sp
      001C2A 24 FC            [12] 6579 	add	a,#0xfc
      001C2C F8               [12] 6580 	mov	r0,a
      001C2D E6               [12] 6581 	mov	a,@r0
      001C2E C0 E0            [24] 6582 	push	acc
      001C30 08               [12] 6583 	inc	r0
      001C31 E6               [12] 6584 	mov	a,@r0
      001C32 C0 E0            [24] 6585 	push	acc
      001C34 C0 02            [24] 6586 	push	ar2
      001C36 C0 06            [24] 6587 	push	ar6
      001C38 C0 07            [24] 6588 	push	ar7
      001C3A E5 81            [12] 6589 	mov	a,sp
      001C3C 24 F3            [12] 6590 	add	a,#0xf3
      001C3E F8               [12] 6591 	mov	r0,a
      001C3F 86 82            [24] 6592 	mov	dpl,@r0
      001C41 12r01rF3         [24] 6593 	lcall	_write_hw_buffer
      001C44 E5 81            [12] 6594 	mov	a,sp
      001C46 24 FB            [12] 6595 	add	a,#0xfb
      001C48 F5 81            [12] 6596 	mov	sp,a
      001C4A D0 03            [24] 6597 	pop	ar3
      001C4C D0 04            [24] 6598 	pop	ar4
      001C4E D0 05            [24] 6599 	pop	ar5
                                   6600 ;	/home/user/contiki/cpu/cc2530edm_aman/usb/usb-arch.c:1144: ep->buffer->data += copy;
      001C50 8C 82            [24] 6601 	mov	dpl,r4
      001C52 8B 83            [24] 6602 	mov	dph,r3
      001C54 8D F0            [24] 6603 	mov	b,r5
      001C56 12r00r00         [24] 6604 	lcall	__gptrget
      001C59 FA               [12] 6605 	mov	r2,a
      001C5A A3               [24] 6606 	inc	dptr
      001C5B 12r00r00         [24] 6607 	lcall	__gptrget
      001C5E FE               [12] 6608 	mov	r6,a
      001C5F A3               [24] 6609 	inc	dptr
      001C60 12r00r00         [24] 6610 	lcall	__gptrget
      001C63 FF               [12] 6611 	mov	r7,a
      001C64 E5 81            [12] 6612 	mov	a,sp
      001C66 24 F8            [12] 6613 	add	a,#0xf8
      001C68 F8               [12] 6614 	mov	r0,a
      001C69 74 03            [12] 6615 	mov	a,#0x03
      001C6B 2A               [12] 6616 	add	a,r2
      001C6C F6               [12] 6617 	mov	@r0,a
      001C6D E4               [12] 6618 	clr	a
      001C6E 3E               [12] 6619 	addc	a,r6
      001C6F 08               [12] 6620 	inc	r0
      001C70 F6               [12] 6621 	mov	@r0,a
      001C71 08               [12] 6622 	inc	r0
      001C72 A6 07            [24] 6623 	mov	@r0,ar7
      001C74 E5 81            [12] 6624 	mov	a,sp
      001C76 24 F8            [12] 6625 	add	a,#0xf8
      001C78 F8               [12] 6626 	mov	r0,a
      001C79 86 82            [24] 6627 	mov	dpl,@r0
      001C7B 08               [12] 6628 	inc	r0
      001C7C 86 83            [24] 6629 	mov	dph,@r0
      001C7E 08               [12] 6630 	inc	r0
      001C7F 86 F0            [24] 6631 	mov	b,@r0
      001C81 12r00r00         [24] 6632 	lcall	__gptrget
      001C84 FA               [12] 6633 	mov	r2,a
      001C85 A3               [24] 6634 	inc	dptr
      001C86 12r00r00         [24] 6635 	lcall	__gptrget
      001C89 FE               [12] 6636 	mov	r6,a
      001C8A A3               [24] 6637 	inc	dptr
      001C8B 12r00r00         [24] 6638 	lcall	__gptrget
      001C8E FF               [12] 6639 	mov	r7,a
      001C8F A8 81            [24] 6640 	mov	r0,sp
      001C91 18               [12] 6641 	dec	r0
      001C92 E6               [12] 6642 	mov	a,@r0
      001C93 2A               [12] 6643 	add	a,r2
      001C94 FA               [12] 6644 	mov	r2,a
      001C95 08               [12] 6645 	inc	r0
      001C96 E6               [12] 6646 	mov	a,@r0
      001C97 3E               [12] 6647 	addc	a,r6
      001C98 FE               [12] 6648 	mov	r6,a
      001C99 E5 81            [12] 6649 	mov	a,sp
      001C9B 24 F8            [12] 6650 	add	a,#0xf8
      001C9D F8               [12] 6651 	mov	r0,a
      001C9E 86 82            [24] 6652 	mov	dpl,@r0
      001CA0 08               [12] 6653 	inc	r0
      001CA1 86 83            [24] 6654 	mov	dph,@r0
      001CA3 08               [12] 6655 	inc	r0
      001CA4 86 F0            [24] 6656 	mov	b,@r0
      001CA6 EA               [12] 6657 	mov	a,r2
      001CA7 12r00r00         [24] 6658 	lcall	__gptrput
      001CAA A3               [24] 6659 	inc	dptr
      001CAB EE               [12] 6660 	mov	a,r6
      001CAC 12r00r00         [24] 6661 	lcall	__gptrput
      001CAF A3               [24] 6662 	inc	dptr
      001CB0 EF               [12] 6663 	mov	a,r7
      001CB1 12r00r00         [24] 6664 	lcall	__gptrput
                                   6665 ;	/home/user/contiki/cpu/cc2530edm_aman/usb/usb-arch.c:1146: if(ep->buffer->left == 0) {
      001CB4 8C 82            [24] 6666 	mov	dpl,r4
      001CB6 8B 83            [24] 6667 	mov	dph,r3
      001CB8 8D F0            [24] 6668 	mov	b,r5
      001CBA 12r00r00         [24] 6669 	lcall	__gptrget
      001CBD FA               [12] 6670 	mov	r2,a
      001CBE A3               [24] 6671 	inc	dptr
      001CBF 12r00r00         [24] 6672 	lcall	__gptrget
      001CC2 FE               [12] 6673 	mov	r6,a
      001CC3 A3               [24] 6674 	inc	dptr
      001CC4 12r00r00         [24] 6675 	lcall	__gptrget
      001CC7 FF               [12] 6676 	mov	r7,a
      001CC8 C0 04            [24] 6677 	push	ar4
      001CCA C0 03            [24] 6678 	push	ar3
      001CCC C0 05            [24] 6679 	push	ar5
      001CCE 74 06            [12] 6680 	mov	a,#0x06
      001CD0 2A               [12] 6681 	add	a,r2
      001CD1 FB               [12] 6682 	mov	r3,a
      001CD2 E4               [12] 6683 	clr	a
      001CD3 3E               [12] 6684 	addc	a,r6
      001CD4 FC               [12] 6685 	mov	r4,a
      001CD5 8F 05            [24] 6686 	mov	ar5,r7
      001CD7 8B 82            [24] 6687 	mov	dpl,r3
      001CD9 8C 83            [24] 6688 	mov	dph,r4
      001CDB 8D F0            [24] 6689 	mov	b,r5
      001CDD 12r00r00         [24] 6690 	lcall	__gptrget
      001CE0 FB               [12] 6691 	mov	r3,a
      001CE1 A3               [24] 6692 	inc	dptr
      001CE2 12r00r00         [24] 6693 	lcall	__gptrget
      001CE5 4B               [12] 6694 	orl	a,r3
      001CE6 D0 05            [24] 6695 	pop	ar5
      001CE8 D0 03            [24] 6696 	pop	ar3
      001CEA D0 04            [24] 6697 	pop	ar4
      001CEC 60 03            [24] 6698 	jz	00157$
      001CEE 02r1DrE6         [24] 6699 	ljmp	00117$
      001CF1                       6700 00157$:
                                   6701 ;	/home/user/contiki/cpu/cc2530edm_aman/usb/usb-arch.c:1147: if(ep->buffer->flags & USB_BUFFER_SHORT_END) {
      001CF1 74 08            [12] 6702 	mov	a,#0x08
      001CF3 2A               [12] 6703 	add	a,r2
      001CF4 FA               [12] 6704 	mov	r2,a
      001CF5 E4               [12] 6705 	clr	a
      001CF6 3E               [12] 6706 	addc	a,r6
      001CF7 FE               [12] 6707 	mov	r6,a
      001CF8 8A 82            [24] 6708 	mov	dpl,r2
      001CFA 8E 83            [24] 6709 	mov	dph,r6
      001CFC 8F F0            [24] 6710 	mov	b,r7
      001CFE 12r00r00         [24] 6711 	lcall	__gptrget
      001D01 FA               [12] 6712 	mov	r2,a
      001D02 A3               [24] 6713 	inc	dptr
      001D03 12r00r00         [24] 6714 	lcall	__gptrget
      001D06 FE               [12] 6715 	mov	r6,a
      001D07 EA               [12] 6716 	mov	a,r2
      001D08 30 E1 16         [24] 6717 	jnb	acc.1,00113$
                                   6718 ;	/home/user/contiki/cpu/cc2530edm_aman/usb/usb-arch.c:1148: if(len == 0) {
      001D0B E5 81            [12] 6719 	mov	a,sp
      001D0D 24 FC            [12] 6720 	add	a,#0xfc
      001D0F F8               [12] 6721 	mov	r0,a
      001D10 E6               [12] 6722 	mov	a,@r0
      001D11 08               [12] 6723 	inc	r0
      001D12 46               [12] 6724 	orl	a,@r0
      001D13 70 03            [24] 6725 	jnz	00159$
      001D15 02r1DrF3         [24] 6726 	ljmp	00122$
      001D18                       6727 00159$:
                                   6728 ;	/home/user/contiki/cpu/cc2530edm_aman/usb/usb-arch.c:1151: len = 0;              // Stop looking for more data to send
      001D18 E5 81            [12] 6729 	mov	a,sp
      001D1A 24 FC            [12] 6730 	add	a,#0xfc
      001D1C F8               [12] 6731 	mov	r0,a
      001D1D E4               [12] 6732 	clr	a
      001D1E F6               [12] 6733 	mov	@r0,a
      001D1F 08               [12] 6734 	inc	r0
      001D20 F6               [12] 6735 	mov	@r0,a
      001D21                       6736 00113$:
                                   6737 ;	/home/user/contiki/cpu/cc2530edm_aman/usb/usb-arch.c:1154: ep->buffer->flags &= ~USB_BUFFER_SUBMITTED;
      001D21 8C 82            [24] 6738 	mov	dpl,r4
      001D23 8B 83            [24] 6739 	mov	dph,r3
      001D25 8D F0            [24] 6740 	mov	b,r5
      001D27 12r00r00         [24] 6741 	lcall	__gptrget
      001D2A FA               [12] 6742 	mov	r2,a
      001D2B A3               [24] 6743 	inc	dptr
      001D2C 12r00r00         [24] 6744 	lcall	__gptrget
      001D2F FE               [12] 6745 	mov	r6,a
      001D30 A3               [24] 6746 	inc	dptr
      001D31 12r00r00         [24] 6747 	lcall	__gptrget
      001D34 FF               [12] 6748 	mov	r7,a
      001D35 E5 81            [12] 6749 	mov	a,sp
      001D37 24 F8            [12] 6750 	add	a,#0xf8
      001D39 F8               [12] 6751 	mov	r0,a
      001D3A 74 08            [12] 6752 	mov	a,#0x08
      001D3C 2A               [12] 6753 	add	a,r2
      001D3D F6               [12] 6754 	mov	@r0,a
      001D3E E4               [12] 6755 	clr	a
      001D3F 3E               [12] 6756 	addc	a,r6
      001D40 08               [12] 6757 	inc	r0
      001D41 F6               [12] 6758 	mov	@r0,a
      001D42 08               [12] 6759 	inc	r0
      001D43 A6 07            [24] 6760 	mov	@r0,ar7
      001D45 E5 81            [12] 6761 	mov	a,sp
      001D47 24 F8            [12] 6762 	add	a,#0xf8
      001D49 F8               [12] 6763 	mov	r0,a
      001D4A 86 82            [24] 6764 	mov	dpl,@r0
      001D4C 08               [12] 6765 	inc	r0
      001D4D 86 83            [24] 6766 	mov	dph,@r0
      001D4F 08               [12] 6767 	inc	r0
      001D50 86 F0            [24] 6768 	mov	b,@r0
      001D52 12r00r00         [24] 6769 	lcall	__gptrget
      001D55 FE               [12] 6770 	mov	r6,a
      001D56 A3               [24] 6771 	inc	dptr
      001D57 12r00r00         [24] 6772 	lcall	__gptrget
      001D5A FF               [12] 6773 	mov	r7,a
      001D5B 53 06 FE         [24] 6774 	anl	ar6,#0xFE
      001D5E E5 81            [12] 6775 	mov	a,sp
      001D60 24 F8            [12] 6776 	add	a,#0xf8
      001D62 F8               [12] 6777 	mov	r0,a
      001D63 86 82            [24] 6778 	mov	dpl,@r0
      001D65 08               [12] 6779 	inc	r0
      001D66 86 83            [24] 6780 	mov	dph,@r0
      001D68 08               [12] 6781 	inc	r0
      001D69 86 F0            [24] 6782 	mov	b,@r0
      001D6B EE               [12] 6783 	mov	a,r6
      001D6C 12r00r00         [24] 6784 	lcall	__gptrput
      001D6F A3               [24] 6785 	inc	dptr
      001D70 EF               [12] 6786 	mov	a,r7
      001D71 12r00r00         [24] 6787 	lcall	__gptrput
                                   6788 ;	/home/user/contiki/cpu/cc2530edm_aman/usb/usb-arch.c:1155: if(ep->buffer->flags & USB_BUFFER_NOTIFY) {
      001D74 8C 82            [24] 6789 	mov	dpl,r4
      001D76 8B 83            [24] 6790 	mov	dph,r3
      001D78 8D F0            [24] 6791 	mov	b,r5
      001D7A 12r00r00         [24] 6792 	lcall	__gptrget
      001D7D FA               [12] 6793 	mov	r2,a
      001D7E A3               [24] 6794 	inc	dptr
      001D7F 12r00r00         [24] 6795 	lcall	__gptrget
      001D82 FE               [12] 6796 	mov	r6,a
      001D83 A3               [24] 6797 	inc	dptr
      001D84 12r00r00         [24] 6798 	lcall	__gptrget
      001D87 FF               [12] 6799 	mov	r7,a
      001D88 74 08            [12] 6800 	mov	a,#0x08
      001D8A 2A               [12] 6801 	add	a,r2
      001D8B FA               [12] 6802 	mov	r2,a
      001D8C E4               [12] 6803 	clr	a
      001D8D 3E               [12] 6804 	addc	a,r6
      001D8E FE               [12] 6805 	mov	r6,a
      001D8F 8A 82            [24] 6806 	mov	dpl,r2
      001D91 8E 83            [24] 6807 	mov	dph,r6
      001D93 8F F0            [24] 6808 	mov	b,r7
      001D95 12r00r00         [24] 6809 	lcall	__gptrget
      001D98 FA               [12] 6810 	mov	r2,a
      001D99 A3               [24] 6811 	inc	dptr
      001D9A 12r00r00         [24] 6812 	lcall	__gptrget
      001D9D FE               [12] 6813 	mov	r6,a
      001D9E EA               [12] 6814 	mov	a,r2
      001D9F 30 E3 08         [24] 6815 	jnb	acc.3,00115$
                                   6816 ;	/home/user/contiki/cpu/cc2530edm_aman/usb/usb-arch.c:1156: res |= USB_WRITE_NOTIFY;
      001DA2 A8 81            [24] 6817 	mov	r0,sp
      001DA4 18               [12] 6818 	dec	r0
      001DA5 18               [12] 6819 	dec	r0
      001DA6 E6               [12] 6820 	mov	a,@r0
      001DA7 44 02            [12] 6821 	orl	a,#0x02
      001DA9 F6               [12] 6822 	mov	@r0,a
      001DAA                       6823 00115$:
                                   6824 ;	/home/user/contiki/cpu/cc2530edm_aman/usb/usb-arch.c:1158: ep->buffer = ep->buffer->next;
      001DAA 8C 82            [24] 6825 	mov	dpl,r4
      001DAC 8B 83            [24] 6826 	mov	dph,r3
      001DAE 8D F0            [24] 6827 	mov	b,r5
      001DB0 12r00r00         [24] 6828 	lcall	__gptrget
      001DB3 FA               [12] 6829 	mov	r2,a
      001DB4 A3               [24] 6830 	inc	dptr
      001DB5 12r00r00         [24] 6831 	lcall	__gptrget
      001DB8 FE               [12] 6832 	mov	r6,a
      001DB9 A3               [24] 6833 	inc	dptr
      001DBA 12r00r00         [24] 6834 	lcall	__gptrget
      001DBD FF               [12] 6835 	mov	r7,a
      001DBE 8A 82            [24] 6836 	mov	dpl,r2
      001DC0 8E 83            [24] 6837 	mov	dph,r6
      001DC2 8F F0            [24] 6838 	mov	b,r7
      001DC4 12r00r00         [24] 6839 	lcall	__gptrget
      001DC7 FA               [12] 6840 	mov	r2,a
      001DC8 A3               [24] 6841 	inc	dptr
      001DC9 12r00r00         [24] 6842 	lcall	__gptrget
      001DCC FE               [12] 6843 	mov	r6,a
      001DCD A3               [24] 6844 	inc	dptr
      001DCE 12r00r00         [24] 6845 	lcall	__gptrget
      001DD1 FF               [12] 6846 	mov	r7,a
      001DD2 8C 82            [24] 6847 	mov	dpl,r4
      001DD4 8B 83            [24] 6848 	mov	dph,r3
      001DD6 8D F0            [24] 6849 	mov	b,r5
      001DD8 EA               [12] 6850 	mov	a,r2
      001DD9 12r00r00         [24] 6851 	lcall	__gptrput
      001DDC A3               [24] 6852 	inc	dptr
      001DDD EE               [12] 6853 	mov	a,r6
      001DDE 12r00r00         [24] 6854 	lcall	__gptrput
      001DE1 A3               [24] 6855 	inc	dptr
      001DE2 EF               [12] 6856 	mov	a,r7
      001DE3 12r00r00         [24] 6857 	lcall	__gptrput
      001DE6                       6858 00117$:
                                   6859 ;	/home/user/contiki/cpu/cc2530edm_aman/usb/usb-arch.c:1160: if(len == 0)
      001DE6 E5 81            [12] 6860 	mov	a,sp
      001DE8 24 FC            [12] 6861 	add	a,#0xfc
      001DEA F8               [12] 6862 	mov	r0,a
      001DEB E6               [12] 6863 	mov	a,@r0
      001DEC 08               [12] 6864 	inc	r0
      001DED 46               [12] 6865 	orl	a,@r0
      001DEE 60 03            [24] 6866 	jz	00161$
      001DF0 02r1Br1B         [24] 6867 	ljmp	00120$
      001DF3                       6868 00161$:
                                   6869 ;	/home/user/contiki/cpu/cc2530edm_aman/usb/usb-arch.c:1161: break;                    // FIFO is full, send packet.
      001DF3                       6870 00122$:
                                   6871 ;	/home/user/contiki/cpu/cc2530edm_aman/usb/usb-arch.c:1164: USBCSIL |= USBCSIL_INPKT_RDY;
      001DF3 90 62 11         [24] 6872 	mov	dptr,#_USBCSIL
      001DF6 E0               [24] 6873 	movx	a,@dptr
      001DF7 FF               [12] 6874 	mov	r7,a
      001DF8 44 01            [12] 6875 	orl	a,#0x01
      001DFA F0               [24] 6876 	movx	@dptr,a
                                   6877 ;	/home/user/contiki/cpu/cc2530edm_aman/usb/usb-arch.c:1166: return res;
      001DFB A8 81            [24] 6878 	mov	r0,sp
      001DFD 18               [12] 6879 	dec	r0
      001DFE 18               [12] 6880 	dec	r0
      001DFF 86 82            [24] 6881 	mov	dpl,@r0
      001E01                       6882 00123$:
      001E01 E5 81            [12] 6883 	mov	a,sp
      001E03 24 F6            [12] 6884 	add	a,#0xF6
      001E05 F5 81            [12] 6885 	mov	sp,a
      001E07 22               [24] 6886 	ret
                                   6887 ;------------------------------------------------------------
                                   6888 ;Allocation info for local variables in function 'ep_get_data_pkt'
                                   6889 ;------------------------------------------------------------
                                   6890 ;ep_hw                     Allocated to stack - sp -10
                                   6891 ;pkt_len                   Allocated to stack - sp -5
                                   6892 ;res                       Allocated to registers r7 
                                   6893 ;short_packet              Allocated to stack - sp -3
                                   6894 ;ep                        Allocated to stack - sp -2
                                   6895 ;sloc0                     Allocated to stack - sp -8
                                   6896 ;sloc1                     Allocated to stack - sp -9
                                   6897 ;------------------------------------------------------------
                                   6898 ;	/home/user/contiki/cpu/cc2530edm_aman/usb/usb-arch.c:1171: ep_get_data_pkt(uint8_t ep_hw)
                                   6899 ;	-----------------------------------------
                                   6900 ;	 function ep_get_data_pkt
                                   6901 ;	-----------------------------------------
      001E08                       6902 _ep_get_data_pkt:
      001E08 C0 82            [24] 6903 	push	dpl
      001E0A E5 81            [12] 6904 	mov	a,sp
      001E0C 24 0A            [12] 6905 	add	a,#0x0A
                                   6906 ;	/home/user/contiki/cpu/cc2530edm_aman/usb/usb-arch.c:1175: uint8_t short_packet = 0;
      001E0E F5 81            [12] 6907 	mov	sp,a
      001E10 24 FD            [12] 6908 	add	a,#0xfd
      001E12 F8               [12] 6909 	mov	r0,a
      001E13 76 00            [12] 6910 	mov	@r0,#0x00
                                   6911 ;	/home/user/contiki/cpu/cc2530edm_aman/usb/usb-arch.c:1176: USBEndpoint *ep = EP_STRUCT(ep_hw);
      001E15 E5 81            [12] 6912 	mov	a,sp
      001E17 24 F6            [12] 6913 	add	a,#0xf6
      001E19 F8               [12] 6914 	mov	r0,a
      001E1A 74 7F            [12] 6915 	mov	a,#0x7F
      001E1C 56               [12] 6916 	anl	a,@r0
      001E1D 75 F0 0D         [24] 6917 	mov	b,#0x0D
      001E20 A4               [48] 6918 	mul	ab
      001E21 24r01            [12] 6919 	add	a,#_usb_endpoints
      001E23 FC               [12] 6920 	mov	r4,a
      001E24 74s00            [12] 6921 	mov	a,#(_usb_endpoints >> 8)
      001E26 35 F0            [12] 6922 	addc	a,b
      001E28 FD               [12] 6923 	mov	r5,a
      001E29 A8 81            [24] 6924 	mov	r0,sp
      001E2B 18               [12] 6925 	dec	r0
      001E2C 18               [12] 6926 	dec	r0
      001E2D A6 04            [24] 6927 	mov	@r0,ar4
      001E2F 08               [12] 6928 	inc	r0
      001E30 A6 05            [24] 6929 	mov	@r0,ar5
      001E32 08               [12] 6930 	inc	r0
      001E33 76 00            [12] 6931 	mov	@r0,#0x00
                                   6932 ;	/home/user/contiki/cpu/cc2530edm_aman/usb/usb-arch.c:1178: if(!ep->buffer) {
      001E35 A8 81            [24] 6933 	mov	r0,sp
      001E37 18               [12] 6934 	dec	r0
      001E38 18               [12] 6935 	dec	r0
      001E39 74 03            [12] 6936 	mov	a,#0x03
      001E3B 26               [12] 6937 	add	a,@r0
      001E3C FA               [12] 6938 	mov	r2,a
      001E3D E4               [12] 6939 	clr	a
      001E3E 08               [12] 6940 	inc	r0
      001E3F 36               [12] 6941 	addc	a,@r0
      001E40 FE               [12] 6942 	mov	r6,a
      001E41 08               [12] 6943 	inc	r0
      001E42 86 07            [24] 6944 	mov	ar7,@r0
      001E44 8A 82            [24] 6945 	mov	dpl,r2
      001E46 8E 83            [24] 6946 	mov	dph,r6
      001E48 8F F0            [24] 6947 	mov	b,r7
      001E4A E5 81            [12] 6948 	mov	a,sp
      001E4C 24 F8            [12] 6949 	add	a,#0xf8
      001E4E F8               [12] 6950 	mov	r0,a
      001E4F 12r00r00         [24] 6951 	lcall	__gptrget
      001E52 F6               [12] 6952 	mov	@r0,a
      001E53 A3               [24] 6953 	inc	dptr
      001E54 12r00r00         [24] 6954 	lcall	__gptrget
      001E57 08               [12] 6955 	inc	r0
      001E58 F6               [12] 6956 	mov	@r0,a
      001E59 A3               [24] 6957 	inc	dptr
      001E5A 12r00r00         [24] 6958 	lcall	__gptrget
      001E5D 08               [12] 6959 	inc	r0
      001E5E F6               [12] 6960 	mov	@r0,a
      001E5F E5 81            [12] 6961 	mov	a,sp
      001E61 24 F8            [12] 6962 	add	a,#0xf8
      001E63 F8               [12] 6963 	mov	r0,a
      001E64 E6               [12] 6964 	mov	a,@r0
      001E65 08               [12] 6965 	inc	r0
      001E66 46               [12] 6966 	orl	a,@r0
      001E67 70 06            [24] 6967 	jnz	00102$
                                   6968 ;	/home/user/contiki/cpu/cc2530edm_aman/usb/usb-arch.c:1179: return USB_READ_BLOCK;
      001E69 75 82 01         [24] 6969 	mov	dpl,#0x01
      001E6C 02r1FrAC         [24] 6970 	ljmp	00111$
      001E6F                       6971 00102$:
                                   6972 ;	/home/user/contiki/cpu/cc2530edm_aman/usb/usb-arch.c:1182: if(ep->buffer->flags & USB_BUFFER_HALT) {
      001E6F C0 02            [24] 6973 	push	ar2
      001E71 C0 06            [24] 6974 	push	ar6
      001E73 C0 07            [24] 6975 	push	ar7
      001E75 E5 81            [12] 6976 	mov	a,sp
      001E77 24 F5            [12] 6977 	add	a,#0xf5
      001E79 F8               [12] 6978 	mov	r0,a
      001E7A 74 08            [12] 6979 	mov	a,#0x08
      001E7C 26               [12] 6980 	add	a,@r0
      001E7D FA               [12] 6981 	mov	r2,a
      001E7E E4               [12] 6982 	clr	a
      001E7F 08               [12] 6983 	inc	r0
      001E80 36               [12] 6984 	addc	a,@r0
      001E81 FE               [12] 6985 	mov	r6,a
      001E82 08               [12] 6986 	inc	r0
      001E83 86 07            [24] 6987 	mov	ar7,@r0
      001E85 8A 82            [24] 6988 	mov	dpl,r2
      001E87 8E 83            [24] 6989 	mov	dph,r6
      001E89 8F F0            [24] 6990 	mov	b,r7
      001E8B 12r00r00         [24] 6991 	lcall	__gptrget
      001E8E A3               [24] 6992 	inc	dptr
      001E8F 12r00r00         [24] 6993 	lcall	__gptrget
      001E92 D0 07            [24] 6994 	pop	ar7
      001E94 D0 06            [24] 6995 	pop	ar6
      001E96 D0 02            [24] 6996 	pop	ar2
      001E98 30 E0 40         [24] 6997 	jnb	acc.0,00106$
                                   6998 ;	/home/user/contiki/cpu/cc2530edm_aman/usb/usb-arch.c:1183: ep->halted = 1;
      001E9B A8 81            [24] 6999 	mov	r0,sp
      001E9D 18               [12] 7000 	dec	r0
      001E9E 18               [12] 7001 	dec	r0
      001E9F 86 82            [24] 7002 	mov	dpl,@r0
      001EA1 08               [12] 7003 	inc	r0
      001EA2 86 83            [24] 7004 	mov	dph,@r0
      001EA4 08               [12] 7005 	inc	r0
      001EA5 86 F0            [24] 7006 	mov	b,@r0
      001EA7 74 01            [12] 7007 	mov	a,#0x01
      001EA9 12r00r00         [24] 7008 	lcall	__gptrput
                                   7009 ;	/home/user/contiki/cpu/cc2530edm_aman/usb/usb-arch.c:1184: if(!(USBCSOL & USBCSOL_SEND_STALL)) {
      001EAC 90 62 14         [24] 7010 	mov	dptr,#_USBCSOL
      001EAF E5 81            [12] 7011 	mov	a,sp
      001EB1 24 F7            [12] 7012 	add	a,#0xf7
      001EB3 F8               [12] 7013 	mov	r0,a
      001EB4 E0               [24] 7014 	movx	a,@dptr
      001EB5 F6               [12] 7015 	mov	@r0,a
      001EB6 E5 81            [12] 7016 	mov	a,sp
      001EB8 24 F7            [12] 7017 	add	a,#0xf7
      001EBA F8               [12] 7018 	mov	r0,a
      001EBB E6               [12] 7019 	mov	a,@r0
      001EBC 20 E5 16         [24] 7020 	jb	acc.5,00104$
                                   7021 ;	/home/user/contiki/cpu/cc2530edm_aman/usb/usb-arch.c:1185: USBCSOL |= USBCSOL_SEND_STALL;
      001EBF 90 62 14         [24] 7022 	mov	dptr,#_USBCSOL
      001EC2 E5 81            [12] 7023 	mov	a,sp
      001EC4 24 F7            [12] 7024 	add	a,#0xf7
      001EC6 F8               [12] 7025 	mov	r0,a
      001EC7 E0               [24] 7026 	movx	a,@dptr
      001EC8 F6               [12] 7027 	mov	@r0,a
      001EC9 E5 81            [12] 7028 	mov	a,sp
      001ECB 24 F7            [12] 7029 	add	a,#0xf7
      001ECD F8               [12] 7030 	mov	r0,a
      001ECE 90 62 14         [24] 7031 	mov	dptr,#_USBCSOL
      001ED1 74 20            [12] 7032 	mov	a,#0x20
      001ED3 46               [12] 7033 	orl	a,@r0
      001ED4 F0               [24] 7034 	movx	@dptr,a
      001ED5                       7035 00104$:
                                   7036 ;	/home/user/contiki/cpu/cc2530edm_aman/usb/usb-arch.c:1187: return 0;
      001ED5 75 82 00         [24] 7037 	mov	dpl,#0x00
      001ED8 02r1FrAC         [24] 7038 	ljmp	00111$
      001EDB                       7039 00106$:
                                   7040 ;	/home/user/contiki/cpu/cc2530edm_aman/usb/usb-arch.c:1190: pkt_len = USBCNTL | (USBCNTH << 8);
      001EDB C0 02            [24] 7041 	push	ar2
      001EDD C0 06            [24] 7042 	push	ar6
      001EDF C0 07            [24] 7043 	push	ar7
      001EE1 90 62 17         [24] 7044 	mov	dptr,#_USBCNTH
      001EE4 E0               [24] 7045 	movx	a,@dptr
      001EE5 FE               [12] 7046 	mov	r6,a
      001EE6 7F 00            [12] 7047 	mov	r7,#0x00
      001EE8 90 62 16         [24] 7048 	mov	dptr,#_USBCNTL
      001EEB E0               [24] 7049 	movx	a,@dptr
      001EEC FA               [12] 7050 	mov	r2,a
      001EED 7D 00            [12] 7051 	mov	r5,#0x00
      001EEF 42 07            [12] 7052 	orl	ar7,a
      001EF1 ED               [12] 7053 	mov	a,r5
      001EF2 42 06            [12] 7054 	orl	ar6,a
      001EF4 E5 81            [12] 7055 	mov	a,sp
      001EF6 24 F8            [12] 7056 	add	a,#0xf8
      001EF8 F8               [12] 7057 	mov	r0,a
      001EF9 A6 07            [24] 7058 	mov	@r0,ar7
      001EFB 08               [12] 7059 	inc	r0
      001EFC A6 06            [24] 7060 	mov	@r0,ar6
                                   7061 ;	/home/user/contiki/cpu/cc2530edm_aman/usb/usb-arch.c:1191: if(get_receive_capacity(ep->buffer) < pkt_len) {
      001EFE E5 81            [12] 7062 	mov	a,sp
      001F00 24 F5            [12] 7063 	add	a,#0xf5
      001F02 F8               [12] 7064 	mov	r0,a
      001F03 86 82            [24] 7065 	mov	dpl,@r0
      001F05 08               [12] 7066 	inc	r0
      001F06 86 83            [24] 7067 	mov	dph,@r0
      001F08 08               [12] 7068 	inc	r0
      001F09 86 F0            [24] 7069 	mov	b,@r0
      001F0B C0 02            [24] 7070 	push	ar2
      001F0D 12r0ErEE         [24] 7071 	lcall	_get_receive_capacity
      001F10 AE 82            [24] 7072 	mov	r6,dpl
      001F12 AF 83            [24] 7073 	mov	r7,dph
      001F14 D0 02            [24] 7074 	pop	ar2
      001F16 E5 81            [12] 7075 	mov	a,sp
      001F18 24 F8            [12] 7076 	add	a,#0xf8
      001F1A F8               [12] 7077 	mov	r0,a
      001F1B C3               [12] 7078 	clr	c
      001F1C EE               [12] 7079 	mov	a,r6
      001F1D 96               [12] 7080 	subb	a,@r0
      001F1E EF               [12] 7081 	mov	a,r7
      001F1F 08               [12] 7082 	inc	r0
      001F20 96               [12] 7083 	subb	a,@r0
      001F21 D0 07            [24] 7084 	pop	ar7
      001F23 D0 06            [24] 7085 	pop	ar6
      001F25 D0 02            [24] 7086 	pop	ar2
      001F27 50 06            [24] 7087 	jnc	00108$
                                   7088 ;	/home/user/contiki/cpu/cc2530edm_aman/usb/usb-arch.c:1192: return USB_READ_BLOCK;
      001F29 75 82 01         [24] 7089 	mov	dpl,#0x01
      001F2C 02r1FrAC         [24] 7090 	ljmp	00111$
      001F2F                       7091 00108$:
                                   7092 ;	/home/user/contiki/cpu/cc2530edm_aman/usb/usb-arch.c:1195: if(pkt_len < ep->xfer_size) {
      001F2F A8 81            [24] 7093 	mov	r0,sp
      001F31 18               [12] 7094 	dec	r0
      001F32 18               [12] 7095 	dec	r0
      001F33 74 0B            [12] 7096 	mov	a,#0x0B
      001F35 26               [12] 7097 	add	a,@r0
      001F36 FB               [12] 7098 	mov	r3,a
      001F37 E4               [12] 7099 	clr	a
      001F38 08               [12] 7100 	inc	r0
      001F39 36               [12] 7101 	addc	a,@r0
      001F3A FC               [12] 7102 	mov	r4,a
      001F3B 08               [12] 7103 	inc	r0
      001F3C 86 05            [24] 7104 	mov	ar5,@r0
      001F3E 8B 82            [24] 7105 	mov	dpl,r3
      001F40 8C 83            [24] 7106 	mov	dph,r4
      001F42 8D F0            [24] 7107 	mov	b,r5
      001F44 12r00r00         [24] 7108 	lcall	__gptrget
      001F47 FB               [12] 7109 	mov	r3,a
      001F48 A3               [24] 7110 	inc	dptr
      001F49 12r00r00         [24] 7111 	lcall	__gptrget
      001F4C FC               [12] 7112 	mov	r4,a
      001F4D E5 81            [12] 7113 	mov	a,sp
      001F4F 24 FB            [12] 7114 	add	a,#0xfb
      001F51 F8               [12] 7115 	mov	r0,a
      001F52 C3               [12] 7116 	clr	c
      001F53 E6               [12] 7117 	mov	a,@r0
      001F54 9B               [12] 7118 	subb	a,r3
      001F55 08               [12] 7119 	inc	r0
      001F56 E6               [12] 7120 	mov	a,@r0
      001F57 9C               [12] 7121 	subb	a,r4
      001F58 50 07            [24] 7122 	jnc	00110$
                                   7123 ;	/home/user/contiki/cpu/cc2530edm_aman/usb/usb-arch.c:1196: short_packet = 1;
      001F5A E5 81            [12] 7124 	mov	a,sp
      001F5C 24 FD            [12] 7125 	add	a,#0xfd
      001F5E F8               [12] 7126 	mov	r0,a
      001F5F 76 01            [12] 7127 	mov	@r0,#0x01
      001F61                       7128 00110$:
                                   7129 ;	/home/user/contiki/cpu/cc2530edm_aman/usb/usb-arch.c:1199: res = fill_buffers(ep->buffer, ep_hw, pkt_len, short_packet);
      001F61 8A 82            [24] 7130 	mov	dpl,r2
      001F63 8E 83            [24] 7131 	mov	dph,r6
      001F65 8F F0            [24] 7132 	mov	b,r7
      001F67 12r00r00         [24] 7133 	lcall	__gptrget
      001F6A FA               [12] 7134 	mov	r2,a
      001F6B A3               [24] 7135 	inc	dptr
      001F6C 12r00r00         [24] 7136 	lcall	__gptrget
      001F6F FE               [12] 7137 	mov	r6,a
      001F70 A3               [24] 7138 	inc	dptr
      001F71 12r00r00         [24] 7139 	lcall	__gptrget
      001F74 FF               [12] 7140 	mov	r7,a
      001F75 E5 81            [12] 7141 	mov	a,sp
      001F77 24 FD            [12] 7142 	add	a,#0xfd
      001F79 F8               [12] 7143 	mov	r0,a
      001F7A E6               [12] 7144 	mov	a,@r0
      001F7B C0 E0            [24] 7145 	push	acc
      001F7D E5 81            [12] 7146 	mov	a,sp
      001F7F 24 FA            [12] 7147 	add	a,#0xfa
      001F81 F8               [12] 7148 	mov	r0,a
      001F82 E6               [12] 7149 	mov	a,@r0
      001F83 C0 E0            [24] 7150 	push	acc
      001F85 08               [12] 7151 	inc	r0
      001F86 E6               [12] 7152 	mov	a,@r0
      001F87 C0 E0            [24] 7153 	push	acc
      001F89 E5 81            [12] 7154 	mov	a,sp
      001F8B 24 F3            [12] 7155 	add	a,#0xf3
      001F8D F8               [12] 7156 	mov	r0,a
      001F8E E6               [12] 7157 	mov	a,@r0
      001F8F C0 E0            [24] 7158 	push	acc
      001F91 8A 82            [24] 7159 	mov	dpl,r2
      001F93 8E 83            [24] 7160 	mov	dph,r6
      001F95 8F F0            [24] 7161 	mov	b,r7
      001F97 12r10r50         [24] 7162 	lcall	_fill_buffers
      001F9A AF 82            [24] 7163 	mov	r7,dpl
      001F9C E5 81            [12] 7164 	mov	a,sp
      001F9E 24 FC            [12] 7165 	add	a,#0xfc
      001FA0 F5 81            [12] 7166 	mov	sp,a
                                   7167 ;	/home/user/contiki/cpu/cc2530edm_aman/usb/usb-arch.c:1201: USBCSOL &= ~USBCSOL_OUTPKT_RDY;
      001FA2 90 62 14         [24] 7168 	mov	dptr,#_USBCSOL
      001FA5 E0               [24] 7169 	movx	a,@dptr
      001FA6 FE               [12] 7170 	mov	r6,a
      001FA7 54 FE            [12] 7171 	anl	a,#0xFE
      001FA9 F0               [24] 7172 	movx	@dptr,a
                                   7173 ;	/home/user/contiki/cpu/cc2530edm_aman/usb/usb-arch.c:1203: return res;
      001FAA 8F 82            [24] 7174 	mov	dpl,r7
      001FAC                       7175 00111$:
      001FAC E5 81            [12] 7176 	mov	a,sp
      001FAE 24 F5            [12] 7177 	add	a,#0xF5
      001FB0 F5 81            [12] 7178 	mov	sp,a
      001FB2 22               [24] 7179 	ret
                                   7180 ;------------------------------------------------------------
                                   7181 ;Allocation info for local variables in function 'usb_arch_epout_irq'
                                   7182 ;------------------------------------------------------------
                                   7183 ;ep_hw                     Allocated to registers r7 
                                   7184 ;csl                       Allocated to registers r3 
                                   7185 ;res                       Allocated to registers r7 
                                   7186 ;ep                        Allocated to registers r5 r4 r6 
                                   7187 ;------------------------------------------------------------
                                   7188 ;	/home/user/contiki/cpu/cc2530edm_aman/usb/usb-arch.c:1207: usb_arch_epout_irq(uint8_t ep_hw)
                                   7189 ;	-----------------------------------------
                                   7190 ;	 function usb_arch_epout_irq
                                   7191 ;	-----------------------------------------
      001FB3                       7192 _usb_arch_epout_irq:
      001FB3 AF 82            [24] 7193 	mov	r7,dpl
                                   7194 ;	/home/user/contiki/cpu/cc2530edm_aman/usb/usb-arch.c:1212: USBEndpoint *ep = EP_STRUCT(ep_hw);
      001FB5 74 7F            [12] 7195 	mov	a,#0x7F
      001FB7 5F               [12] 7196 	anl	a,r7
      001FB8 75 F0 0D         [24] 7197 	mov	b,#0x0D
      001FBB A4               [48] 7198 	mul	ab
      001FBC 24r01            [12] 7199 	add	a,#_usb_endpoints
      001FBE FD               [12] 7200 	mov	r5,a
      001FBF 74s00            [12] 7201 	mov	a,#(_usb_endpoints >> 8)
      001FC1 35 F0            [12] 7202 	addc	a,b
      001FC3 FC               [12] 7203 	mov	r4,a
      001FC4 7E 00            [12] 7204 	mov	r6,#0x00
                                   7205 ;	/home/user/contiki/cpu/cc2530edm_aman/usb/usb-arch.c:1215: USBINDEX = ep_hw;
      001FC6 90 62 0E         [24] 7206 	mov	dptr,#_USBINDEX
      001FC9 EF               [12] 7207 	mov	a,r7
      001FCA F0               [24] 7208 	movx	@dptr,a
                                   7209 ;	/home/user/contiki/cpu/cc2530edm_aman/usb/usb-arch.c:1216: csl = USBCSOL;
      001FCB 90 62 14         [24] 7210 	mov	dptr,#_USBCSOL
      001FCE E0               [24] 7211 	movx	a,@dptr
                                   7212 ;	/home/user/contiki/cpu/cc2530edm_aman/usb/usb-arch.c:1218: if(csl & USBCSOL_SENT_STALL) {
      001FCF FB               [12] 7213 	mov	r3,a
      001FD0 30 E6 08         [24] 7214 	jnb	acc.6,00102$
                                   7215 ;	/home/user/contiki/cpu/cc2530edm_aman/usb/usb-arch.c:1219: USBCSOL &= ~USBCSOL_SENT_STALL;
      001FD3 90 62 14         [24] 7216 	mov	dptr,#_USBCSOL
      001FD6 E0               [24] 7217 	movx	a,@dptr
      001FD7 FA               [12] 7218 	mov	r2,a
      001FD8 54 BF            [12] 7219 	anl	a,#0xBF
      001FDA F0               [24] 7220 	movx	@dptr,a
      001FDB                       7221 00102$:
                                   7222 ;	/home/user/contiki/cpu/cc2530edm_aman/usb/usb-arch.c:1222: if(csl & USBCSOL_OVERRUN) {
      001FDB EB               [12] 7223 	mov	a,r3
      001FDC 30 E2 08         [24] 7224 	jnb	acc.2,00104$
                                   7225 ;	/home/user/contiki/cpu/cc2530edm_aman/usb/usb-arch.c:1224: USBCSOL &= ~USBCSOL_OVERRUN;
      001FDF 90 62 14         [24] 7226 	mov	dptr,#_USBCSOL
      001FE2 E0               [24] 7227 	movx	a,@dptr
      001FE3 FA               [12] 7228 	mov	r2,a
      001FE4 54 FB            [12] 7229 	anl	a,#0xFB
      001FE6 F0               [24] 7230 	movx	@dptr,a
      001FE7                       7231 00104$:
                                   7232 ;	/home/user/contiki/cpu/cc2530edm_aman/usb/usb-arch.c:1227: if(csl & USBCSOL_OUTPKT_RDY) {
      001FE7 EB               [12] 7233 	mov	a,r3
      001FE8 30 E0 2B         [24] 7234 	jnb	acc.0,00109$
                                   7235 ;	/home/user/contiki/cpu/cc2530edm_aman/usb/usb-arch.c:1228: res = ep_get_data_pkt(ep_hw);
      001FEB 8F 82            [24] 7236 	mov	dpl,r7
      001FED C0 06            [24] 7237 	push	ar6
      001FEF C0 05            [24] 7238 	push	ar5
      001FF1 C0 04            [24] 7239 	push	ar4
      001FF3 12r1Er08         [24] 7240 	lcall	_ep_get_data_pkt
      001FF6 AF 82            [24] 7241 	mov	r7,dpl
      001FF8 D0 04            [24] 7242 	pop	ar4
      001FFA D0 05            [24] 7243 	pop	ar5
      001FFC D0 06            [24] 7244 	pop	ar6
                                   7245 ;	/home/user/contiki/cpu/cc2530edm_aman/usb/usb-arch.c:1230: if(res & USB_READ_NOTIFY) {
      001FFE EF               [12] 7246 	mov	a,r7
      001FFF 30 E1 14         [24] 7247 	jnb	acc.1,00109$
                                   7248 ;	/home/user/contiki/cpu/cc2530edm_aman/usb/usb-arch.c:1231: notify_ep_process(ep, USB_EP_EVENT_NOTIFICATION);
      002002 74 01            [12] 7249 	mov	a,#0x01
      002004 C0 E0            [24] 7250 	push	acc
      002006 E4               [12] 7251 	clr	a
      002007 C0 E0            [24] 7252 	push	acc
      002009 8D 82            [24] 7253 	mov	dpl,r5
      00200B 8C 83            [24] 7254 	mov	dph,r4
      00200D 8E F0            [24] 7255 	mov	b,r6
      00200F 12r00r2F         [24] 7256 	lcall	_notify_ep_process
      002012 15 81            [12] 7257 	dec	sp
      002014 15 81            [12] 7258 	dec	sp
      002016                       7259 00109$:
      002016 22               [24] 7260 	ret
                                   7261 ;------------------------------------------------------------
                                   7262 ;Allocation info for local variables in function 'usb_arch_epin_irq'
                                   7263 ;------------------------------------------------------------
                                   7264 ;ep_hw                     Allocated to registers r7 
                                   7265 ;csl                       Allocated to registers r3 
                                   7266 ;res                       Allocated to registers r7 
                                   7267 ;ep                        Allocated to registers r5 r4 r6 
                                   7268 ;------------------------------------------------------------
                                   7269 ;	/home/user/contiki/cpu/cc2530edm_aman/usb/usb-arch.c:1237: usb_arch_epin_irq(uint8_t ep_hw)
                                   7270 ;	-----------------------------------------
                                   7271 ;	 function usb_arch_epin_irq
                                   7272 ;	-----------------------------------------
      002017                       7273 _usb_arch_epin_irq:
      002017 AF 82            [24] 7274 	mov	r7,dpl
                                   7275 ;	/home/user/contiki/cpu/cc2530edm_aman/usb/usb-arch.c:1241: USBEndpoint *ep = EP_STRUCT(ep_hw);
      002019 74 7F            [12] 7276 	mov	a,#0x7F
      00201B 5F               [12] 7277 	anl	a,r7
      00201C 75 F0 0D         [24] 7278 	mov	b,#0x0D
      00201F A4               [48] 7279 	mul	ab
      002020 24r01            [12] 7280 	add	a,#_usb_endpoints
      002022 FD               [12] 7281 	mov	r5,a
      002023 74s00            [12] 7282 	mov	a,#(_usb_endpoints >> 8)
      002025 35 F0            [12] 7283 	addc	a,b
      002027 FC               [12] 7284 	mov	r4,a
      002028 7E 00            [12] 7285 	mov	r6,#0x00
                                   7286 ;	/home/user/contiki/cpu/cc2530edm_aman/usb/usb-arch.c:1245: USBINDEX = ep_hw;
      00202A 90 62 0E         [24] 7287 	mov	dptr,#_USBINDEX
      00202D EF               [12] 7288 	mov	a,r7
      00202E F0               [24] 7289 	movx	@dptr,a
                                   7290 ;	/home/user/contiki/cpu/cc2530edm_aman/usb/usb-arch.c:1246: csl = USBCSIL;
      00202F 90 62 11         [24] 7291 	mov	dptr,#_USBCSIL
      002032 E0               [24] 7292 	movx	a,@dptr
                                   7293 ;	/home/user/contiki/cpu/cc2530edm_aman/usb/usb-arch.c:1248: if(csl & USBCSIL_SENT_STALL) {
      002033 FB               [12] 7294 	mov	r3,a
      002034 30 E5 08         [24] 7295 	jnb	acc.5,00102$
                                   7296 ;	/home/user/contiki/cpu/cc2530edm_aman/usb/usb-arch.c:1249: USBCSIL &= ~USBCSIL_SENT_STALL;
      002037 90 62 11         [24] 7297 	mov	dptr,#_USBCSIL
      00203A E0               [24] 7298 	movx	a,@dptr
      00203B FA               [12] 7299 	mov	r2,a
      00203C 54 DF            [12] 7300 	anl	a,#0xDF
      00203E F0               [24] 7301 	movx	@dptr,a
      00203F                       7302 00102$:
                                   7303 ;	/home/user/contiki/cpu/cc2530edm_aman/usb/usb-arch.c:1252: if(csl & USBCSIL_UNDERRUN) {
      00203F EB               [12] 7304 	mov	a,r3
      002040 30 E2 08         [24] 7305 	jnb	acc.2,00104$
                                   7306 ;	/home/user/contiki/cpu/cc2530edm_aman/usb/usb-arch.c:1253: USBCSIL &= ~USBCSIL_UNDERRUN;
      002043 90 62 11         [24] 7307 	mov	dptr,#_USBCSIL
      002046 E0               [24] 7308 	movx	a,@dptr
      002047 FA               [12] 7309 	mov	r2,a
      002048 54 FB            [12] 7310 	anl	a,#0xFB
      00204A F0               [24] 7311 	movx	@dptr,a
      00204B                       7312 00104$:
                                   7313 ;	/home/user/contiki/cpu/cc2530edm_aman/usb/usb-arch.c:1256: if(!(csl & USBCSIL_INPKT_RDY)) {
      00204B EB               [12] 7314 	mov	a,r3
      00204C 20 E0 2B         [24] 7315 	jb	acc.0,00109$
                                   7316 ;	/home/user/contiki/cpu/cc2530edm_aman/usb/usb-arch.c:1257: res = ep_tx(ep_hw);
      00204F 8F 82            [24] 7317 	mov	dpl,r7
      002051 C0 06            [24] 7318 	push	ar6
      002053 C0 05            [24] 7319 	push	ar5
      002055 C0 04            [24] 7320 	push	ar4
      002057 12r1Ar7B         [24] 7321 	lcall	_ep_tx
      00205A AF 82            [24] 7322 	mov	r7,dpl
      00205C D0 04            [24] 7323 	pop	ar4
      00205E D0 05            [24] 7324 	pop	ar5
      002060 D0 06            [24] 7325 	pop	ar6
                                   7326 ;	/home/user/contiki/cpu/cc2530edm_aman/usb/usb-arch.c:1258: if(res & USB_WRITE_NOTIFY) {
      002062 EF               [12] 7327 	mov	a,r7
      002063 30 E1 14         [24] 7328 	jnb	acc.1,00109$
                                   7329 ;	/home/user/contiki/cpu/cc2530edm_aman/usb/usb-arch.c:1259: notify_ep_process(ep, USB_EP_EVENT_NOTIFICATION);
      002066 74 01            [12] 7330 	mov	a,#0x01
      002068 C0 E0            [24] 7331 	push	acc
      00206A E4               [12] 7332 	clr	a
      00206B C0 E0            [24] 7333 	push	acc
      00206D 8D 82            [24] 7334 	mov	dpl,r5
      00206F 8C 83            [24] 7335 	mov	dph,r4
      002071 8E F0            [24] 7336 	mov	b,r6
      002073 12r00r2F         [24] 7337 	lcall	_notify_ep_process
      002076 15 81            [12] 7338 	dec	sp
      002078 15 81            [12] 7339 	dec	sp
      00207A                       7340 00109$:
      00207A 22               [24] 7341 	ret
                                   7342 ;------------------------------------------------------------
                                   7343 ;Allocation info for local variables in function 'usb_irq'
                                   7344 ;------------------------------------------------------------
                                   7345 ;ep_in_if                  Allocated to registers r7 
                                   7346 ;ep_out_if                 Allocated to stack - sp +0
                                   7347 ;common_if                 Allocated to registers r5 
                                   7348 ;i                         Allocated to registers r4 
                                   7349 ;------------------------------------------------------------
                                   7350 ;	/home/user/contiki/cpu/cc2530edm_aman/usb/usb-arch.c:1270: usb_irq(void)
                                   7351 ;	-----------------------------------------
                                   7352 ;	 function usb_irq
                                   7353 ;	-----------------------------------------
      00207B                       7354 _usb_irq:
      00207B 05 81            [12] 7355 	inc	sp
                                   7356 ;	/home/user/contiki/cpu/cc2530edm_aman/usb/usb-arch.c:1272: uint8_t ep_in_if = USBIIF & USBIIE;
      00207D 90 62 02         [24] 7357 	mov	dptr,#_USBIIF
      002080 E0               [24] 7358 	movx	a,@dptr
      002081 FF               [12] 7359 	mov	r7,a
      002082 90 62 07         [24] 7360 	mov	dptr,#_USBIIE
      002085 E0               [24] 7361 	movx	a,@dptr
      002086 52 07            [12] 7362 	anl	ar7,a
                                   7363 ;	/home/user/contiki/cpu/cc2530edm_aman/usb/usb-arch.c:1273: uint8_t ep_out_if = USBOIF & USBOIE;
      002088 90 62 04         [24] 7364 	mov	dptr,#_USBOIF
      00208B E0               [24] 7365 	movx	a,@dptr
      00208C FE               [12] 7366 	mov	r6,a
      00208D 90 62 09         [24] 7367 	mov	dptr,#_USBOIE
      002090 E0               [24] 7368 	movx	a,@dptr
      002091 52 06            [12] 7369 	anl	ar6,a
      002093 A8 81            [24] 7370 	mov	r0,sp
      002095 A6 06            [24] 7371 	mov	@r0,ar6
                                   7372 ;	/home/user/contiki/cpu/cc2530edm_aman/usb/usb-arch.c:1274: uint8_t common_if = USBCIF & USBCIE;
      002097 90 62 06         [24] 7373 	mov	dptr,#_USBCIF
      00209A E0               [24] 7374 	movx	a,@dptr
      00209B FD               [12] 7375 	mov	r5,a
      00209C 90 62 0B         [24] 7376 	mov	dptr,#_USBCIE
      00209F E0               [24] 7377 	movx	a,@dptr
      0020A0 FC               [12] 7378 	mov	r4,a
      0020A1 52 05            [12] 7379 	anl	ar5,a
                                   7380 ;	/home/user/contiki/cpu/cc2530edm_aman/usb/usb-arch.c:1277: if(ep_in_if) {
      0020A3 EF               [12] 7381 	mov	a,r7
      0020A4 60 4D            [24] 7382 	jz	00107$
                                   7383 ;	/home/user/contiki/cpu/cc2530edm_aman/usb/usb-arch.c:1279: if(ep_in_if & 0x1) {
      0020A6 EF               [12] 7384 	mov	a,r7
      0020A7 30 E0 0B         [24] 7385 	jnb	acc.0,00136$
                                   7386 ;	/home/user/contiki/cpu/cc2530edm_aman/usb/usb-arch.c:1280: usb_arch_ep0_irq();
      0020AA C0 07            [24] 7387 	push	ar7
      0020AC C0 05            [24] 7388 	push	ar5
      0020AE 12r19rFC         [24] 7389 	lcall	_usb_arch_ep0_irq
      0020B1 D0 05            [24] 7390 	pop	ar5
      0020B3 D0 07            [24] 7391 	pop	ar7
                                   7392 ;	/home/user/contiki/cpu/cc2530edm_aman/usb/usb-arch.c:1282: for(i = 1; i < 6; i++) {
      0020B5                       7393 00136$:
      0020B5 7C 01            [12] 7394 	mov	r4,#0x01
      0020B7                       7395 00119$:
                                   7396 ;	/home/user/contiki/cpu/cc2530edm_aman/usb/usb-arch.c:1283: if(ep_in_if & EPxIF(i)) {
      0020B7 C0 05            [24] 7397 	push	ar5
      0020B9 8C F0            [24] 7398 	mov	b,r4
      0020BB 05 F0            [12] 7399 	inc	b
      0020BD 7A 01            [12] 7400 	mov	r2,#0x01
      0020BF 7B 00            [12] 7401 	mov	r3,#0x00
      0020C1 80 06            [24] 7402 	sjmp	00175$
      0020C3                       7403 00174$:
      0020C3 EA               [12] 7404 	mov	a,r2
      0020C4 2A               [12] 7405 	add	a,r2
      0020C5 FA               [12] 7406 	mov	r2,a
      0020C6 EB               [12] 7407 	mov	a,r3
      0020C7 33               [12] 7408 	rlc	a
      0020C8 FB               [12] 7409 	mov	r3,a
      0020C9                       7410 00175$:
      0020C9 D5 F0 F7         [24] 7411 	djnz	b,00174$
      0020CC 8F 05            [24] 7412 	mov	ar5,r7
      0020CE 7E 00            [12] 7413 	mov	r6,#0x00
      0020D0 ED               [12] 7414 	mov	a,r5
      0020D1 52 02            [12] 7415 	anl	ar2,a
      0020D3 EE               [12] 7416 	mov	a,r6
      0020D4 52 03            [12] 7417 	anl	ar3,a
      0020D6 D0 05            [24] 7418 	pop	ar5
      0020D8 EA               [12] 7419 	mov	a,r2
      0020D9 4B               [12] 7420 	orl	a,r3
      0020DA 60 11            [24] 7421 	jz	00120$
                                   7422 ;	/home/user/contiki/cpu/cc2530edm_aman/usb/usb-arch.c:1284: usb_arch_epin_irq(i);
      0020DC 8C 82            [24] 7423 	mov	dpl,r4
      0020DE C0 07            [24] 7424 	push	ar7
      0020E0 C0 05            [24] 7425 	push	ar5
      0020E2 C0 04            [24] 7426 	push	ar4
      0020E4 12r20r17         [24] 7427 	lcall	_usb_arch_epin_irq
      0020E7 D0 04            [24] 7428 	pop	ar4
      0020E9 D0 05            [24] 7429 	pop	ar5
      0020EB D0 07            [24] 7430 	pop	ar7
      0020ED                       7431 00120$:
                                   7432 ;	/home/user/contiki/cpu/cc2530edm_aman/usb/usb-arch.c:1282: for(i = 1; i < 6; i++) {
      0020ED 0C               [12] 7433 	inc	r4
      0020EE BC 06 00         [24] 7434 	cjne	r4,#0x06,00177$
      0020F1                       7435 00177$:
      0020F1 40 C4            [24] 7436 	jc	00119$
      0020F3                       7437 00107$:
                                   7438 ;	/home/user/contiki/cpu/cc2530edm_aman/usb/usb-arch.c:1288: if(ep_out_if) {
      0020F3 A8 81            [24] 7439 	mov	r0,sp
      0020F5 E6               [12] 7440 	mov	a,@r0
      0020F6 60 41            [24] 7441 	jz	00112$
                                   7442 ;	/home/user/contiki/cpu/cc2530edm_aman/usb/usb-arch.c:1289: for(i = 1; i < 6; i++) {
      0020F8 7E 01            [12] 7443 	mov	r6,#0x01
      0020FA                       7444 00121$:
                                   7445 ;	/home/user/contiki/cpu/cc2530edm_aman/usb/usb-arch.c:1290: if(ep_out_if & EPxIF(i)) {
      0020FA C0 05            [24] 7446 	push	ar5
      0020FC 8E F0            [24] 7447 	mov	b,r6
      0020FE 05 F0            [12] 7448 	inc	b
      002100 7B 01            [12] 7449 	mov	r3,#0x01
      002102 7C 00            [12] 7450 	mov	r4,#0x00
      002104 80 06            [24] 7451 	sjmp	00181$
      002106                       7452 00180$:
      002106 EB               [12] 7453 	mov	a,r3
      002107 2B               [12] 7454 	add	a,r3
      002108 FB               [12] 7455 	mov	r3,a
      002109 EC               [12] 7456 	mov	a,r4
      00210A 33               [12] 7457 	rlc	a
      00210B FC               [12] 7458 	mov	r4,a
      00210C                       7459 00181$:
      00210C D5 F0 F7         [24] 7460 	djnz	b,00180$
      00210F A8 81            [24] 7461 	mov	r0,sp
      002111 18               [12] 7462 	dec	r0
      002112 86 02            [24] 7463 	mov	ar2,@r0
      002114 7D 00            [12] 7464 	mov	r5,#0x00
      002116 EA               [12] 7465 	mov	a,r2
      002117 52 03            [12] 7466 	anl	ar3,a
      002119 ED               [12] 7467 	mov	a,r5
      00211A 52 04            [12] 7468 	anl	ar4,a
      00211C D0 05            [24] 7469 	pop	ar5
      00211E EB               [12] 7470 	mov	a,r3
      00211F 4C               [12] 7471 	orl	a,r4
      002120 60 11            [24] 7472 	jz	00122$
                                   7473 ;	/home/user/contiki/cpu/cc2530edm_aman/usb/usb-arch.c:1291: usb_arch_epout_irq(i);
      002122 8E 82            [24] 7474 	mov	dpl,r6
      002124 C0 07            [24] 7475 	push	ar7
      002126 C0 06            [24] 7476 	push	ar6
      002128 C0 05            [24] 7477 	push	ar5
      00212A 12r1FrB3         [24] 7478 	lcall	_usb_arch_epout_irq
      00212D D0 05            [24] 7479 	pop	ar5
      00212F D0 06            [24] 7480 	pop	ar6
      002131 D0 07            [24] 7481 	pop	ar7
      002133                       7482 00122$:
                                   7483 ;	/home/user/contiki/cpu/cc2530edm_aman/usb/usb-arch.c:1289: for(i = 1; i < 6; i++) {
      002133 0E               [12] 7484 	inc	r6
      002134 BE 06 00         [24] 7485 	cjne	r6,#0x06,00183$
      002137                       7486 00183$:
      002137 40 C1            [24] 7487 	jc	00121$
      002139                       7488 00112$:
                                   7489 ;	/home/user/contiki/cpu/cc2530edm_aman/usb/usb-arch.c:1295: if(common_if & RSTIF) {
      002139 ED               [12] 7490 	mov	a,r5
      00213A 30 E2 11         [24] 7491 	jnb	acc.2,00114$
                                   7492 ;	/home/user/contiki/cpu/cc2530edm_aman/usb/usb-arch.c:1296: usb_arch_reset();
      00213D C0 07            [24] 7493 	push	ar7
      00213F C0 05            [24] 7494 	push	ar5
      002141 12r02r6A         [24] 7495 	lcall	_usb_arch_reset
                                   7496 ;	/home/user/contiki/cpu/cc2530edm_aman/usb/usb-arch.c:1297: notify_process(USB_EVENT_RESET);
      002144 90 00 08         [24] 7497 	mov	dptr,#0x0008
      002147 12r00r00         [24] 7498 	lcall	_notify_process
      00214A D0 05            [24] 7499 	pop	ar5
      00214C D0 07            [24] 7500 	pop	ar7
      00214E                       7501 00114$:
                                   7502 ;	/home/user/contiki/cpu/cc2530edm_aman/usb/usb-arch.c:1299: if(common_if & RESUMEIF) {
      00214E ED               [12] 7503 	mov	a,r5
      00214F 30 E1 0E         [24] 7504 	jnb	acc.1,00116$
                                   7505 ;	/home/user/contiki/cpu/cc2530edm_aman/usb/usb-arch.c:1300: notify_process(USB_EVENT_RESUME);
      002152 90 00 04         [24] 7506 	mov	dptr,#0x0004
      002155 C0 07            [24] 7507 	push	ar7
      002157 C0 05            [24] 7508 	push	ar5
      002159 12r00r00         [24] 7509 	lcall	_notify_process
      00215C D0 05            [24] 7510 	pop	ar5
      00215E D0 07            [24] 7511 	pop	ar7
      002160                       7512 00116$:
                                   7513 ;	/home/user/contiki/cpu/cc2530edm_aman/usb/usb-arch.c:1302: if(common_if & SUSPENDIF) {
      002160 8D 06            [24] 7514 	mov	ar6,r5
      002162 EE               [12] 7515 	mov	a,r6
      002163 30 E0 0E         [24] 7516 	jnb	acc.0,00118$
                                   7517 ;	/home/user/contiki/cpu/cc2530edm_aman/usb/usb-arch.c:1303: notify_process(USB_EVENT_SUSPEND);
      002166 90 00 02         [24] 7518 	mov	dptr,#0x0002
      002169 C0 07            [24] 7519 	push	ar7
      00216B C0 05            [24] 7520 	push	ar5
      00216D 12r00r00         [24] 7521 	lcall	_notify_process
      002170 D0 05            [24] 7522 	pop	ar5
      002172 D0 07            [24] 7523 	pop	ar7
      002174                       7524 00118$:
                                   7525 ;	/home/user/contiki/cpu/cc2530edm_aman/usb/usb-arch.c:1306: return ep_in_if || ep_out_if || common_if ? CC253x_P2_ACK : CC253x_P2_NACK;
      002174 EF               [12] 7526 	mov	a,r7
      002175 70 08            [24] 7527 	jnz	00128$
      002177 A8 81            [24] 7528 	mov	r0,sp
      002179 E6               [12] 7529 	mov	a,@r0
      00217A 70 03            [24] 7530 	jnz	00128$
      00217C ED               [12] 7531 	mov	a,r5
      00217D 60 04            [24] 7532 	jz	00125$
      00217F                       7533 00128$:
      00217F 7F 01            [12] 7534 	mov	r7,#0x01
      002181 80 02            [24] 7535 	sjmp	00126$
      002183                       7536 00125$:
      002183 7F 00            [12] 7537 	mov	r7,#0x00
      002185                       7538 00126$:
      002185 8F 82            [24] 7539 	mov	dpl,r7
      002187 15 81            [12] 7540 	dec	sp
      002189 22               [24] 7541 	ret
                                   7542 	.area CSEG    (CODE)
                                   7543 	.area CONST   (CODE)
      000000                       7544 _ep_xfer_size:
      000000 08 00                 7545 	.byte #0x08,#0x00	; 8
      000002 08 00                 7546 	.byte #0x08,#0x00	; 8
      000004 08 00                 7547 	.byte #0x08,#0x00	; 8
      000006 08 00                 7548 	.byte #0x08,#0x00	; 8
      000008 00 00                 7549 	.byte #0x00,#0x00	; 0
      00000A 00 00                 7550 	.byte #0x00,#0x00	; 0
                                   7551 	.area XINIT   (CODE)
      000000                       7552 __xinit__usb_irq_handler:
                                   7553 ; generic printIvalPtr
      000000 00 00 00              7554 	.byte #0x00,#0x00,#0x00
      000003r7Bs20                 7555 	.byte _usb_irq,(_usb_irq >> 8)
      000005                       7556 __xinit__event_process:
                                   7557 ; generic printIvalPtr
      000005 00 00 00              7558 	.byte #0x00,#0x00,#0x00
      000008                       7559 __xinit__events:
      000008 00 00                 7560 	.byte #0x00,#0x00	; 0
                                   7561 	.area CABS    (ABS,CODE)
