                                      1 ;--------------------------------------------------------
                                      2 ; File Created by SDCC : free open source ANSI-C Compiler
                                      3 ; Version 3.3.1 #8804 (Aug  6 2013) (Linux)
                                      4 ; This file was generated Tue Feb 10 06:19:35 2015
                                      5 ;--------------------------------------------------------
                                      6 	.module xmac
                                      7 	.optsdcc -mmcs51 --model-large
                                      8 	
                                      9 ;--------------------------------------------------------
                                     10 ; Public variables in this module
                                     11 ;--------------------------------------------------------
                                     12 	.globl _xmac_driver
                                     13 	.globl _memb_alloc
                                     14 	.globl _memb_init
                                     15 	.globl _list_item_next
                                     16 	.globl _list_add
                                     17 	.globl _list_head
                                     18 	.globl _list_init
                                     19 	.globl _queuebuf_free
                                     20 	.globl _queuebuf_to_packetbuf
                                     21 	.globl _queuebuf_new_from_packetbuf
                                     22 	.globl _packetbuf_addr
                                     23 	.globl _packetbuf_set_addr
                                     24 	.globl _packetbuf_attr
                                     25 	.globl _packetbuf_set_attr
                                     26 	.globl _packetbuf_compact
                                     27 	.globl _packetbuf_totlen
                                     28 	.globl _packetbuf_hdrptr
                                     29 	.globl _packetbuf_dataptr
                                     30 	.globl _rimeaddr_cmp
                                     31 	.globl _rimeaddr_copy
                                     32 	.globl _rtimer_set
                                     33 	.globl _mac_call_sent_callback
                                     34 	.globl _leds_toggle
                                     35 	.globl _leds_off
                                     36 	.globl _leds_on
                                     37 	.globl _memcpy
                                     38 	.globl _watchdog_periodic
                                     39 	.globl _watchdog_start
                                     40 	.globl _ACTIVE
                                     41 	.globl _TX_BYTE
                                     42 	.globl _RX_BYTE
                                     43 	.globl _ERR
                                     44 	.globl _FE
                                     45 	.globl _SLAVE
                                     46 	.globl _RE
                                     47 	.globl _MODE
                                     48 	.globl _T3OVFIF
                                     49 	.globl _T3CH0IF
                                     50 	.globl _T3CH1IF
                                     51 	.globl _T4OVFIF
                                     52 	.globl _T4CH0IF
                                     53 	.globl _T4CH1IF
                                     54 	.globl _OVFIM
                                     55 	.globl _B_0
                                     56 	.globl _B_1
                                     57 	.globl _B_2
                                     58 	.globl _B_3
                                     59 	.globl _B_4
                                     60 	.globl _B_5
                                     61 	.globl _B_6
                                     62 	.globl _B_7
                                     63 	.globl _P2IF
                                     64 	.globl _UTX0IF
                                     65 	.globl _UTX1IF
                                     66 	.globl _P1IF
                                     67 	.globl _WDTIF
                                     68 	.globl _ACC_0
                                     69 	.globl _ACC_1
                                     70 	.globl _ACC_2
                                     71 	.globl _ACC_3
                                     72 	.globl _ACC_4
                                     73 	.globl _ACC_5
                                     74 	.globl _ACC_6
                                     75 	.globl _ACC_7
                                     76 	.globl _P
                                     77 	.globl _F1
                                     78 	.globl _OV
                                     79 	.globl _RS0
                                     80 	.globl _RS1
                                     81 	.globl _F0
                                     82 	.globl _AC
                                     83 	.globl _CY
                                     84 	.globl _DMAIF
                                     85 	.globl _T1IF
                                     86 	.globl _T2IF
                                     87 	.globl _T3IF
                                     88 	.globl _T4IF
                                     89 	.globl _P0IF
                                     90 	.globl _STIF
                                     91 	.globl _DMAIE
                                     92 	.globl _T1IE
                                     93 	.globl _T2IE
                                     94 	.globl _T3IE
                                     95 	.globl _T4IE
                                     96 	.globl _P0IE
                                     97 	.globl _RFERRIE
                                     98 	.globl _ADCIE
                                     99 	.globl _URX0IE
                                    100 	.globl _URX1IE
                                    101 	.globl _ENCIE
                                    102 	.globl _STIE
                                    103 	.globl _EA
                                    104 	.globl _P2_0
                                    105 	.globl _P2_1
                                    106 	.globl _P2_2
                                    107 	.globl _P2_3
                                    108 	.globl _P2_4
                                    109 	.globl _P2_5
                                    110 	.globl _P2_6
                                    111 	.globl _P2_7
                                    112 	.globl _ENCIF_0
                                    113 	.globl _ENCIF_1
                                    114 	.globl _P1_0
                                    115 	.globl _P1_1
                                    116 	.globl _P1_2
                                    117 	.globl _P1_3
                                    118 	.globl _P1_4
                                    119 	.globl _P1_5
                                    120 	.globl _P1_6
                                    121 	.globl _P1_7
                                    122 	.globl _IT0
                                    123 	.globl _RFERRIF
                                    124 	.globl _IT1
                                    125 	.globl _URX0IF
                                    126 	.globl _ADCIF
                                    127 	.globl _URX1IF
                                    128 	.globl _P0_0
                                    129 	.globl _P0_1
                                    130 	.globl _P0_2
                                    131 	.globl _P0_3
                                    132 	.globl _P0_4
                                    133 	.globl _P0_5
                                    134 	.globl _P0_6
                                    135 	.globl _P0_7
                                    136 	.globl _WDCTL
                                    137 	.globl _U1GCR
                                    138 	.globl _U1UCR
                                    139 	.globl _U1BAUD
                                    140 	.globl _U1DBUF
                                    141 	.globl _U1CSR
                                    142 	.globl _U0GCR
                                    143 	.globl _U0UCR
                                    144 	.globl _U0BAUD
                                    145 	.globl _U0DBUF
                                    146 	.globl _U0CSR
                                    147 	.globl _TIMIF
                                    148 	.globl _T4CC1
                                    149 	.globl _T4CCTL1
                                    150 	.globl _T4CC0
                                    151 	.globl _T4CCTL0
                                    152 	.globl _T4CTL
                                    153 	.globl _T4CNT
                                    154 	.globl _T3CC1
                                    155 	.globl _T3CCTL1
                                    156 	.globl _T3CC0
                                    157 	.globl _T3CCTL0
                                    158 	.globl _T3CTL
                                    159 	.globl _T3CNT
                                    160 	.globl _T2MSEL
                                    161 	.globl _T2IRQM
                                    162 	.globl _T2MOVF2
                                    163 	.globl _T2MOVF1
                                    164 	.globl _T2MOVF0
                                    165 	.globl _T2M1
                                    166 	.globl _T2M0
                                    167 	.globl _T2IRQF
                                    168 	.globl _T2EVTCFG
                                    169 	.globl _T2CTRL
                                    170 	.globl _T1STAT
                                    171 	.globl _T1CCTL2
                                    172 	.globl _T1CCTL1
                                    173 	.globl _T1CCTL0
                                    174 	.globl _T1CTL
                                    175 	.globl _T1CNTH
                                    176 	.globl _T1CNTL
                                    177 	.globl _T1CC2H
                                    178 	.globl _T1CC2L
                                    179 	.globl _T1CC1H
                                    180 	.globl _T1CC1L
                                    181 	.globl _T1CC0H
                                    182 	.globl _T1CC0L
                                    183 	.globl _CLKCONSTA
                                    184 	.globl _CLKCONCMD
                                    185 	.globl _SLEEPSTA
                                    186 	.globl _SLEEPCMD
                                    187 	.globl _STLOAD
                                    188 	.globl _ST2
                                    189 	.globl _ST1
                                    190 	.globl _ST0
                                    191 	.globl _RFERRF
                                    192 	.globl _RFIRQF0
                                    193 	.globl _RFST
                                    194 	.globl _RFD
                                    195 	.globl _RFIRQF1
                                    196 	.globl _PSBANK
                                    197 	.globl _FMAP
                                    198 	.globl _MEMCTR
                                    199 	.globl __XPAGE
                                    200 	.globl _MPAGE
                                    201 	.globl _PMUX
                                    202 	.globl _P2DIR
                                    203 	.globl _P1DIR
                                    204 	.globl _P0DIR
                                    205 	.globl _P2INP
                                    206 	.globl _P1INP
                                    207 	.globl _P2SEL
                                    208 	.globl _P1SEL
                                    209 	.globl _P0SEL
                                    210 	.globl _APCFG
                                    211 	.globl _PERCFG
                                    212 	.globl _P0INP
                                    213 	.globl _P2IEN
                                    214 	.globl _P1IEN
                                    215 	.globl _P0IEN
                                    216 	.globl _PICTL
                                    217 	.globl _P2IFG
                                    218 	.globl _P1IFG
                                    219 	.globl _P0IFG
                                    220 	.globl _DMAREQ
                                    221 	.globl _DMAARM
                                    222 	.globl _DMA0CFGH
                                    223 	.globl _DMA0CFGL
                                    224 	.globl _DMA1CFGH
                                    225 	.globl _DMA1CFGL
                                    226 	.globl _DMAIRQ
                                    227 	.globl _ENCCS
                                    228 	.globl _ENCDO
                                    229 	.globl _ENCDI
                                    230 	.globl _RNDH
                                    231 	.globl _RNDL
                                    232 	.globl _ADCH
                                    233 	.globl _ADCL
                                    234 	.globl _ADCCON3
                                    235 	.globl _ADCCON2
                                    236 	.globl _ADCCON1
                                    237 	.globl _B
                                    238 	.globl _IRCON2
                                    239 	.globl _ACC
                                    240 	.globl _PSW
                                    241 	.globl _IRCON
                                    242 	.globl _IP1
                                    243 	.globl _IEN1
                                    244 	.globl _IP0
                                    245 	.globl _IEN0
                                    246 	.globl _P2
                                    247 	.globl _S1CON
                                    248 	.globl _IEN2
                                    249 	.globl _S0CON
                                    250 	.globl _DPS
                                    251 	.globl _P1
                                    252 	.globl _TCON
                                    253 	.globl _PCON
                                    254 	.globl _DPH1
                                    255 	.globl _DPL1
                                    256 	.globl _DPH0
                                    257 	.globl _DPL0
                                    258 	.globl _SP
                                    259 	.globl _P0
                                    260 	.globl _xmac_config
                                    261 	.globl _X_IEEE_ADDR
                                    262 	.globl _X_INFOPAGE
                                    263 	.globl _X_P2DIR
                                    264 	.globl _X_P1DIR
                                    265 	.globl _X_P0DIR
                                    266 	.globl _X_U1GCR
                                    267 	.globl _X_U1UCR
                                    268 	.globl _X_U1BAUD
                                    269 	.globl _X_U1DBUF
                                    270 	.globl _X_U1CSR
                                    271 	.globl _X_P2INP
                                    272 	.globl _X_P1INP
                                    273 	.globl _X_P2SEL
                                    274 	.globl _X_P1SEL
                                    275 	.globl _X_P0SEL
                                    276 	.globl _X_APCFG
                                    277 	.globl _X_PERCFG
                                    278 	.globl _X_T4CC1
                                    279 	.globl _X_T4CCTL1
                                    280 	.globl _X_T4CC0
                                    281 	.globl _X_T4CCTL0
                                    282 	.globl _X_T4CTL
                                    283 	.globl _X_T4CNT
                                    284 	.globl _X_RFIRQF0
                                    285 	.globl _X_T1CCTL2
                                    286 	.globl _X_T1CCTL1
                                    287 	.globl _X_T1CCTL0
                                    288 	.globl _X_T1CTL
                                    289 	.globl _X_T1CNTH
                                    290 	.globl _X_T1CNTL
                                    291 	.globl _X_RFST
                                    292 	.globl _X_T1CC2H
                                    293 	.globl _X_T1CC2L
                                    294 	.globl _X_T1CC1H
                                    295 	.globl _X_T1CC1L
                                    296 	.globl _X_T1CC0H
                                    297 	.globl _X_T1CC0L
                                    298 	.globl _X_RFD
                                    299 	.globl _X_TIMIF
                                    300 	.globl _X_DMAREQ
                                    301 	.globl _X_DMAARM
                                    302 	.globl _X_DMA0CFGH
                                    303 	.globl _X_DMA0CFGL
                                    304 	.globl _X_DMA1CFGH
                                    305 	.globl _X_DMA1CFGL
                                    306 	.globl _X_DMAIRQ
                                    307 	.globl _X_T3CC1
                                    308 	.globl _X_T3CCTL1
                                    309 	.globl _X_T3CC0
                                    310 	.globl _X_T3CCTL0
                                    311 	.globl _X_T3CTL
                                    312 	.globl _X_T3CNT
                                    313 	.globl _X_WDCTL
                                    314 	.globl _X_MEMCTR
                                    315 	.globl _X_CLKCONCMD
                                    316 	.globl _X_U0GCR
                                    317 	.globl _X_U0UCR
                                    318 	.globl _X_T2MSEL
                                    319 	.globl _X_U0BAUD
                                    320 	.globl _X_U0DBUF
                                    321 	.globl _X_RFERRF
                                    322 	.globl _X_SLEEPCMD
                                    323 	.globl _X_RNDH
                                    324 	.globl _X_RNDL
                                    325 	.globl _X_ADCH
                                    326 	.globl _X_ADCL
                                    327 	.globl _X_ADCCON3
                                    328 	.globl _X_ADCCON2
                                    329 	.globl _X_ADCCON1
                                    330 	.globl _X_ENCCS
                                    331 	.globl _X_ENCDO
                                    332 	.globl _X_ENCDI
                                    333 	.globl _X_T1STAT
                                    334 	.globl _X_PMUX
                                    335 	.globl _X_STLOAD
                                    336 	.globl _X_P2IEN
                                    337 	.globl _X_P0IEN
                                    338 	.globl _X_T2IRQM
                                    339 	.globl _X_T2MOVF2
                                    340 	.globl _X_T2MOVF1
                                    341 	.globl _X_T2MOVF0
                                    342 	.globl _X_T2M1
                                    343 	.globl _X_T2M0
                                    344 	.globl _X_T2IRQF
                                    345 	.globl _X_P2
                                    346 	.globl _X_PSBANK
                                    347 	.globl _X_FMAP
                                    348 	.globl _X_CLKCONSTA
                                    349 	.globl _X_SLEEPSTA
                                    350 	.globl _X_T2EVTCFG
                                    351 	.globl _X_ST2
                                    352 	.globl _X_ST1
                                    353 	.globl _X_ST0
                                    354 	.globl _X_T2CTRL
                                    355 	.globl _X__XPAGE
                                    356 	.globl _X_MPAGE
                                    357 	.globl _X_RFIRQF1
                                    358 	.globl _X_P1
                                    359 	.globl _X_P0INP
                                    360 	.globl _X_P1IEN
                                    361 	.globl _X_PICTL
                                    362 	.globl _X_P2IFG
                                    363 	.globl _X_P1IFG
                                    364 	.globl _X_P0IFG
                                    365 	.globl _X_U0CSR
                                    366 	.globl _X_P0
                                    367 	.globl _USBF5
                                    368 	.globl _USBF4
                                    369 	.globl _USBF3
                                    370 	.globl _USBF2
                                    371 	.globl _USBF1
                                    372 	.globl _USBF0
                                    373 	.globl _USBCNTH
                                    374 	.globl _USBCNTL
                                    375 	.globl _USBCNT0
                                    376 	.globl _USBCSOH
                                    377 	.globl _USBCSOL
                                    378 	.globl _USBMAXO
                                    379 	.globl _USBCSIH
                                    380 	.globl _USBCSIL
                                    381 	.globl _USBCS0
                                    382 	.globl _USBMAXI
                                    383 	.globl _USBCTRL
                                    384 	.globl _USBINDEX
                                    385 	.globl _USBFRMH
                                    386 	.globl _USBFRML
                                    387 	.globl _USBCIE
                                    388 	.globl _USBOIE
                                    389 	.globl _USBIIE
                                    390 	.globl _USBCIF
                                    391 	.globl _USBOIF
                                    392 	.globl _USBIIF
                                    393 	.globl _USBPOW
                                    394 	.globl _USBADDR
                                    395 	.globl _CSPT
                                    396 	.globl _CSPZ
                                    397 	.globl _CSPY
                                    398 	.globl _CSPX
                                    399 	.globl _CSPSTAT
                                    400 	.globl _CSPCTRL
                                    401 	.globl _CSPPROG23
                                    402 	.globl _CSPPROG22
                                    403 	.globl _CSPPROG21
                                    404 	.globl _CSPPROG20
                                    405 	.globl _CSPPROG19
                                    406 	.globl _CSPPROG18
                                    407 	.globl _CSPPROG17
                                    408 	.globl _CSPPROG16
                                    409 	.globl _CSPPROG15
                                    410 	.globl _CSPPROG14
                                    411 	.globl _CSPPROG13
                                    412 	.globl _CSPPROG12
                                    413 	.globl _CSPPROG11
                                    414 	.globl _CSPPROG10
                                    415 	.globl _CSPPROG9
                                    416 	.globl _CSPPROG8
                                    417 	.globl _CSPPROG7
                                    418 	.globl _CSPPROG6
                                    419 	.globl _CSPPROG5
                                    420 	.globl _CSPPROG4
                                    421 	.globl _CSPPROG3
                                    422 	.globl _CSPPROG2
                                    423 	.globl _CSPPROG1
                                    424 	.globl _CSPPROG0
                                    425 	.globl _RFC_OBS_CTRL2
                                    426 	.globl _RFC_OBS_CTRL1
                                    427 	.globl _RFC_OBS_CTRL0
                                    428 	.globl _TXFILTCFG
                                    429 	.globl _PTEST1
                                    430 	.globl _PTEST0
                                    431 	.globl _ATEST
                                    432 	.globl _DACTEST2
                                    433 	.globl _DACTEST1
                                    434 	.globl _DACTEST0
                                    435 	.globl _MDMTEST1
                                    436 	.globl _MDMTEST0
                                    437 	.globl _ADCTEST2
                                    438 	.globl _ADCTEST1
                                    439 	.globl _ADCTEST0
                                    440 	.globl _AGCCTRL3
                                    441 	.globl _AGCCTRL2
                                    442 	.globl _AGCCTRL1
                                    443 	.globl _AGCCTRL0
                                    444 	.globl _FSCAL3
                                    445 	.globl _FSCAL2
                                    446 	.globl _FSCAL1
                                    447 	.globl _FSCAL0
                                    448 	.globl _FSCTRL
                                    449 	.globl _RXCTRL
                                    450 	.globl _FREQEST
                                    451 	.globl _MDMCTRL1
                                    452 	.globl _MDMCTRL0
                                    453 	.globl _RFRND
                                    454 	.globl _RFERRM
                                    455 	.globl _RFIRQM1
                                    456 	.globl _RFIRQM0
                                    457 	.globl _TXLAST_PTR
                                    458 	.globl _TXFIRST_PTR
                                    459 	.globl _RXP1_PTR
                                    460 	.globl _RXLAST_PTR
                                    461 	.globl _RXFIRST_PTR
                                    462 	.globl _TXFIFOCNT
                                    463 	.globl _RXFIFOCNT
                                    464 	.globl _RXFIRST
                                    465 	.globl _RSSISTAT
                                    466 	.globl _RSSI
                                    467 	.globl _CCACTRL1
                                    468 	.globl _CCACTRL0
                                    469 	.globl _FSMCTRL
                                    470 	.globl _FIFOPCTRL
                                    471 	.globl _FSMSTAT1
                                    472 	.globl _FSMSTAT0
                                    473 	.globl _TXCTRL
                                    474 	.globl _TXPOWER
                                    475 	.globl _FREQCTRL
                                    476 	.globl _FREQTUNE
                                    477 	.globl _RXMASKCLR
                                    478 	.globl _RXMASKSET
                                    479 	.globl _RXENABLE
                                    480 	.globl _FRMCTRL1
                                    481 	.globl _FRMCTRL0
                                    482 	.globl _SRCEXTEN2
                                    483 	.globl _SRCEXTEN1
                                    484 	.globl _SRCEXTEN0
                                    485 	.globl _SRCSHORTEN2
                                    486 	.globl _SRCSHORTEN1
                                    487 	.globl _SRCSHORTEN0
                                    488 	.globl _SRCMATCH
                                    489 	.globl _FRMFILT1
                                    490 	.globl _FRMFILT0
                                    491 	.globl _SHORT_ADDR1
                                    492 	.globl _SHORT_ADDR0
                                    493 	.globl _PAN_ID1
                                    494 	.globl _PAN_ID0
                                    495 	.globl _EXT_ADDR7
                                    496 	.globl _EXT_ADDR6
                                    497 	.globl _EXT_ADDR5
                                    498 	.globl _EXT_ADDR4
                                    499 	.globl _EXT_ADDR3
                                    500 	.globl _EXT_ADDR2
                                    501 	.globl _EXT_ADDR1
                                    502 	.globl _EXT_ADDR0
                                    503 	.globl _SRCSHORTPENDEN2
                                    504 	.globl _SRCSHORTPENDEN1
                                    505 	.globl _SRCSHORTPENDEN0
                                    506 	.globl _SRCEXTPENDEN2
                                    507 	.globl _SRCEXTPENDEN1
                                    508 	.globl _SRCEXTPENDEN0
                                    509 	.globl _SRCRESINDEX
                                    510 	.globl _SRCRESMASK2
                                    511 	.globl _SRCRESMASK1
                                    512 	.globl _SRCRESMASK0
                                    513 	.globl _SRC_ADDR_TABLE
                                    514 	.globl _TXFIFO
                                    515 	.globl _RXFIFO
                                    516 	.globl _RFCORE_RAM
                                    517 	.globl _CMPCTL
                                    518 	.globl _OPAMPS
                                    519 	.globl _OPAMPC
                                    520 	.globl _STCV2
                                    521 	.globl _STCV1
                                    522 	.globl _STCV0
                                    523 	.globl _STCS
                                    524 	.globl _STCC
                                    525 	.globl _T1CC4H
                                    526 	.globl _T1CC4L
                                    527 	.globl _T1CC3H
                                    528 	.globl _T1CC3L
                                    529 	.globl _XX_T1CC2H
                                    530 	.globl _XX_T1CC2L
                                    531 	.globl _XX_T1CC1H
                                    532 	.globl _XX_T1CC1L
                                    533 	.globl _XX_T1CC0H
                                    534 	.globl _XX_T1CC0L
                                    535 	.globl _T1CCTL4
                                    536 	.globl _T1CCTL3
                                    537 	.globl _XX_T1CCTL2
                                    538 	.globl _XX_T1CCTL1
                                    539 	.globl _XX_T1CCTL0
                                    540 	.globl _CLD
                                    541 	.globl _IRCTL
                                    542 	.globl _CHIPINFO1
                                    543 	.globl _CHIPINFO0
                                    544 	.globl _FWDATA
                                    545 	.globl _FADDRH
                                    546 	.globl _FADDRL
                                    547 	.globl _FCTL
                                    548 	.globl _IVCTRL
                                    549 	.globl _BATTMON
                                    550 	.globl _SRCRC
                                    551 	.globl _DBGDATA
                                    552 	.globl _TESTREG0
                                    553 	.globl _CHIPID
                                    554 	.globl _CHVER
                                    555 	.globl _OBSSEL5
                                    556 	.globl _OBSSEL4
                                    557 	.globl _OBSSEL3
                                    558 	.globl _OBSSEL2
                                    559 	.globl _OBSSEL1
                                    560 	.globl _OBSSEL0
                                    561 	.globl _I2CIO
                                    562 	.globl _I2CWC
                                    563 	.globl _I2CADDR
                                    564 	.globl _I2CDATA
                                    565 	.globl _I2CSTAT
                                    566 	.globl _I2CCFG
                                    567 	.globl _OPAMPMC
                                    568 	.globl _MONMUX
                                    569 	.globl _xmac_set_announcement_radio_txpower
                                    570 ;--------------------------------------------------------
                                    571 ; special function registers
                                    572 ;--------------------------------------------------------
                                    573 	.area RSEG    (ABS,DATA)
      000000                        574 	.org 0x0000
                           000080   575 _P0	=	0x0080
                           000081   576 _SP	=	0x0081
                           000082   577 _DPL0	=	0x0082
                           000083   578 _DPH0	=	0x0083
                           000084   579 _DPL1	=	0x0084
                           000085   580 _DPH1	=	0x0085
                           000087   581 _PCON	=	0x0087
                           000088   582 _TCON	=	0x0088
                           000090   583 _P1	=	0x0090
                           000092   584 _DPS	=	0x0092
                           000098   585 _S0CON	=	0x0098
                           00009A   586 _IEN2	=	0x009a
                           00009B   587 _S1CON	=	0x009b
                           0000A0   588 _P2	=	0x00a0
                           0000A8   589 _IEN0	=	0x00a8
                           0000A9   590 _IP0	=	0x00a9
                           0000B8   591 _IEN1	=	0x00b8
                           0000B9   592 _IP1	=	0x00b9
                           0000C0   593 _IRCON	=	0x00c0
                           0000D0   594 _PSW	=	0x00d0
                           0000E0   595 _ACC	=	0x00e0
                           0000E8   596 _IRCON2	=	0x00e8
                           0000F0   597 _B	=	0x00f0
                           0000B4   598 _ADCCON1	=	0x00b4
                           0000B5   599 _ADCCON2	=	0x00b5
                           0000B6   600 _ADCCON3	=	0x00b6
                           0000BA   601 _ADCL	=	0x00ba
                           0000BB   602 _ADCH	=	0x00bb
                           0000BC   603 _RNDL	=	0x00bc
                           0000BD   604 _RNDH	=	0x00bd
                           0000B1   605 _ENCDI	=	0x00b1
                           0000B2   606 _ENCDO	=	0x00b2
                           0000B3   607 _ENCCS	=	0x00b3
                           0000D1   608 _DMAIRQ	=	0x00d1
                           0000D2   609 _DMA1CFGL	=	0x00d2
                           0000D3   610 _DMA1CFGH	=	0x00d3
                           0000D4   611 _DMA0CFGL	=	0x00d4
                           0000D5   612 _DMA0CFGH	=	0x00d5
                           0000D6   613 _DMAARM	=	0x00d6
                           0000D7   614 _DMAREQ	=	0x00d7
                           000089   615 _P0IFG	=	0x0089
                           00008A   616 _P1IFG	=	0x008a
                           00008B   617 _P2IFG	=	0x008b
                           00008C   618 _PICTL	=	0x008c
                           0000AB   619 _P0IEN	=	0x00ab
                           00008D   620 _P1IEN	=	0x008d
                           0000AC   621 _P2IEN	=	0x00ac
                           00008F   622 _P0INP	=	0x008f
                           0000F1   623 _PERCFG	=	0x00f1
                           0000F2   624 _APCFG	=	0x00f2
                           0000F3   625 _P0SEL	=	0x00f3
                           0000F4   626 _P1SEL	=	0x00f4
                           0000F5   627 _P2SEL	=	0x00f5
                           0000F6   628 _P1INP	=	0x00f6
                           0000F7   629 _P2INP	=	0x00f7
                           0000FD   630 _P0DIR	=	0x00fd
                           0000FE   631 _P1DIR	=	0x00fe
                           0000FF   632 _P2DIR	=	0x00ff
                           0000AE   633 _PMUX	=	0x00ae
                           000093   634 _MPAGE	=	0x0093
                           000093   635 __XPAGE	=	0x0093
                           0000C7   636 _MEMCTR	=	0x00c7
                           00009F   637 _FMAP	=	0x009f
                           00009F   638 _PSBANK	=	0x009f
                           000091   639 _RFIRQF1	=	0x0091
                           0000D9   640 _RFD	=	0x00d9
                           0000E1   641 _RFST	=	0x00e1
                           0000E9   642 _RFIRQF0	=	0x00e9
                           0000BF   643 _RFERRF	=	0x00bf
                           000095   644 _ST0	=	0x0095
                           000096   645 _ST1	=	0x0096
                           000097   646 _ST2	=	0x0097
                           0000AD   647 _STLOAD	=	0x00ad
                           0000BE   648 _SLEEPCMD	=	0x00be
                           00009D   649 _SLEEPSTA	=	0x009d
                           0000C6   650 _CLKCONCMD	=	0x00c6
                           00009E   651 _CLKCONSTA	=	0x009e
                           0000DA   652 _T1CC0L	=	0x00da
                           0000DB   653 _T1CC0H	=	0x00db
                           0000DC   654 _T1CC1L	=	0x00dc
                           0000DD   655 _T1CC1H	=	0x00dd
                           0000DE   656 _T1CC2L	=	0x00de
                           0000DF   657 _T1CC2H	=	0x00df
                           0000E2   658 _T1CNTL	=	0x00e2
                           0000E3   659 _T1CNTH	=	0x00e3
                           0000E4   660 _T1CTL	=	0x00e4
                           0000E5   661 _T1CCTL0	=	0x00e5
                           0000E6   662 _T1CCTL1	=	0x00e6
                           0000E7   663 _T1CCTL2	=	0x00e7
                           0000AF   664 _T1STAT	=	0x00af
                           000094   665 _T2CTRL	=	0x0094
                           00009C   666 _T2EVTCFG	=	0x009c
                           0000A1   667 _T2IRQF	=	0x00a1
                           0000A2   668 _T2M0	=	0x00a2
                           0000A3   669 _T2M1	=	0x00a3
                           0000A4   670 _T2MOVF0	=	0x00a4
                           0000A5   671 _T2MOVF1	=	0x00a5
                           0000A6   672 _T2MOVF2	=	0x00a6
                           0000A7   673 _T2IRQM	=	0x00a7
                           0000C3   674 _T2MSEL	=	0x00c3
                           0000CA   675 _T3CNT	=	0x00ca
                           0000CB   676 _T3CTL	=	0x00cb
                           0000CC   677 _T3CCTL0	=	0x00cc
                           0000CD   678 _T3CC0	=	0x00cd
                           0000CE   679 _T3CCTL1	=	0x00ce
                           0000CF   680 _T3CC1	=	0x00cf
                           0000EA   681 _T4CNT	=	0x00ea
                           0000EB   682 _T4CTL	=	0x00eb
                           0000EC   683 _T4CCTL0	=	0x00ec
                           0000ED   684 _T4CC0	=	0x00ed
                           0000EE   685 _T4CCTL1	=	0x00ee
                           0000EF   686 _T4CC1	=	0x00ef
                           0000D8   687 _TIMIF	=	0x00d8
                           000086   688 _U0CSR	=	0x0086
                           0000C1   689 _U0DBUF	=	0x00c1
                           0000C2   690 _U0BAUD	=	0x00c2
                           0000C4   691 _U0UCR	=	0x00c4
                           0000C5   692 _U0GCR	=	0x00c5
                           0000F8   693 _U1CSR	=	0x00f8
                           0000F9   694 _U1DBUF	=	0x00f9
                           0000FA   695 _U1BAUD	=	0x00fa
                           0000FB   696 _U1UCR	=	0x00fb
                           0000FC   697 _U1GCR	=	0x00fc
                           0000C9   698 _WDCTL	=	0x00c9
                                    699 ;--------------------------------------------------------
                                    700 ; special function bits
                                    701 ;--------------------------------------------------------
                                    702 	.area RSEG    (ABS,DATA)
      000000                        703 	.org 0x0000
                           000087   704 _P0_7	=	0x0087
                           000086   705 _P0_6	=	0x0086
                           000085   706 _P0_5	=	0x0085
                           000084   707 _P0_4	=	0x0084
                           000083   708 _P0_3	=	0x0083
                           000082   709 _P0_2	=	0x0082
                           000081   710 _P0_1	=	0x0081
                           000080   711 _P0_0	=	0x0080
                           00008F   712 _URX1IF	=	0x008f
                           00008D   713 _ADCIF	=	0x008d
                           00008B   714 _URX0IF	=	0x008b
                           00008A   715 _IT1	=	0x008a
                           000089   716 _RFERRIF	=	0x0089
                           000088   717 _IT0	=	0x0088
                           000097   718 _P1_7	=	0x0097
                           000096   719 _P1_6	=	0x0096
                           000095   720 _P1_5	=	0x0095
                           000094   721 _P1_4	=	0x0094
                           000093   722 _P1_3	=	0x0093
                           000092   723 _P1_2	=	0x0092
                           000091   724 _P1_1	=	0x0091
                           000090   725 _P1_0	=	0x0090
                           000099   726 _ENCIF_1	=	0x0099
                           000098   727 _ENCIF_0	=	0x0098
                           0000A7   728 _P2_7	=	0x00a7
                           0000A6   729 _P2_6	=	0x00a6
                           0000A5   730 _P2_5	=	0x00a5
                           0000A4   731 _P2_4	=	0x00a4
                           0000A3   732 _P2_3	=	0x00a3
                           0000A2   733 _P2_2	=	0x00a2
                           0000A1   734 _P2_1	=	0x00a1
                           0000A0   735 _P2_0	=	0x00a0
                           0000AF   736 _EA	=	0x00af
                           0000AD   737 _STIE	=	0x00ad
                           0000AC   738 _ENCIE	=	0x00ac
                           0000AB   739 _URX1IE	=	0x00ab
                           0000AA   740 _URX0IE	=	0x00aa
                           0000A9   741 _ADCIE	=	0x00a9
                           0000A8   742 _RFERRIE	=	0x00a8
                           0000BD   743 _P0IE	=	0x00bd
                           0000BC   744 _T4IE	=	0x00bc
                           0000BB   745 _T3IE	=	0x00bb
                           0000BA   746 _T2IE	=	0x00ba
                           0000B9   747 _T1IE	=	0x00b9
                           0000B8   748 _DMAIE	=	0x00b8
                           0000C7   749 _STIF	=	0x00c7
                           0000C5   750 _P0IF	=	0x00c5
                           0000C4   751 _T4IF	=	0x00c4
                           0000C3   752 _T3IF	=	0x00c3
                           0000C2   753 _T2IF	=	0x00c2
                           0000C1   754 _T1IF	=	0x00c1
                           0000C0   755 _DMAIF	=	0x00c0
                           0000D7   756 _CY	=	0x00d7
                           0000D6   757 _AC	=	0x00d6
                           0000D5   758 _F0	=	0x00d5
                           0000D4   759 _RS1	=	0x00d4
                           0000D3   760 _RS0	=	0x00d3
                           0000D2   761 _OV	=	0x00d2
                           0000D1   762 _F1	=	0x00d1
                           0000D0   763 _P	=	0x00d0
                           0000E7   764 _ACC_7	=	0x00e7
                           0000E6   765 _ACC_6	=	0x00e6
                           0000E5   766 _ACC_5	=	0x00e5
                           0000E4   767 _ACC_4	=	0x00e4
                           0000E3   768 _ACC_3	=	0x00e3
                           0000E2   769 _ACC_2	=	0x00e2
                           0000E1   770 _ACC_1	=	0x00e1
                           0000E0   771 _ACC_0	=	0x00e0
                           0000EC   772 _WDTIF	=	0x00ec
                           0000EB   773 _P1IF	=	0x00eb
                           0000EA   774 _UTX1IF	=	0x00ea
                           0000E9   775 _UTX0IF	=	0x00e9
                           0000E8   776 _P2IF	=	0x00e8
                           0000F7   777 _B_7	=	0x00f7
                           0000F6   778 _B_6	=	0x00f6
                           0000F5   779 _B_5	=	0x00f5
                           0000F4   780 _B_4	=	0x00f4
                           0000F3   781 _B_3	=	0x00f3
                           0000F2   782 _B_2	=	0x00f2
                           0000F1   783 _B_1	=	0x00f1
                           0000F0   784 _B_0	=	0x00f0
                           0000DE   785 _OVFIM	=	0x00de
                           0000DD   786 _T4CH1IF	=	0x00dd
                           0000DC   787 _T4CH0IF	=	0x00dc
                           0000DB   788 _T4OVFIF	=	0x00db
                           0000DA   789 _T3CH1IF	=	0x00da
                           0000D9   790 _T3CH0IF	=	0x00d9
                           0000D8   791 _T3OVFIF	=	0x00d8
                           0000FF   792 _MODE	=	0x00ff
                           0000FE   793 _RE	=	0x00fe
                           0000FD   794 _SLAVE	=	0x00fd
                           0000FC   795 _FE	=	0x00fc
                           0000FB   796 _ERR	=	0x00fb
                           0000FA   797 _RX_BYTE	=	0x00fa
                           0000F9   798 _TX_BYTE	=	0x00f9
                           0000F8   799 _ACTIVE	=	0x00f8
                                    800 ;--------------------------------------------------------
                                    801 ; overlayable register banks
                                    802 ;--------------------------------------------------------
                                    803 	.area REG_BANK_0	(REL,OVR,DATA)
      000000                        804 	.ds 8
                                    805 ;--------------------------------------------------------
                                    806 ; internal ram data
                                    807 ;--------------------------------------------------------
                                    808 	.area DSEG    (DATA)
                                    809 ;--------------------------------------------------------
                                    810 ; overlayable items in internal ram 
                                    811 ;--------------------------------------------------------
                                    812 ;--------------------------------------------------------
                                    813 ; indirectly addressable internal ram data
                                    814 ;--------------------------------------------------------
                                    815 	.area ISEG    (DATA)
                                    816 ;--------------------------------------------------------
                                    817 ; absolute internal ram data
                                    818 ;--------------------------------------------------------
                                    819 	.area IABS    (ABS,DATA)
                                    820 	.area IABS    (ABS,DATA)
                                    821 ;--------------------------------------------------------
                                    822 ; bit data
                                    823 ;--------------------------------------------------------
                                    824 	.area BSEG    (BIT)
                                    825 ;--------------------------------------------------------
                                    826 ; paged external ram data
                                    827 ;--------------------------------------------------------
                                    828 	.area PSEG    (PAG,XDATA)
                                    829 ;--------------------------------------------------------
                                    830 ; external ram data
                                    831 ;--------------------------------------------------------
                                    832 	.area XSEG    (XDATA)
                           0061A6   833 _MONMUX	=	0x61a6
                           0061A6   834 _OPAMPMC	=	0x61a6
                           006230   835 _I2CCFG	=	0x6230
                           006231   836 _I2CSTAT	=	0x6231
                           006232   837 _I2CDATA	=	0x6232
                           006233   838 _I2CADDR	=	0x6233
                           006234   839 _I2CWC	=	0x6234
                           006235   840 _I2CIO	=	0x6235
                           006243   841 _OBSSEL0	=	0x6243
                           006244   842 _OBSSEL1	=	0x6244
                           006245   843 _OBSSEL2	=	0x6245
                           006246   844 _OBSSEL3	=	0x6246
                           006247   845 _OBSSEL4	=	0x6247
                           006248   846 _OBSSEL5	=	0x6248
                           006249   847 _CHVER	=	0x6249
                           00624A   848 _CHIPID	=	0x624a
                           00624B   849 _TESTREG0	=	0x624b
                           006260   850 _DBGDATA	=	0x6260
                           006262   851 _SRCRC	=	0x6262
                           006264   852 _BATTMON	=	0x6264
                           006265   853 _IVCTRL	=	0x6265
                           006270   854 _FCTL	=	0x6270
                           006271   855 _FADDRL	=	0x6271
                           006272   856 _FADDRH	=	0x6272
                           006273   857 _FWDATA	=	0x6273
                           006276   858 _CHIPINFO0	=	0x6276
                           006277   859 _CHIPINFO1	=	0x6277
                           006281   860 _IRCTL	=	0x6281
                           006290   861 _CLD	=	0x6290
                           0062A0   862 _XX_T1CCTL0	=	0x62a0
                           0062A1   863 _XX_T1CCTL1	=	0x62a1
                           0062A2   864 _XX_T1CCTL2	=	0x62a2
                           0062A3   865 _T1CCTL3	=	0x62a3
                           0062A4   866 _T1CCTL4	=	0x62a4
                           0062A6   867 _XX_T1CC0L	=	0x62a6
                           0062A7   868 _XX_T1CC0H	=	0x62a7
                           0062A8   869 _XX_T1CC1L	=	0x62a8
                           0062A9   870 _XX_T1CC1H	=	0x62a9
                           0062AA   871 _XX_T1CC2L	=	0x62aa
                           0062AB   872 _XX_T1CC2H	=	0x62ab
                           0062AC   873 _T1CC3L	=	0x62ac
                           0062AD   874 _T1CC3H	=	0x62ad
                           0062AE   875 _T1CC4L	=	0x62ae
                           0062AF   876 _T1CC4H	=	0x62af
                           0062B0   877 _STCC	=	0x62b0
                           0062B1   878 _STCS	=	0x62b1
                           0062B2   879 _STCV0	=	0x62b2
                           0062B3   880 _STCV1	=	0x62b3
                           0062B4   881 _STCV2	=	0x62b4
                           0062C0   882 _OPAMPC	=	0x62c0
                           0062C1   883 _OPAMPS	=	0x62c1
                           0062D0   884 _CMPCTL	=	0x62d0
                           006000   885 _RFCORE_RAM	=	0x6000
                           006000   886 _RXFIFO	=	0x6000
                           006080   887 _TXFIFO	=	0x6080
                           006100   888 _SRC_ADDR_TABLE	=	0x6100
                           006160   889 _SRCRESMASK0	=	0x6160
                           006161   890 _SRCRESMASK1	=	0x6161
                           006162   891 _SRCRESMASK2	=	0x6162
                           006163   892 _SRCRESINDEX	=	0x6163
                           006164   893 _SRCEXTPENDEN0	=	0x6164
                           006165   894 _SRCEXTPENDEN1	=	0x6165
                           006166   895 _SRCEXTPENDEN2	=	0x6166
                           006167   896 _SRCSHORTPENDEN0	=	0x6167
                           006168   897 _SRCSHORTPENDEN1	=	0x6168
                           006169   898 _SRCSHORTPENDEN2	=	0x6169
                           00616A   899 _EXT_ADDR0	=	0x616a
                           00616B   900 _EXT_ADDR1	=	0x616b
                           00616C   901 _EXT_ADDR2	=	0x616c
                           00616D   902 _EXT_ADDR3	=	0x616d
                           00616E   903 _EXT_ADDR4	=	0x616e
                           00616F   904 _EXT_ADDR5	=	0x616f
                           006170   905 _EXT_ADDR6	=	0x6170
                           006171   906 _EXT_ADDR7	=	0x6171
                           006172   907 _PAN_ID0	=	0x6172
                           006173   908 _PAN_ID1	=	0x6173
                           006174   909 _SHORT_ADDR0	=	0x6174
                           006175   910 _SHORT_ADDR1	=	0x6175
                           006180   911 _FRMFILT0	=	0x6180
                           006181   912 _FRMFILT1	=	0x6181
                           006182   913 _SRCMATCH	=	0x6182
                           006183   914 _SRCSHORTEN0	=	0x6183
                           006184   915 _SRCSHORTEN1	=	0x6184
                           006185   916 _SRCSHORTEN2	=	0x6185
                           006186   917 _SRCEXTEN0	=	0x6186
                           006187   918 _SRCEXTEN1	=	0x6187
                           006188   919 _SRCEXTEN2	=	0x6188
                           006189   920 _FRMCTRL0	=	0x6189
                           00618A   921 _FRMCTRL1	=	0x618a
                           00618B   922 _RXENABLE	=	0x618b
                           00618C   923 _RXMASKSET	=	0x618c
                           00618D   924 _RXMASKCLR	=	0x618d
                           00618E   925 _FREQTUNE	=	0x618e
                           00618F   926 _FREQCTRL	=	0x618f
                           006190   927 _TXPOWER	=	0x6190
                           006191   928 _TXCTRL	=	0x6191
                           006192   929 _FSMSTAT0	=	0x6192
                           006193   930 _FSMSTAT1	=	0x6193
                           006194   931 _FIFOPCTRL	=	0x6194
                           006195   932 _FSMCTRL	=	0x6195
                           006196   933 _CCACTRL0	=	0x6196
                           006197   934 _CCACTRL1	=	0x6197
                           006198   935 _RSSI	=	0x6198
                           006199   936 _RSSISTAT	=	0x6199
                           00619A   937 _RXFIRST	=	0x619a
                           00619B   938 _RXFIFOCNT	=	0x619b
                           00619C   939 _TXFIFOCNT	=	0x619c
                           00619D   940 _RXFIRST_PTR	=	0x619d
                           00619E   941 _RXLAST_PTR	=	0x619e
                           00619F   942 _RXP1_PTR	=	0x619f
                           0061A1   943 _TXFIRST_PTR	=	0x61a1
                           0061A2   944 _TXLAST_PTR	=	0x61a2
                           0061A3   945 _RFIRQM0	=	0x61a3
                           0061A4   946 _RFIRQM1	=	0x61a4
                           0061A5   947 _RFERRM	=	0x61a5
                           0061A7   948 _RFRND	=	0x61a7
                           0061A8   949 _MDMCTRL0	=	0x61a8
                           0061A9   950 _MDMCTRL1	=	0x61a9
                           0061AA   951 _FREQEST	=	0x61aa
                           0061AB   952 _RXCTRL	=	0x61ab
                           0061AC   953 _FSCTRL	=	0x61ac
                           0061AD   954 _FSCAL0	=	0x61ad
                           0061AE   955 _FSCAL1	=	0x61ae
                           0061AF   956 _FSCAL2	=	0x61af
                           0061B0   957 _FSCAL3	=	0x61b0
                           0061B1   958 _AGCCTRL0	=	0x61b1
                           0061B2   959 _AGCCTRL1	=	0x61b2
                           0061B3   960 _AGCCTRL2	=	0x61b3
                           0061B4   961 _AGCCTRL3	=	0x61b4
                           0061B5   962 _ADCTEST0	=	0x61b5
                           0061B6   963 _ADCTEST1	=	0x61b6
                           0061B7   964 _ADCTEST2	=	0x61b7
                           0061B8   965 _MDMTEST0	=	0x61b8
                           0061B9   966 _MDMTEST1	=	0x61b9
                           0061BA   967 _DACTEST0	=	0x61ba
                           0061BB   968 _DACTEST1	=	0x61bb
                           0061BC   969 _DACTEST2	=	0x61bc
                           0061BD   970 _ATEST	=	0x61bd
                           0061BE   971 _PTEST0	=	0x61be
                           0061BF   972 _PTEST1	=	0x61bf
                           0061FA   973 _TXFILTCFG	=	0x61fa
                           0061EB   974 _RFC_OBS_CTRL0	=	0x61eb
                           0061EC   975 _RFC_OBS_CTRL1	=	0x61ec
                           0061ED   976 _RFC_OBS_CTRL2	=	0x61ed
                           0061C0   977 _CSPPROG0	=	0x61c0
                           0061C1   978 _CSPPROG1	=	0x61c1
                           0061C2   979 _CSPPROG2	=	0x61c2
                           0061C3   980 _CSPPROG3	=	0x61c3
                           0061C4   981 _CSPPROG4	=	0x61c4
                           0061C5   982 _CSPPROG5	=	0x61c5
                           0061C6   983 _CSPPROG6	=	0x61c6
                           0061C7   984 _CSPPROG7	=	0x61c7
                           0061C8   985 _CSPPROG8	=	0x61c8
                           0061C9   986 _CSPPROG9	=	0x61c9
                           0061CA   987 _CSPPROG10	=	0x61ca
                           0061CB   988 _CSPPROG11	=	0x61cb
                           0061CC   989 _CSPPROG12	=	0x61cc
                           0061CD   990 _CSPPROG13	=	0x61cd
                           0061CE   991 _CSPPROG14	=	0x61ce
                           0061CF   992 _CSPPROG15	=	0x61cf
                           0061D0   993 _CSPPROG16	=	0x61d0
                           0061D1   994 _CSPPROG17	=	0x61d1
                           0061D2   995 _CSPPROG18	=	0x61d2
                           0061D3   996 _CSPPROG19	=	0x61d3
                           0061D4   997 _CSPPROG20	=	0x61d4
                           0061D5   998 _CSPPROG21	=	0x61d5
                           0061D6   999 _CSPPROG22	=	0x61d6
                           0061D7  1000 _CSPPROG23	=	0x61d7
                           0061E0  1001 _CSPCTRL	=	0x61e0
                           0061E1  1002 _CSPSTAT	=	0x61e1
                           0061E2  1003 _CSPX	=	0x61e2
                           0061E3  1004 _CSPY	=	0x61e3
                           0061E4  1005 _CSPZ	=	0x61e4
                           0061E5  1006 _CSPT	=	0x61e5
                           006200  1007 _USBADDR	=	0x6200
                           006201  1008 _USBPOW	=	0x6201
                           006202  1009 _USBIIF	=	0x6202
                           006204  1010 _USBOIF	=	0x6204
                           006206  1011 _USBCIF	=	0x6206
                           006207  1012 _USBIIE	=	0x6207
                           006209  1013 _USBOIE	=	0x6209
                           00620B  1014 _USBCIE	=	0x620b
                           00620C  1015 _USBFRML	=	0x620c
                           00620D  1016 _USBFRMH	=	0x620d
                           00620E  1017 _USBINDEX	=	0x620e
                           00620F  1018 _USBCTRL	=	0x620f
                           006210  1019 _USBMAXI	=	0x6210
                           006211  1020 _USBCS0	=	0x6211
                           006211  1021 _USBCSIL	=	0x6211
                           006212  1022 _USBCSIH	=	0x6212
                           006213  1023 _USBMAXO	=	0x6213
                           006214  1024 _USBCSOL	=	0x6214
                           006215  1025 _USBCSOH	=	0x6215
                           006216  1026 _USBCNT0	=	0x6216
                           006216  1027 _USBCNTL	=	0x6216
                           006217  1028 _USBCNTH	=	0x6217
                           006220  1029 _USBF0	=	0x6220
                           006222  1030 _USBF1	=	0x6222
                           006224  1031 _USBF2	=	0x6224
                           006226  1032 _USBF3	=	0x6226
                           006228  1033 _USBF4	=	0x6228
                           00622A  1034 _USBF5	=	0x622a
                           007080  1035 _X_P0	=	0x7080
                           007086  1036 _X_U0CSR	=	0x7086
                           007089  1037 _X_P0IFG	=	0x7089
                           00708A  1038 _X_P1IFG	=	0x708a
                           00708B  1039 _X_P2IFG	=	0x708b
                           00708C  1040 _X_PICTL	=	0x708c
                           00708D  1041 _X_P1IEN	=	0x708d
                           00708F  1042 _X_P0INP	=	0x708f
                           007090  1043 _X_P1	=	0x7090
                           007091  1044 _X_RFIRQF1	=	0x7091
                           007093  1045 _X_MPAGE	=	0x7093
                           007093  1046 _X__XPAGE	=	0x7093
                           007094  1047 _X_T2CTRL	=	0x7094
                           007095  1048 _X_ST0	=	0x7095
                           007096  1049 _X_ST1	=	0x7096
                           007097  1050 _X_ST2	=	0x7097
                           00709C  1051 _X_T2EVTCFG	=	0x709c
                           00709D  1052 _X_SLEEPSTA	=	0x709d
                           00709E  1053 _X_CLKCONSTA	=	0x709e
                           00709F  1054 _X_FMAP	=	0x709f
                           00709F  1055 _X_PSBANK	=	0x709f
                           0070A0  1056 _X_P2	=	0x70a0
                           0070A1  1057 _X_T2IRQF	=	0x70a1
                           0070A2  1058 _X_T2M0	=	0x70a2
                           0070A3  1059 _X_T2M1	=	0x70a3
                           0070A4  1060 _X_T2MOVF0	=	0x70a4
                           0070A5  1061 _X_T2MOVF1	=	0x70a5
                           0070A6  1062 _X_T2MOVF2	=	0x70a6
                           0070A7  1063 _X_T2IRQM	=	0x70a7
                           0070AB  1064 _X_P0IEN	=	0x70ab
                           0070AC  1065 _X_P2IEN	=	0x70ac
                           0070AD  1066 _X_STLOAD	=	0x70ad
                           0070AE  1067 _X_PMUX	=	0x70ae
                           0070AF  1068 _X_T1STAT	=	0x70af
                           0070B1  1069 _X_ENCDI	=	0x70b1
                           0070B2  1070 _X_ENCDO	=	0x70b2
                           0070B3  1071 _X_ENCCS	=	0x70b3
                           0070B4  1072 _X_ADCCON1	=	0x70b4
                           0070B5  1073 _X_ADCCON2	=	0x70b5
                           0070B6  1074 _X_ADCCON3	=	0x70b6
                           0070BA  1075 _X_ADCL	=	0x70ba
                           0070BB  1076 _X_ADCH	=	0x70bb
                           0070BC  1077 _X_RNDL	=	0x70bc
                           0070BD  1078 _X_RNDH	=	0x70bd
                           0070BE  1079 _X_SLEEPCMD	=	0x70be
                           0070BF  1080 _X_RFERRF	=	0x70bf
                           0070C1  1081 _X_U0DBUF	=	0x70c1
                           0070C2  1082 _X_U0BAUD	=	0x70c2
                           0070C3  1083 _X_T2MSEL	=	0x70c3
                           0070C4  1084 _X_U0UCR	=	0x70c4
                           0070C5  1085 _X_U0GCR	=	0x70c5
                           0070C6  1086 _X_CLKCONCMD	=	0x70c6
                           0070C7  1087 _X_MEMCTR	=	0x70c7
                           0070C9  1088 _X_WDCTL	=	0x70c9
                           0070CA  1089 _X_T3CNT	=	0x70ca
                           0070CB  1090 _X_T3CTL	=	0x70cb
                           0070CC  1091 _X_T3CCTL0	=	0x70cc
                           0070CD  1092 _X_T3CC0	=	0x70cd
                           0070CE  1093 _X_T3CCTL1	=	0x70ce
                           0070CF  1094 _X_T3CC1	=	0x70cf
                           0070D1  1095 _X_DMAIRQ	=	0x70d1
                           0070D2  1096 _X_DMA1CFGL	=	0x70d2
                           0070D3  1097 _X_DMA1CFGH	=	0x70d3
                           0070D4  1098 _X_DMA0CFGL	=	0x70d4
                           0070D5  1099 _X_DMA0CFGH	=	0x70d5
                           0070D6  1100 _X_DMAARM	=	0x70d6
                           0070D7  1101 _X_DMAREQ	=	0x70d7
                           0070D8  1102 _X_TIMIF	=	0x70d8
                           0070D9  1103 _X_RFD	=	0x70d9
                           0070DA  1104 _X_T1CC0L	=	0x70da
                           0070DB  1105 _X_T1CC0H	=	0x70db
                           0070DC  1106 _X_T1CC1L	=	0x70dc
                           0070DD  1107 _X_T1CC1H	=	0x70dd
                           0070DE  1108 _X_T1CC2L	=	0x70de
                           0070DF  1109 _X_T1CC2H	=	0x70df
                           0070E1  1110 _X_RFST	=	0x70e1
                           0070E2  1111 _X_T1CNTL	=	0x70e2
                           0070E3  1112 _X_T1CNTH	=	0x70e3
                           0070E4  1113 _X_T1CTL	=	0x70e4
                           0070E5  1114 _X_T1CCTL0	=	0x70e5
                           0070E6  1115 _X_T1CCTL1	=	0x70e6
                           0070E7  1116 _X_T1CCTL2	=	0x70e7
                           0070E9  1117 _X_RFIRQF0	=	0x70e9
                           0070EA  1118 _X_T4CNT	=	0x70ea
                           0070EB  1119 _X_T4CTL	=	0x70eb
                           0070EC  1120 _X_T4CCTL0	=	0x70ec
                           0070ED  1121 _X_T4CC0	=	0x70ed
                           0070EE  1122 _X_T4CCTL1	=	0x70ee
                           0070EF  1123 _X_T4CC1	=	0x70ef
                           0070F1  1124 _X_PERCFG	=	0x70f1
                           0070F2  1125 _X_APCFG	=	0x70f2
                           0070F3  1126 _X_P0SEL	=	0x70f3
                           0070F4  1127 _X_P1SEL	=	0x70f4
                           0070F5  1128 _X_P2SEL	=	0x70f5
                           0070F6  1129 _X_P1INP	=	0x70f6
                           0070F7  1130 _X_P2INP	=	0x70f7
                           0070F8  1131 _X_U1CSR	=	0x70f8
                           0070F9  1132 _X_U1DBUF	=	0x70f9
                           0070FA  1133 _X_U1BAUD	=	0x70fa
                           0070FB  1134 _X_U1UCR	=	0x70fb
                           0070FC  1135 _X_U1GCR	=	0x70fc
                           0070FD  1136 _X_P0DIR	=	0x70fd
                           0070FE  1137 _X_P1DIR	=	0x70fe
                           0070FF  1138 _X_P2DIR	=	0x70ff
                           007800  1139 _X_INFOPAGE	=	0x7800
                           00780C  1140 _X_IEEE_ADDR	=	0x780c
      000000                       1141 _rt:
      000000                       1142 	.ds 7
      000007                       1143 _pt:
      000007                       1144 	.ds 2
      000009                       1145 _is_listening:
      000009                       1146 	.ds 1
      00000A                       1147 _encounter_memb_memb_count:
      00000A                       1148 	.ds 4
      00000E                       1149 _encounter_memb_memb_mem:
      00000E                       1150 	.ds 28
      00002A                       1151 _is_streaming:
      00002A                       1152 	.ds 1
      00002B                       1153 _is_streaming_to:
      00002B                       1154 	.ds 2
      00002D                       1155 _is_streaming_to_too:
      00002D                       1156 	.ds 2
      00002F                       1157 _stream_until:
      00002F                       1158 	.ds 2
      000031                       1159 _received_seqnos:
      000031                       1160 	.ds 24
                                   1161 ;--------------------------------------------------------
                                   1162 ; absolute external ram data
                                   1163 ;--------------------------------------------------------
                                   1164 	.area XABS    (ABS,XDATA)
                                   1165 ;--------------------------------------------------------
                                   1166 ; external initialized ram data
                                   1167 ;--------------------------------------------------------
                                   1168 	.area XISEG   (XDATA)
      000000                       1169 _xmac_config::
      000000                       1170 	.ds 8
      000008                       1171 _xmac_is_on:
      000008                       1172 	.ds 1
      000009                       1173 _waiting_for_packet:
      000009                       1174 	.ds 1
      00000A                       1175 _someone_is_sending:
      00000A                       1176 	.ds 1
      00000B                       1177 _we_are_sending:
      00000B                       1178 	.ds 1
      00000C                       1179 _radio_is_on:
      00000C                       1180 	.ds 1
      00000D                       1181 _encounter_list_list:
      00000D                       1182 	.ds 3
      000010                       1183 _encounter_list:
      000010                       1184 	.ds 3
      000013                       1185 _encounter_memb:
      000013                       1186 	.ds 10
                                   1187 	.area HOME    (CODE)
                                   1188 	.area GSINIT0 (CODE)
                                   1189 	.area GSINIT1 (CODE)
                                   1190 	.area GSINIT2 (CODE)
                                   1191 	.area GSINIT3 (CODE)
                                   1192 	.area GSINIT4 (CODE)
                                   1193 	.area GSINIT5 (CODE)
                                   1194 	.area GSINIT  (CODE)
                                   1195 	.area GSFINAL (CODE)
                                   1196 	.area CSEG    (CODE)
                                   1197 ;--------------------------------------------------------
                                   1198 ; global & static initialisations
                                   1199 ;--------------------------------------------------------
                                   1200 	.area HOME    (CODE)
                                   1201 	.area GSINIT  (CODE)
                                   1202 	.area GSFINAL (CODE)
                                   1203 	.area GSINIT  (CODE)
                                   1204 ;--------------------------------------------------------
                                   1205 ; Home
                                   1206 ;--------------------------------------------------------
                                   1207 	.area HOME    (CODE)
                                   1208 	.area HOME    (CODE)
                                   1209 ;--------------------------------------------------------
                                   1210 ; code
                                   1211 ;--------------------------------------------------------
                                   1212 	.area CSEG    (CODE)
                                   1213 ;------------------------------------------------------------
                                   1214 ;Allocation info for local variables in function 'on'
                                   1215 ;------------------------------------------------------------
                                   1216 ;	/home/user/contiki/core/net/mac/xmac.c:233: on(void)
                                   1217 ;	-----------------------------------------
                                   1218 ;	 function on
                                   1219 ;	-----------------------------------------
      000000                       1220 _on:
                           000007  1221 	ar7 = 0x07
                           000006  1222 	ar6 = 0x06
                           000005  1223 	ar5 = 0x05
                           000004  1224 	ar4 = 0x04
                           000003  1225 	ar3 = 0x03
                           000002  1226 	ar2 = 0x02
                           000001  1227 	ar1 = 0x01
                           000000  1228 	ar0 = 0x00
                                   1229 ;	/home/user/contiki/core/net/mac/xmac.c:235: if(xmac_is_on && radio_is_on == 0) {
      000000 90r00r08         [24] 1230 	mov	dptr,#_xmac_is_on
      000003 E0               [24] 1231 	movx	a,@dptr
      000004 FF               [12] 1232 	mov	r7,a
      000005 60 26            [24] 1233 	jz	00104$
      000007 90r00r0C         [24] 1234 	mov	dptr,#_radio_is_on
      00000A E0               [24] 1235 	movx	a,@dptr
      00000B FF               [12] 1236 	mov	r7,a
      00000C 70 1F            [24] 1237 	jnz	00104$
                                   1238 ;	/home/user/contiki/core/net/mac/xmac.c:236: radio_is_on = 1;
      00000E 90r00r0C         [24] 1239 	mov	dptr,#_radio_is_on
      000011 74 01            [12] 1240 	mov	a,#0x01
      000013 F0               [24] 1241 	movx	@dptr,a
                                   1242 ;	/home/user/contiki/core/net/mac/xmac.c:237: NETSTACK_RADIO.on();
      000014 90r00r10         [24] 1243 	mov	dptr,#(_cc2530_rf_driver + 0x0010)
      000017 E4               [12] 1244 	clr	a
      000018 93               [24] 1245 	movc	a,@a+dptr
      000019 FE               [12] 1246 	mov	r6,a
      00001A A3               [24] 1247 	inc	dptr
      00001B E4               [12] 1248 	clr	a
      00001C 93               [24] 1249 	movc	a,@a+dptr
      00001D FF               [12] 1250 	mov	r7,a
      00001E C0 07            [24] 1251 	push	ar7
      000020 C0 06            [24] 1252 	push	ar6
      000022 8E 82            [24] 1253 	mov	dpl,r6
      000024 8F 83            [24] 1254 	mov	dph,r7
      000026 12r00r00         [24] 1255 	lcall	__sdcc_call_dptr
      000029 D0 06            [24] 1256 	pop	ar6
      00002B D0 07            [24] 1257 	pop	ar7
      00002D                       1258 00104$:
      00002D 22               [24] 1259 	ret
                                   1260 ;------------------------------------------------------------
                                   1261 ;Allocation info for local variables in function 'off'
                                   1262 ;------------------------------------------------------------
                                   1263 ;	/home/user/contiki/core/net/mac/xmac.c:243: off(void)
                                   1264 ;	-----------------------------------------
                                   1265 ;	 function off
                                   1266 ;	-----------------------------------------
      00002E                       1267 _off:
                                   1268 ;	/home/user/contiki/core/net/mac/xmac.c:245: if(xmac_is_on && radio_is_on != 0 && is_listening == 0 &&
      00002E 90r00r08         [24] 1269 	mov	dptr,#_xmac_is_on
      000031 E0               [24] 1270 	movx	a,@dptr
      000032 FF               [12] 1271 	mov	r7,a
      000033 60 33            [24] 1272 	jz	00106$
      000035 90r00r0C         [24] 1273 	mov	dptr,#_radio_is_on
      000038 E0               [24] 1274 	movx	a,@dptr
      000039 FF               [12] 1275 	mov	r7,a
      00003A 60 2C            [24] 1276 	jz	00106$
      00003C 90r00r09         [24] 1277 	mov	dptr,#_is_listening
      00003F E0               [24] 1278 	movx	a,@dptr
      000040 FF               [12] 1279 	mov	r7,a
      000041 70 25            [24] 1280 	jnz	00106$
                                   1281 ;	/home/user/contiki/core/net/mac/xmac.c:246: is_streaming == 0) {
      000043 90r00r2A         [24] 1282 	mov	dptr,#_is_streaming
      000046 E0               [24] 1283 	movx	a,@dptr
      000047 FF               [12] 1284 	mov	r7,a
      000048 70 1E            [24] 1285 	jnz	00106$
                                   1286 ;	/home/user/contiki/core/net/mac/xmac.c:247: radio_is_on = 0;
      00004A 90r00r0C         [24] 1287 	mov	dptr,#_radio_is_on
      00004D E4               [12] 1288 	clr	a
      00004E F0               [24] 1289 	movx	@dptr,a
                                   1290 ;	/home/user/contiki/core/net/mac/xmac.c:248: NETSTACK_RADIO.off();
      00004F 90r00r12         [24] 1291 	mov	dptr,#(_cc2530_rf_driver + 0x0012)
      000052 E4               [12] 1292 	clr	a
      000053 93               [24] 1293 	movc	a,@a+dptr
      000054 FE               [12] 1294 	mov	r6,a
      000055 A3               [24] 1295 	inc	dptr
      000056 E4               [12] 1296 	clr	a
      000057 93               [24] 1297 	movc	a,@a+dptr
      000058 FF               [12] 1298 	mov	r7,a
      000059 C0 07            [24] 1299 	push	ar7
      00005B C0 06            [24] 1300 	push	ar6
      00005D 8E 82            [24] 1301 	mov	dpl,r6
      00005F 8F 83            [24] 1302 	mov	dph,r7
      000061 12r00r00         [24] 1303 	lcall	__sdcc_call_dptr
      000064 D0 06            [24] 1304 	pop	ar6
      000066 D0 07            [24] 1305 	pop	ar7
      000068                       1306 00106$:
      000068 22               [24] 1307 	ret
                                   1308 ;------------------------------------------------------------
                                   1309 ;Allocation info for local variables in function 'schedule_powercycle'
                                   1310 ;------------------------------------------------------------
                                   1311 ;time                      Allocated to stack - sp -6
                                   1312 ;t                         Allocated to stack - sp -2
                                   1313 ;r                         Allocated to registers 
                                   1314 ;------------------------------------------------------------
                                   1315 ;	/home/user/contiki/core/net/mac/xmac.c:255: schedule_powercycle(struct rtimer *t, rtimer_clock_t time)
                                   1316 ;	-----------------------------------------
                                   1317 ;	 function schedule_powercycle
                                   1318 ;	-----------------------------------------
      000069                       1319 _schedule_powercycle:
      000069 C0 82            [24] 1320 	push	dpl
      00006B C0 83            [24] 1321 	push	dph
      00006D C0 F0            [24] 1322 	push	b
                                   1323 ;	/home/user/contiki/core/net/mac/xmac.c:258: if(xmac_is_on) {
      00006F 90r00r08         [24] 1324 	mov	dptr,#_xmac_is_on
      000072 E0               [24] 1325 	movx	a,@dptr
      000073 FC               [12] 1326 	mov	r4,a
      000074 60 51            [24] 1327 	jz	00103$
                                   1328 ;	/home/user/contiki/core/net/mac/xmac.c:260: (void (*)(struct rtimer *, void *))powercycle, NULL);
      000076 7BrF2            [12] 1329 	mov	r3,#_powercycle
      000078 7Cs00            [12] 1330 	mov	r4,#(_powercycle >> 8)
                                   1331 ;	/home/user/contiki/core/net/mac/xmac.c:259: r = rtimer_set(t, RTIMER_TIME(t) + time, 1,
      00007A A8 81            [24] 1332 	mov	r0,sp
      00007C 18               [12] 1333 	dec	r0
      00007D 18               [12] 1334 	dec	r0
      00007E 86 82            [24] 1335 	mov	dpl,@r0
      000080 08               [12] 1336 	inc	r0
      000081 86 83            [24] 1337 	mov	dph,@r0
      000083 08               [12] 1338 	inc	r0
      000084 86 F0            [24] 1339 	mov	b,@r0
      000086 12r00r00         [24] 1340 	lcall	__gptrget
      000089 FA               [12] 1341 	mov	r2,a
      00008A A3               [24] 1342 	inc	dptr
      00008B 12r00r00         [24] 1343 	lcall	__gptrget
      00008E FF               [12] 1344 	mov	r7,a
      00008F E5 81            [12] 1345 	mov	a,sp
      000091 24 FA            [12] 1346 	add	a,#0xfa
      000093 F8               [12] 1347 	mov	r0,a
      000094 E6               [12] 1348 	mov	a,@r0
      000095 2A               [12] 1349 	add	a,r2
      000096 FA               [12] 1350 	mov	r2,a
      000097 08               [12] 1351 	inc	r0
      000098 E6               [12] 1352 	mov	a,@r0
      000099 3F               [12] 1353 	addc	a,r7
      00009A FF               [12] 1354 	mov	r7,a
      00009B E4               [12] 1355 	clr	a
      00009C C0 E0            [24] 1356 	push	acc
      00009E C0 E0            [24] 1357 	push	acc
      0000A0 C0 E0            [24] 1358 	push	acc
      0000A2 C0 03            [24] 1359 	push	ar3
      0000A4 C0 04            [24] 1360 	push	ar4
      0000A6 74 01            [12] 1361 	mov	a,#0x01
      0000A8 C0 E0            [24] 1362 	push	acc
      0000AA E4               [12] 1363 	clr	a
      0000AB C0 E0            [24] 1364 	push	acc
      0000AD C0 02            [24] 1365 	push	ar2
      0000AF C0 07            [24] 1366 	push	ar7
      0000B1 E5 81            [12] 1367 	mov	a,sp
      0000B3 24 F5            [12] 1368 	add	a,#0xf5
      0000B5 F8               [12] 1369 	mov	r0,a
      0000B6 86 82            [24] 1370 	mov	dpl,@r0
      0000B8 08               [12] 1371 	inc	r0
      0000B9 86 83            [24] 1372 	mov	dph,@r0
      0000BB 08               [12] 1373 	inc	r0
      0000BC 86 F0            [24] 1374 	mov	b,@r0
      0000BE 12r00r00         [24] 1375 	lcall	_rtimer_set
      0000C1 E5 81            [12] 1376 	mov	a,sp
      0000C3 24 F7            [12] 1377 	add	a,#0xf7
      0000C5 F5 81            [12] 1378 	mov	sp,a
                                   1379 ;	/home/user/contiki/core/net/mac/xmac.c:261: if(r) {
      0000C7                       1380 00103$:
      0000C7 15 81            [12] 1381 	dec	sp
      0000C9 15 81            [12] 1382 	dec	sp
      0000CB 15 81            [12] 1383 	dec	sp
      0000CD 22               [24] 1384 	ret
                                   1385 ;------------------------------------------------------------
                                   1386 ;Allocation info for local variables in function 'powercycle_turn_radio_off'
                                   1387 ;------------------------------------------------------------
                                   1388 ;	/home/user/contiki/core/net/mac/xmac.c:267: powercycle_turn_radio_off(void)
                                   1389 ;	-----------------------------------------
                                   1390 ;	 function powercycle_turn_radio_off
                                   1391 ;	-----------------------------------------
      0000CE                       1392 _powercycle_turn_radio_off:
                                   1393 ;	/home/user/contiki/core/net/mac/xmac.c:269: if(we_are_sending == 0 &&
      0000CE 90r00r0B         [24] 1394 	mov	dptr,#_we_are_sending
      0000D1 E0               [24] 1395 	movx	a,@dptr
      0000D2 FF               [12] 1396 	mov	r7,a
      0000D3 70 0A            [24] 1397 	jnz	00104$
                                   1398 ;	/home/user/contiki/core/net/mac/xmac.c:270: waiting_for_packet == 0) {
      0000D5 90r00r09         [24] 1399 	mov	dptr,#_waiting_for_packet
      0000D8 E0               [24] 1400 	movx	a,@dptr
      0000D9 FF               [12] 1401 	mov	r7,a
      0000DA 70 03            [24] 1402 	jnz	00104$
                                   1403 ;	/home/user/contiki/core/net/mac/xmac.c:271: off();
      0000DC 02r00r2E         [24] 1404 	ljmp	_off
      0000DF                       1405 00104$:
      0000DF 22               [24] 1406 	ret
                                   1407 ;------------------------------------------------------------
                                   1408 ;Allocation info for local variables in function 'powercycle_turn_radio_on'
                                   1409 ;------------------------------------------------------------
                                   1410 ;	/home/user/contiki/core/net/mac/xmac.c:278: powercycle_turn_radio_on(void)
                                   1411 ;	-----------------------------------------
                                   1412 ;	 function powercycle_turn_radio_on
                                   1413 ;	-----------------------------------------
      0000E0                       1414 _powercycle_turn_radio_on:
                                   1415 ;	/home/user/contiki/core/net/mac/xmac.c:280: if(we_are_sending == 0 &&
      0000E0 90r00r0B         [24] 1416 	mov	dptr,#_we_are_sending
      0000E3 E0               [24] 1417 	movx	a,@dptr
      0000E4 FF               [12] 1418 	mov	r7,a
      0000E5 70 0A            [24] 1419 	jnz	00104$
                                   1420 ;	/home/user/contiki/core/net/mac/xmac.c:281: waiting_for_packet == 0) {
      0000E7 90r00r09         [24] 1421 	mov	dptr,#_waiting_for_packet
      0000EA E0               [24] 1422 	movx	a,@dptr
      0000EB FF               [12] 1423 	mov	r7,a
      0000EC 70 03            [24] 1424 	jnz	00104$
                                   1425 ;	/home/user/contiki/core/net/mac/xmac.c:282: on();
      0000EE 02r00r00         [24] 1426 	ljmp	_on
      0000F1                       1427 00104$:
      0000F1 22               [24] 1428 	ret
                                   1429 ;------------------------------------------------------------
                                   1430 ;Allocation info for local variables in function 'powercycle'
                                   1431 ;------------------------------------------------------------
                                   1432 ;ptr                       Allocated to stack - sp -4
                                   1433 ;t                         Allocated to registers r5 r6 r7 
                                   1434 ;PT_YIELD_FLAG             Allocated to registers r4 
                                   1435 ;------------------------------------------------------------
                                   1436 ;	/home/user/contiki/core/net/mac/xmac.c:286: powercycle(struct rtimer *t, void *ptr)
                                   1437 ;	-----------------------------------------
                                   1438 ;	 function powercycle
                                   1439 ;	-----------------------------------------
      0000F2                       1440 _powercycle:
      0000F2 AD 82            [24] 1441 	mov	r5,dpl
      0000F4 AE 83            [24] 1442 	mov	r6,dph
      0000F6 AF F0            [24] 1443 	mov	r7,b
                                   1444 ;	/home/user/contiki/core/net/mac/xmac.c:288: if(is_streaming) {
      0000F8 90r00r2A         [24] 1445 	mov	dptr,#_is_streaming
      0000FB E0               [24] 1446 	movx	a,@dptr
      0000FC FC               [12] 1447 	mov	r4,a
      0000FD 60 72            [24] 1448 	jz	00104$
                                   1449 ;	/home/user/contiki/core/net/mac/xmac.c:289: if(!RTIMER_CLOCK_LT(RTIMER_NOW(), stream_until)) {
      0000FF C0 05            [24] 1450 	push	ar5
      000101 C0 06            [24] 1451 	push	ar6
      000103 C0 07            [24] 1452 	push	ar7
      000105 AB E2            [24] 1453 	mov	r3,_T1CNTL
      000107 7C 00            [12] 1454 	mov	r4,#0x00
      000109 AA E3            [24] 1455 	mov	r2,_T1CNTH
      00010B 8A 07            [24] 1456 	mov	ar7,r2
      00010D E4               [12] 1457 	clr	a
      00010E FA               [12] 1458 	mov	r2,a
      00010F 2B               [12] 1459 	add	a,r3
      000110 FB               [12] 1460 	mov	r3,a
      000111 EF               [12] 1461 	mov	a,r7
      000112 3C               [12] 1462 	addc	a,r4
      000113 FC               [12] 1463 	mov	r4,a
      000114 90r00r2F         [24] 1464 	mov	dptr,#_stream_until
      000117 E0               [24] 1465 	movx	a,@dptr
      000118 FE               [12] 1466 	mov	r6,a
      000119 A3               [24] 1467 	inc	dptr
      00011A E0               [24] 1468 	movx	a,@dptr
      00011B FF               [12] 1469 	mov	r7,a
      00011C EB               [12] 1470 	mov	a,r3
      00011D C3               [12] 1471 	clr	c
      00011E 9E               [12] 1472 	subb	a,r6
      00011F EC               [12] 1473 	mov	a,r4
      000120 9F               [12] 1474 	subb	a,r7
      000121 D0 07            [24] 1475 	pop	ar7
      000123 D0 06            [24] 1476 	pop	ar6
      000125 D0 05            [24] 1477 	pop	ar5
      000127 20 E7 47         [24] 1478 	jb	acc.7,00104$
                                   1479 ;	/home/user/contiki/core/net/mac/xmac.c:290: is_streaming = 0;
      00012A 90r00r2A         [24] 1480 	mov	dptr,#_is_streaming
      00012D E4               [12] 1481 	clr	a
      00012E F0               [24] 1482 	movx	@dptr,a
                                   1483 ;	/home/user/contiki/core/net/mac/xmac.c:291: rimeaddr_copy(&is_streaming_to, &rimeaddr_null);
      00012F C0 07            [24] 1484 	push	ar7
      000131 C0 06            [24] 1485 	push	ar6
      000133 C0 05            [24] 1486 	push	ar5
      000135 74r00            [12] 1487 	mov	a,#_rimeaddr_null
      000137 C0 E0            [24] 1488 	push	acc
      000139 74s00            [12] 1489 	mov	a,#(_rimeaddr_null >> 8)
      00013B C0 E0            [24] 1490 	push	acc
      00013D 74 80            [12] 1491 	mov	a,#0x80
      00013F C0 E0            [24] 1492 	push	acc
      000141 90r00r2B         [24] 1493 	mov	dptr,#_is_streaming_to
      000144 75 F0 00         [24] 1494 	mov	b,#0x00
      000147 12r00r00         [24] 1495 	lcall	_rimeaddr_copy
      00014A 15 81            [12] 1496 	dec	sp
      00014C 15 81            [12] 1497 	dec	sp
      00014E 15 81            [12] 1498 	dec	sp
                                   1499 ;	/home/user/contiki/core/net/mac/xmac.c:292: rimeaddr_copy(&is_streaming_to_too, &rimeaddr_null);
      000150 74r00            [12] 1500 	mov	a,#_rimeaddr_null
      000152 C0 E0            [24] 1501 	push	acc
      000154 74s00            [12] 1502 	mov	a,#(_rimeaddr_null >> 8)
      000156 C0 E0            [24] 1503 	push	acc
      000158 74 80            [12] 1504 	mov	a,#0x80
      00015A C0 E0            [24] 1505 	push	acc
      00015C 90r00r2D         [24] 1506 	mov	dptr,#_is_streaming_to_too
      00015F 75 F0 00         [24] 1507 	mov	b,#0x00
      000162 12r00r00         [24] 1508 	lcall	_rimeaddr_copy
      000165 15 81            [12] 1509 	dec	sp
      000167 15 81            [12] 1510 	dec	sp
      000169 15 81            [12] 1511 	dec	sp
      00016B D0 05            [24] 1512 	pop	ar5
      00016D D0 06            [24] 1513 	pop	ar6
      00016F D0 07            [24] 1514 	pop	ar7
      000171                       1515 00104$:
                                   1516 ;	/home/user/contiki/core/net/mac/xmac.c:296: PT_BEGIN(&pt);
      000171 7C 01            [12] 1517 	mov	r4,#0x01
      000173 90r00r07         [24] 1518 	mov	dptr,#_pt
      000176 E0               [24] 1519 	movx	a,@dptr
      000177 FA               [12] 1520 	mov	r2,a
      000178 A3               [24] 1521 	inc	dptr
      000179 E0               [24] 1522 	movx	a,@dptr
      00017A FB               [12] 1523 	mov	r3,a
      00017B BA 00 05         [24] 1524 	cjne	r2,#0x00,00174$
      00017E BB 00 02         [24] 1525 	cjne	r3,#0x00,00174$
      000181 80 14            [24] 1526 	sjmp	00128$
      000183                       1527 00174$:
      000183 BA 33 05         [24] 1528 	cjne	r2,#0x33,00175$
      000186 BB 01 02         [24] 1529 	cjne	r3,#0x01,00175$
      000189 80 5C            [24] 1530 	sjmp	00108$
      00018B                       1531 00175$:
      00018B BA 42 06         [24] 1532 	cjne	r2,#0x42,00176$
      00018E BB 01 03         [24] 1533 	cjne	r3,#0x01,00176$
      000191 02r02r8C         [24] 1534 	ljmp	00118$
      000194                       1535 00176$:
      000194 02r02r96         [24] 1536 	ljmp	00130$
                                   1537 ;	/home/user/contiki/core/net/mac/xmac.c:298: while(1) {
      000197                       1538 00128$:
                                   1539 ;	/home/user/contiki/core/net/mac/xmac.c:300: if(someone_is_sending > 0) {
      000197 90r00r0A         [24] 1540 	mov	dptr,#_someone_is_sending
      00019A E0               [24] 1541 	movx	a,@dptr
      00019B FB               [12] 1542 	mov	r3,a
      00019C 60 09            [24] 1543 	jz	00107$
                                   1544 ;	/home/user/contiki/core/net/mac/xmac.c:301: someone_is_sending--;
      00019E 90r00r0A         [24] 1545 	mov	dptr,#_someone_is_sending
      0001A1 E0               [24] 1546 	movx	a,@dptr
      0001A2 14               [12] 1547 	dec	a
      0001A3 90r00r0A         [24] 1548 	mov	dptr,#_someone_is_sending
      0001A6 F0               [24] 1549 	movx	@dptr,a
      0001A7                       1550 00107$:
                                   1551 ;	/home/user/contiki/core/net/mac/xmac.c:305: powercycle_turn_radio_on();
      0001A7 C0 07            [24] 1552 	push	ar7
      0001A9 C0 06            [24] 1553 	push	ar6
      0001AB C0 05            [24] 1554 	push	ar5
      0001AD 12r00rE0         [24] 1555 	lcall	_powercycle_turn_radio_on
      0001B0 D0 05            [24] 1556 	pop	ar5
      0001B2 D0 06            [24] 1557 	pop	ar6
      0001B4 D0 07            [24] 1558 	pop	ar7
                                   1559 ;	/home/user/contiki/core/net/mac/xmac.c:306: schedule_powercycle(t, xmac_config.on_time);
      0001B6 90r00r00         [24] 1560 	mov	dptr,#_xmac_config
      0001B9 E0               [24] 1561 	movx	a,@dptr
      0001BA FA               [12] 1562 	mov	r2,a
      0001BB A3               [24] 1563 	inc	dptr
      0001BC E0               [24] 1564 	movx	a,@dptr
      0001BD FB               [12] 1565 	mov	r3,a
      0001BE C0 07            [24] 1566 	push	ar7
      0001C0 C0 06            [24] 1567 	push	ar6
      0001C2 C0 05            [24] 1568 	push	ar5
      0001C4 C0 02            [24] 1569 	push	ar2
      0001C6 C0 03            [24] 1570 	push	ar3
      0001C8 8D 82            [24] 1571 	mov	dpl,r5
      0001CA 8E 83            [24] 1572 	mov	dph,r6
      0001CC 8F F0            [24] 1573 	mov	b,r7
      0001CE 12r00r69         [24] 1574 	lcall	_schedule_powercycle
      0001D1 15 81            [12] 1575 	dec	sp
      0001D3 15 81            [12] 1576 	dec	sp
      0001D5 D0 05            [24] 1577 	pop	ar5
      0001D7 D0 06            [24] 1578 	pop	ar6
      0001D9 D0 07            [24] 1579 	pop	ar7
                                   1580 ;	/home/user/contiki/core/net/mac/xmac.c:307: PT_YIELD(&pt);
      0001DB 7C 00            [12] 1581 	mov	r4,#0x00
      0001DD 90r00r07         [24] 1582 	mov	dptr,#_pt
      0001E0 74 33            [12] 1583 	mov	a,#0x33
      0001E2 F0               [24] 1584 	movx	@dptr,a
      0001E3 74 01            [12] 1585 	mov	a,#0x01
      0001E5 A3               [24] 1586 	inc	dptr
      0001E6 F0               [24] 1587 	movx	@dptr,a
      0001E7                       1588 00108$:
      0001E7 EC               [12] 1589 	mov	a,r4
      0001E8 70 04            [24] 1590 	jnz	00112$
      0001EA 75 82 01         [24] 1591 	mov	dpl,#0x01
      0001ED 22               [24] 1592 	ret
      0001EE                       1593 00112$:
                                   1594 ;	/home/user/contiki/core/net/mac/xmac.c:309: if(xmac_config.off_time > 0 && !NETSTACK_RADIO.receiving_packet()) {
      0001EE 90r00r02         [24] 1595 	mov	dptr,#(_xmac_config + 0x0002)
      0001F1 E0               [24] 1596 	movx	a,@dptr
      0001F2 FA               [12] 1597 	mov	r2,a
      0001F3 A3               [24] 1598 	inc	dptr
      0001F4 E0               [24] 1599 	movx	a,@dptr
      0001F5 FB               [12] 1600 	mov	r3,a
      0001F6 4A               [12] 1601 	orl	a,r2
      0001F7 60 9E            [24] 1602 	jz	00128$
      0001F9 90r00r0C         [24] 1603 	mov	dptr,#(_cc2530_rf_driver + 0x000c)
      0001FC E4               [12] 1604 	clr	a
      0001FD 93               [24] 1605 	movc	a,@a+dptr
      0001FE FA               [12] 1606 	mov	r2,a
      0001FF A3               [24] 1607 	inc	dptr
      000200 E4               [12] 1608 	clr	a
      000201 93               [24] 1609 	movc	a,@a+dptr
      000202 FB               [12] 1610 	mov	r3,a
      000203 C0 07            [24] 1611 	push	ar7
      000205 C0 06            [24] 1612 	push	ar6
      000207 C0 05            [24] 1613 	push	ar5
      000209 8A 82            [24] 1614 	mov	dpl,r2
      00020B 8B 83            [24] 1615 	mov	dph,r3
      00020D 12r00r00         [24] 1616 	lcall	__sdcc_call_dptr
      000210 AA 82            [24] 1617 	mov	r2,dpl
      000212 AB 83            [24] 1618 	mov	r3,dph
      000214 D0 05            [24] 1619 	pop	ar5
      000216 D0 06            [24] 1620 	pop	ar6
      000218 D0 07            [24] 1621 	pop	ar7
      00021A EA               [12] 1622 	mov	a,r2
      00021B 4B               [12] 1623 	orl	a,r3
      00021C 60 03            [24] 1624 	jz	00180$
      00021E 02r01r97         [24] 1625 	ljmp	00128$
      000221                       1626 00180$:
                                   1627 ;	/home/user/contiki/core/net/mac/xmac.c:310: powercycle_turn_radio_off();
      000221 C0 07            [24] 1628 	push	ar7
      000223 C0 06            [24] 1629 	push	ar6
      000225 C0 05            [24] 1630 	push	ar5
      000227 12r00rCE         [24] 1631 	lcall	_powercycle_turn_radio_off
      00022A D0 05            [24] 1632 	pop	ar5
      00022C D0 06            [24] 1633 	pop	ar6
      00022E D0 07            [24] 1634 	pop	ar7
                                   1635 ;	/home/user/contiki/core/net/mac/xmac.c:311: if(waiting_for_packet != 0) {
      000230 90r00r09         [24] 1636 	mov	dptr,#_waiting_for_packet
      000233 E0               [24] 1637 	movx	a,@dptr
      000234 FB               [12] 1638 	mov	r3,a
      000235 60 24            [24] 1639 	jz	00117$
                                   1640 ;	/home/user/contiki/core/net/mac/xmac.c:312: waiting_for_packet++;
      000237 90r00r09         [24] 1641 	mov	dptr,#_waiting_for_packet
      00023A E0               [24] 1642 	movx	a,@dptr
      00023B 24 01            [12] 1643 	add	a,#0x01
      00023D F0               [24] 1644 	movx	@dptr,a
                                   1645 ;	/home/user/contiki/core/net/mac/xmac.c:313: if(waiting_for_packet > 2) {
      00023E 90r00r09         [24] 1646 	mov	dptr,#_waiting_for_packet
      000241 E0               [24] 1647 	movx	a,@dptr
      000242 FB               [12] 1648 	mov  r3,a
      000243 24 FD            [12] 1649 	add	a,#0xff - 0x02
      000245 50 14            [24] 1650 	jnc	00117$
                                   1651 ;	/home/user/contiki/core/net/mac/xmac.c:317: waiting_for_packet = 0;
      000247 90r00r09         [24] 1652 	mov	dptr,#_waiting_for_packet
      00024A E4               [12] 1653 	clr	a
      00024B F0               [24] 1654 	movx	@dptr,a
                                   1655 ;	/home/user/contiki/core/net/mac/xmac.c:318: powercycle_turn_radio_off();
      00024C C0 07            [24] 1656 	push	ar7
      00024E C0 06            [24] 1657 	push	ar6
      000250 C0 05            [24] 1658 	push	ar5
      000252 12r00rCE         [24] 1659 	lcall	_powercycle_turn_radio_off
      000255 D0 05            [24] 1660 	pop	ar5
      000257 D0 06            [24] 1661 	pop	ar6
      000259 D0 07            [24] 1662 	pop	ar7
      00025B                       1663 00117$:
                                   1664 ;	/home/user/contiki/core/net/mac/xmac.c:321: schedule_powercycle(t, xmac_config.off_time);
      00025B 90r00r02         [24] 1665 	mov	dptr,#(_xmac_config + 0x0002)
      00025E E0               [24] 1666 	movx	a,@dptr
      00025F FA               [12] 1667 	mov	r2,a
      000260 A3               [24] 1668 	inc	dptr
      000261 E0               [24] 1669 	movx	a,@dptr
      000262 FB               [12] 1670 	mov	r3,a
      000263 C0 07            [24] 1671 	push	ar7
      000265 C0 06            [24] 1672 	push	ar6
      000267 C0 05            [24] 1673 	push	ar5
      000269 C0 02            [24] 1674 	push	ar2
      00026B C0 03            [24] 1675 	push	ar3
      00026D 8D 82            [24] 1676 	mov	dpl,r5
      00026F 8E 83            [24] 1677 	mov	dph,r6
      000271 8F F0            [24] 1678 	mov	b,r7
      000273 12r00r69         [24] 1679 	lcall	_schedule_powercycle
      000276 15 81            [12] 1680 	dec	sp
      000278 15 81            [12] 1681 	dec	sp
      00027A D0 05            [24] 1682 	pop	ar5
      00027C D0 06            [24] 1683 	pop	ar6
      00027E D0 07            [24] 1684 	pop	ar7
                                   1685 ;	/home/user/contiki/core/net/mac/xmac.c:322: PT_YIELD(&pt);
      000280 7C 00            [12] 1686 	mov	r4,#0x00
      000282 90r00r07         [24] 1687 	mov	dptr,#_pt
      000285 74 42            [12] 1688 	mov	a,#0x42
      000287 F0               [24] 1689 	movx	@dptr,a
      000288 74 01            [12] 1690 	mov	a,#0x01
      00028A A3               [24] 1691 	inc	dptr
      00028B F0               [24] 1692 	movx	@dptr,a
      00028C                       1693 00118$:
      00028C EC               [12] 1694 	mov	a,r4
      00028D 60 03            [24] 1695 	jz	00183$
      00028F 02r01r97         [24] 1696 	ljmp	00128$
      000292                       1697 00183$:
      000292 75 82 01         [24] 1698 	mov	dpl,#0x01
                                   1699 ;	/home/user/contiki/core/net/mac/xmac.c:326: PT_END(&pt);
      000295 22               [24] 1700 	ret
      000296                       1701 00130$:
      000296 90r00r07         [24] 1702 	mov	dptr,#_pt
      000299 E4               [12] 1703 	clr	a
      00029A F0               [24] 1704 	movx	@dptr,a
      00029B E4               [12] 1705 	clr	a
      00029C A3               [24] 1706 	inc	dptr
      00029D F0               [24] 1707 	movx	@dptr,a
      00029E 75 82 03         [24] 1708 	mov	dpl,#0x03
      0002A1 22               [24] 1709 	ret
                                   1710 ;------------------------------------------------------------
                                   1711 ;Allocation info for local variables in function 'register_encounter'
                                   1712 ;------------------------------------------------------------
                                   1713 ;time                      Allocated to stack - sp -6
                                   1714 ;neighbor                  Allocated to stack - sp -2
                                   1715 ;e                         Allocated to registers r2 r3 r4 
                                   1716 ;------------------------------------------------------------
                                   1717 ;	/home/user/contiki/core/net/mac/xmac.c:391: register_encounter(const rimeaddr_t *neighbor, rtimer_clock_t time)
                                   1718 ;	-----------------------------------------
                                   1719 ;	 function register_encounter
                                   1720 ;	-----------------------------------------
      0002A2                       1721 _register_encounter:
      0002A2 C0 82            [24] 1722 	push	dpl
      0002A4 C0 83            [24] 1723 	push	dph
      0002A6 C0 F0            [24] 1724 	push	b
                                   1725 ;	/home/user/contiki/core/net/mac/xmac.c:396: for(e = list_head(encounter_list); e != NULL; e = list_item_next(e)) {
      0002A8 90r00r10         [24] 1726 	mov	dptr,#_encounter_list
      0002AB E0               [24] 1727 	movx	a,@dptr
      0002AC FA               [12] 1728 	mov	r2,a
      0002AD A3               [24] 1729 	inc	dptr
      0002AE E0               [24] 1730 	movx	a,@dptr
      0002AF FB               [12] 1731 	mov	r3,a
      0002B0 A3               [24] 1732 	inc	dptr
      0002B1 E0               [24] 1733 	movx	a,@dptr
      0002B2 FC               [12] 1734 	mov	r4,a
      0002B3 8A 82            [24] 1735 	mov	dpl,r2
      0002B5 8B 83            [24] 1736 	mov	dph,r3
      0002B7 8C F0            [24] 1737 	mov	b,r4
      0002B9 12r00r00         [24] 1738 	lcall	_list_head
      0002BC AA 82            [24] 1739 	mov	r2,dpl
      0002BE AB 83            [24] 1740 	mov	r3,dph
      0002C0 AC F0            [24] 1741 	mov	r4,b
      0002C2                       1742 00109$:
      0002C2 E4               [12] 1743 	clr	a
      0002C3 C0 E0            [24] 1744 	push	acc
      0002C5 E4               [12] 1745 	clr	a
      0002C6 C0 E0            [24] 1746 	push	acc
      0002C8 E4               [12] 1747 	clr	a
      0002C9 C0 E0            [24] 1748 	push	acc
      0002CB 8A 82            [24] 1749 	mov	dpl,r2
      0002CD 8B 83            [24] 1750 	mov	dph,r3
      0002CF 8C F0            [24] 1751 	mov	b,r4
      0002D1 12r00r00         [24] 1752 	lcall	___gptr_cmp
      0002D4 15 81            [12] 1753 	dec	sp
      0002D6 15 81            [12] 1754 	dec	sp
      0002D8 15 81            [12] 1755 	dec	sp
      0002DA 60 77            [24] 1756 	jz	00103$
                                   1757 ;	/home/user/contiki/core/net/mac/xmac.c:397: if(rimeaddr_cmp(neighbor, &e->neighbor)) {
      0002DC 74 03            [12] 1758 	mov	a,#0x03
      0002DE 2A               [12] 1759 	add	a,r2
      0002DF FD               [12] 1760 	mov	r5,a
      0002E0 E4               [12] 1761 	clr	a
      0002E1 3B               [12] 1762 	addc	a,r3
      0002E2 FE               [12] 1763 	mov	r6,a
      0002E3 8C 07            [24] 1764 	mov	ar7,r4
      0002E5 C0 04            [24] 1765 	push	ar4
      0002E7 C0 03            [24] 1766 	push	ar3
      0002E9 C0 02            [24] 1767 	push	ar2
      0002EB C0 05            [24] 1768 	push	ar5
      0002ED C0 06            [24] 1769 	push	ar6
      0002EF C0 07            [24] 1770 	push	ar7
      0002F1 E5 81            [12] 1771 	mov	a,sp
      0002F3 24 F8            [12] 1772 	add	a,#0xf8
      0002F5 F8               [12] 1773 	mov	r0,a
      0002F6 86 82            [24] 1774 	mov	dpl,@r0
      0002F8 08               [12] 1775 	inc	r0
      0002F9 86 83            [24] 1776 	mov	dph,@r0
      0002FB 08               [12] 1777 	inc	r0
      0002FC 86 F0            [24] 1778 	mov	b,@r0
      0002FE 12r00r00         [24] 1779 	lcall	_rimeaddr_cmp
      000301 AE 82            [24] 1780 	mov	r6,dpl
      000303 AF 83            [24] 1781 	mov	r7,dph
      000305 15 81            [12] 1782 	dec	sp
      000307 15 81            [12] 1783 	dec	sp
      000309 15 81            [12] 1784 	dec	sp
      00030B D0 02            [24] 1785 	pop	ar2
      00030D D0 03            [24] 1786 	pop	ar3
      00030F D0 04            [24] 1787 	pop	ar4
      000311 EE               [12] 1788 	mov	a,r6
      000312 4F               [12] 1789 	orl	a,r7
      000313 60 20            [24] 1790 	jz	00110$
                                   1791 ;	/home/user/contiki/core/net/mac/xmac.c:398: e->time = time;
      000315 74 05            [12] 1792 	mov	a,#0x05
      000317 2A               [12] 1793 	add	a,r2
      000318 FD               [12] 1794 	mov	r5,a
      000319 E4               [12] 1795 	clr	a
      00031A 3B               [12] 1796 	addc	a,r3
      00031B FE               [12] 1797 	mov	r6,a
      00031C 8C 07            [24] 1798 	mov	ar7,r4
      00031E 8D 82            [24] 1799 	mov	dpl,r5
      000320 8E 83            [24] 1800 	mov	dph,r6
      000322 8F F0            [24] 1801 	mov	b,r7
      000324 E5 81            [12] 1802 	mov	a,sp
      000326 24 FA            [12] 1803 	add	a,#0xfa
      000328 F8               [12] 1804 	mov	r0,a
      000329 E6               [12] 1805 	mov	a,@r0
      00032A 12r00r00         [24] 1806 	lcall	__gptrput
      00032D A3               [24] 1807 	inc	dptr
      00032E 08               [12] 1808 	inc	r0
      00032F E6               [12] 1809 	mov	a,@r0
      000330 12r00r00         [24] 1810 	lcall	__gptrput
                                   1811 ;	/home/user/contiki/core/net/mac/xmac.c:399: break;
      000333 80 1E            [24] 1812 	sjmp	00103$
      000335                       1813 00110$:
                                   1814 ;	/home/user/contiki/core/net/mac/xmac.c:396: for(e = list_head(encounter_list); e != NULL; e = list_item_next(e)) {
      000335 8A 05            [24] 1815 	mov	ar5,r2
      000337 8B 06            [24] 1816 	mov	ar6,r3
      000339 8C 07            [24] 1817 	mov	ar7,r4
      00033B 8D 82            [24] 1818 	mov	dpl,r5
      00033D 8E 83            [24] 1819 	mov	dph,r6
      00033F 8F F0            [24] 1820 	mov	b,r7
      000341 12r00r00         [24] 1821 	lcall	_list_item_next
      000344 AD 82            [24] 1822 	mov	r5,dpl
      000346 AE 83            [24] 1823 	mov	r6,dph
      000348 AF F0            [24] 1824 	mov	r7,b
      00034A 8D 02            [24] 1825 	mov	ar2,r5
      00034C 8E 03            [24] 1826 	mov	ar3,r6
      00034E 8F 04            [24] 1827 	mov	ar4,r7
      000350 02r02rC2         [24] 1828 	ljmp	00109$
      000353                       1829 00103$:
                                   1830 ;	/home/user/contiki/core/net/mac/xmac.c:403: if(e == NULL) {
      000353 EA               [12] 1831 	mov	a,r2
      000354 4B               [12] 1832 	orl	a,r3
      000355 60 03            [24] 1833 	jz	00130$
      000357 02r03rE7         [24] 1834 	ljmp	00111$
      00035A                       1835 00130$:
                                   1836 ;	/home/user/contiki/core/net/mac/xmac.c:404: e = memb_alloc(&encounter_memb);
      00035A 90r00r13         [24] 1837 	mov	dptr,#_encounter_memb
      00035D 75 F0 00         [24] 1838 	mov	b,#0x00
      000360 12r00r00         [24] 1839 	lcall	_memb_alloc
      000363 AD 82            [24] 1840 	mov	r5,dpl
      000365 AE 83            [24] 1841 	mov	r6,dph
      000367 AF F0            [24] 1842 	mov	r7,b
      000369 8D 02            [24] 1843 	mov	ar2,r5
      00036B 8E 03            [24] 1844 	mov	ar3,r6
      00036D 8F 04            [24] 1845 	mov	ar4,r7
                                   1846 ;	/home/user/contiki/core/net/mac/xmac.c:405: if(e == NULL) {
      00036F EA               [12] 1847 	mov	a,r2
      000370 4B               [12] 1848 	orl	a,r3
      000371 70 02            [24] 1849 	jnz	00105$
                                   1850 ;	/home/user/contiki/core/net/mac/xmac.c:407: return;
      000373 80 72            [24] 1851 	sjmp	00111$
      000375                       1852 00105$:
                                   1853 ;	/home/user/contiki/core/net/mac/xmac.c:409: rimeaddr_copy(&e->neighbor, neighbor);
      000375 74 03            [12] 1854 	mov	a,#0x03
      000377 2A               [12] 1855 	add	a,r2
      000378 FD               [12] 1856 	mov	r5,a
      000379 E4               [12] 1857 	clr	a
      00037A 3B               [12] 1858 	addc	a,r3
      00037B FE               [12] 1859 	mov	r6,a
      00037C 8C 07            [24] 1860 	mov	ar7,r4
      00037E C0 04            [24] 1861 	push	ar4
      000380 C0 03            [24] 1862 	push	ar3
      000382 C0 02            [24] 1863 	push	ar2
      000384 E5 81            [12] 1864 	mov	a,sp
      000386 24 FB            [12] 1865 	add	a,#0xfb
      000388 F8               [12] 1866 	mov	r0,a
      000389 E6               [12] 1867 	mov	a,@r0
      00038A C0 E0            [24] 1868 	push	acc
      00038C 08               [12] 1869 	inc	r0
      00038D E6               [12] 1870 	mov	a,@r0
      00038E C0 E0            [24] 1871 	push	acc
      000390 08               [12] 1872 	inc	r0
      000391 E6               [12] 1873 	mov	a,@r0
      000392 C0 E0            [24] 1874 	push	acc
      000394 8D 82            [24] 1875 	mov	dpl,r5
      000396 8E 83            [24] 1876 	mov	dph,r6
      000398 8F F0            [24] 1877 	mov	b,r7
      00039A 12r00r00         [24] 1878 	lcall	_rimeaddr_copy
      00039D 15 81            [12] 1879 	dec	sp
      00039F 15 81            [12] 1880 	dec	sp
      0003A1 15 81            [12] 1881 	dec	sp
      0003A3 D0 02            [24] 1882 	pop	ar2
      0003A5 D0 03            [24] 1883 	pop	ar3
      0003A7 D0 04            [24] 1884 	pop	ar4
                                   1885 ;	/home/user/contiki/core/net/mac/xmac.c:410: e->time = time;
      0003A9 74 05            [12] 1886 	mov	a,#0x05
      0003AB 2A               [12] 1887 	add	a,r2
      0003AC FD               [12] 1888 	mov	r5,a
      0003AD E4               [12] 1889 	clr	a
      0003AE 3B               [12] 1890 	addc	a,r3
      0003AF FE               [12] 1891 	mov	r6,a
      0003B0 8C 07            [24] 1892 	mov	ar7,r4
      0003B2 8D 82            [24] 1893 	mov	dpl,r5
      0003B4 8E 83            [24] 1894 	mov	dph,r6
      0003B6 8F F0            [24] 1895 	mov	b,r7
      0003B8 E5 81            [12] 1896 	mov	a,sp
      0003BA 24 FA            [12] 1897 	add	a,#0xfa
      0003BC F8               [12] 1898 	mov	r0,a
      0003BD E6               [12] 1899 	mov	a,@r0
      0003BE 12r00r00         [24] 1900 	lcall	__gptrput
      0003C1 A3               [24] 1901 	inc	dptr
      0003C2 08               [12] 1902 	inc	r0
      0003C3 E6               [12] 1903 	mov	a,@r0
      0003C4 12r00r00         [24] 1904 	lcall	__gptrput
                                   1905 ;	/home/user/contiki/core/net/mac/xmac.c:411: list_add(encounter_list, e);
      0003C7 90r00r10         [24] 1906 	mov	dptr,#_encounter_list
      0003CA E0               [24] 1907 	movx	a,@dptr
      0003CB FD               [12] 1908 	mov	r5,a
      0003CC A3               [24] 1909 	inc	dptr
      0003CD E0               [24] 1910 	movx	a,@dptr
      0003CE FE               [12] 1911 	mov	r6,a
      0003CF A3               [24] 1912 	inc	dptr
      0003D0 E0               [24] 1913 	movx	a,@dptr
      0003D1 FF               [12] 1914 	mov	r7,a
      0003D2 C0 02            [24] 1915 	push	ar2
      0003D4 C0 03            [24] 1916 	push	ar3
      0003D6 C0 04            [24] 1917 	push	ar4
      0003D8 8D 82            [24] 1918 	mov	dpl,r5
      0003DA 8E 83            [24] 1919 	mov	dph,r6
      0003DC 8F F0            [24] 1920 	mov	b,r7
      0003DE 12r00r00         [24] 1921 	lcall	_list_add
      0003E1 15 81            [12] 1922 	dec	sp
      0003E3 15 81            [12] 1923 	dec	sp
      0003E5 15 81            [12] 1924 	dec	sp
      0003E7                       1925 00111$:
      0003E7 15 81            [12] 1926 	dec	sp
      0003E9 15 81            [12] 1927 	dec	sp
      0003EB 15 81            [12] 1928 	dec	sp
      0003ED 22               [24] 1929 	ret
                                   1930 ;------------------------------------------------------------
                                   1931 ;Allocation info for local variables in function 'detect_ack'
                                   1932 ;------------------------------------------------------------
                                   1933 ;wt                        Allocated to registers r5 r6 
                                   1934 ;ack_received              Allocated to registers r7 
                                   1935 ;len                       Allocated to registers r5 r6 
                                   1936 ;ackbuf                    Allocated to stack - sp -4
                                   1937 ;------------------------------------------------------------
                                   1938 ;	/home/user/contiki/core/net/mac/xmac.c:417: detect_ack(void)
                                   1939 ;	-----------------------------------------
                                   1940 ;	 function detect_ack
                                   1941 ;	-----------------------------------------
      0003EE                       1942 _detect_ack:
      0003EE E5 81            [12] 1943 	mov	a,sp
      0003F0 24 05            [12] 1944 	add	a,#0x05
      0003F2 F5 81            [12] 1945 	mov	sp,a
                                   1946 ;	/home/user/contiki/core/net/mac/xmac.c:423: uint8_t ack_received = 0;
      0003F4 7F 00            [12] 1947 	mov	r7,#0x00
                                   1948 ;	/home/user/contiki/core/net/mac/xmac.c:425: wt = RTIMER_NOW();
      0003F6 AD E2            [24] 1949 	mov	r5,_T1CNTL
      0003F8 7E 00            [12] 1950 	mov	r6,#0x00
      0003FA AB E3            [24] 1951 	mov	r3,_T1CNTH
      0003FC 8B 04            [24] 1952 	mov	ar4,r3
      0003FE E4               [12] 1953 	clr	a
      0003FF 2D               [12] 1954 	add	a,r5
      000400 FD               [12] 1955 	mov	r5,a
      000401 EC               [12] 1956 	mov	a,r4
      000402 3E               [12] 1957 	addc	a,r6
      000403 FE               [12] 1958 	mov	r6,a
                                   1959 ;	/home/user/contiki/core/net/mac/xmac.c:426: leds_on(LEDS_GREEN);
      000404 75 82 01         [24] 1960 	mov	dpl,#0x01
      000407 C0 07            [24] 1961 	push	ar7
      000409 C0 06            [24] 1962 	push	ar6
      00040B C0 05            [24] 1963 	push	ar5
      00040D 12r00r00         [24] 1964 	lcall	_leds_on
      000410 D0 05            [24] 1965 	pop	ar5
      000412 D0 06            [24] 1966 	pop	ar6
      000414 D0 07            [24] 1967 	pop	ar7
                                   1968 ;	/home/user/contiki/core/net/mac/xmac.c:427: while(RTIMER_CLOCK_LT(RTIMER_NOW(), wt + INTER_PACKET_INTERVAL)) { }
      000416 74 03            [12] 1969 	mov	a,#0x03
      000418 2D               [12] 1970 	add	a,r5
      000419 FD               [12] 1971 	mov	r5,a
      00041A E4               [12] 1972 	clr	a
      00041B 3E               [12] 1973 	addc	a,r6
      00041C FE               [12] 1974 	mov	r6,a
      00041D                       1975 00101$:
      00041D C0 07            [24] 1976 	push	ar7
      00041F AB E2            [24] 1977 	mov	r3,_T1CNTL
      000421 7C 00            [12] 1978 	mov	r4,#0x00
      000423 AA E3            [24] 1979 	mov	r2,_T1CNTH
      000425 8A 07            [24] 1980 	mov	ar7,r2
      000427 E4               [12] 1981 	clr	a
      000428 FA               [12] 1982 	mov	r2,a
      000429 2B               [12] 1983 	add	a,r3
      00042A FB               [12] 1984 	mov	r3,a
      00042B EF               [12] 1985 	mov	a,r7
      00042C 3C               [12] 1986 	addc	a,r4
      00042D FC               [12] 1987 	mov	r4,a
      00042E EB               [12] 1988 	mov	a,r3
      00042F C3               [12] 1989 	clr	c
      000430 9D               [12] 1990 	subb	a,r5
      000431 FB               [12] 1991 	mov	r3,a
      000432 EC               [12] 1992 	mov	a,r4
      000433 9E               [12] 1993 	subb	a,r6
      000434 FC               [12] 1994 	mov	r4,a
      000435 D0 07            [24] 1995 	pop	ar7
      000437 20 E7 E3         [24] 1996 	jb	acc.7,00101$
                                   1997 ;	/home/user/contiki/core/net/mac/xmac.c:428: leds_off(LEDS_GREEN);
      00043A 75 82 01         [24] 1998 	mov	dpl,#0x01
      00043D C0 07            [24] 1999 	push	ar7
      00043F 12r00r00         [24] 2000 	lcall	_leds_off
                                   2001 ;	/home/user/contiki/core/net/mac/xmac.c:430: if((NETSTACK_RADIO.receiving_packet() ||
      000442 90r00r0C         [24] 2002 	mov	dptr,#(_cc2530_rf_driver + 0x000c)
      000445 E4               [12] 2003 	clr	a
      000446 93               [24] 2004 	movc	a,@a+dptr
      000447 FD               [12] 2005 	mov	r5,a
      000448 A3               [24] 2006 	inc	dptr
      000449 E4               [12] 2007 	clr	a
      00044A 93               [24] 2008 	movc	a,@a+dptr
      00044B FE               [12] 2009 	mov	r6,a
      00044C 8D 82            [24] 2010 	mov	dpl,r5
      00044E 8E 83            [24] 2011 	mov	dph,r6
      000450 12r00r00         [24] 2012 	lcall	__sdcc_call_dptr
      000453 AD 82            [24] 2013 	mov	r5,dpl
      000455 AE 83            [24] 2014 	mov	r6,dph
      000457 D0 07            [24] 2015 	pop	ar7
      000459 ED               [12] 2016 	mov	a,r5
      00045A 4E               [12] 2017 	orl	a,r6
      00045B 70 3A            [24] 2018 	jnz	00109$
                                   2019 ;	/home/user/contiki/core/net/mac/xmac.c:431: NETSTACK_RADIO.pending_packet() ||
      00045D 90r00r0E         [24] 2020 	mov	dptr,#(_cc2530_rf_driver + 0x000e)
      000460 E4               [12] 2021 	clr	a
      000461 93               [24] 2022 	movc	a,@a+dptr
      000462 FD               [12] 2023 	mov	r5,a
      000463 A3               [24] 2024 	inc	dptr
      000464 E4               [12] 2025 	clr	a
      000465 93               [24] 2026 	movc	a,@a+dptr
      000466 FE               [12] 2027 	mov	r6,a
      000467 C0 07            [24] 2028 	push	ar7
      000469 8D 82            [24] 2029 	mov	dpl,r5
      00046B 8E 83            [24] 2030 	mov	dph,r6
      00046D 12r00r00         [24] 2031 	lcall	__sdcc_call_dptr
      000470 AD 82            [24] 2032 	mov	r5,dpl
      000472 AE 83            [24] 2033 	mov	r6,dph
      000474 D0 07            [24] 2034 	pop	ar7
      000476 ED               [12] 2035 	mov	a,r5
      000477 4E               [12] 2036 	orl	a,r6
      000478 70 1D            [24] 2037 	jnz	00109$
                                   2038 ;	/home/user/contiki/core/net/mac/xmac.c:432: NETSTACK_RADIO.channel_clear() == 0)) {
      00047A 90r00r0A         [24] 2039 	mov	dptr,#(_cc2530_rf_driver + 0x000a)
      00047D E4               [12] 2040 	clr	a
      00047E 93               [24] 2041 	movc	a,@a+dptr
      00047F FD               [12] 2042 	mov	r5,a
      000480 A3               [24] 2043 	inc	dptr
      000481 E4               [12] 2044 	clr	a
      000482 93               [24] 2045 	movc	a,@a+dptr
      000483 FE               [12] 2046 	mov	r6,a
      000484 C0 07            [24] 2047 	push	ar7
      000486 8D 82            [24] 2048 	mov	dpl,r5
      000488 8E 83            [24] 2049 	mov	dph,r6
      00048A 12r00r00         [24] 2050 	lcall	__sdcc_call_dptr
      00048D AD 82            [24] 2051 	mov	r5,dpl
      00048F AE 83            [24] 2052 	mov	r6,dph
      000491 D0 07            [24] 2053 	pop	ar7
      000493 ED               [12] 2054 	mov	a,r5
      000494 4E               [12] 2055 	orl	a,r6
      000495 70 71            [24] 2056 	jnz	00110$
      000497                       2057 00109$:
                                   2058 ;	/home/user/contiki/core/net/mac/xmac.c:436: wt = RTIMER_NOW();
      000497 AD E2            [24] 2059 	mov	r5,_T1CNTL
      000499 7E 00            [12] 2060 	mov	r6,#0x00
      00049B AB E3            [24] 2061 	mov	r3,_T1CNTH
      00049D 8B 04            [24] 2062 	mov	ar4,r3
      00049F E4               [12] 2063 	clr	a
      0004A0 FB               [12] 2064 	mov	r3,a
      0004A1 2D               [12] 2065 	add	a,r5
      0004A2 FD               [12] 2066 	mov	r5,a
      0004A3 EC               [12] 2067 	mov	a,r4
      0004A4 3E               [12] 2068 	addc	a,r6
      0004A5 FE               [12] 2069 	mov	r6,a
                                   2070 ;	/home/user/contiki/core/net/mac/xmac.c:437: while(RTIMER_CLOCK_LT(RTIMER_NOW(), wt + AFTER_ACK_DETECTECT_WAIT_TIME)) { }
      0004A6 74 0F            [12] 2071 	mov	a,#0x0F
      0004A8 2D               [12] 2072 	add	a,r5
      0004A9 FD               [12] 2073 	mov	r5,a
      0004AA E4               [12] 2074 	clr	a
      0004AB 3E               [12] 2075 	addc	a,r6
      0004AC FE               [12] 2076 	mov	r6,a
      0004AD                       2077 00104$:
      0004AD C0 07            [24] 2078 	push	ar7
      0004AF AB E2            [24] 2079 	mov	r3,_T1CNTL
      0004B1 7C 00            [12] 2080 	mov	r4,#0x00
      0004B3 AA E3            [24] 2081 	mov	r2,_T1CNTH
      0004B5 8A 07            [24] 2082 	mov	ar7,r2
      0004B7 E4               [12] 2083 	clr	a
      0004B8 FA               [12] 2084 	mov	r2,a
      0004B9 2B               [12] 2085 	add	a,r3
      0004BA FB               [12] 2086 	mov	r3,a
      0004BB EF               [12] 2087 	mov	a,r7
      0004BC 3C               [12] 2088 	addc	a,r4
      0004BD FC               [12] 2089 	mov	r4,a
      0004BE EB               [12] 2090 	mov	a,r3
      0004BF C3               [12] 2091 	clr	c
      0004C0 9D               [12] 2092 	subb	a,r5
      0004C1 FB               [12] 2093 	mov	r3,a
      0004C2 EC               [12] 2094 	mov	a,r4
      0004C3 9E               [12] 2095 	subb	a,r6
      0004C4 FC               [12] 2096 	mov	r4,a
      0004C5 D0 07            [24] 2097 	pop	ar7
      0004C7 20 E7 E3         [24] 2098 	jb	acc.7,00104$
                                   2099 ;	/home/user/contiki/core/net/mac/xmac.c:439: len = NETSTACK_RADIO.read(ackbuf, ACK_LEN);
      0004CA 90r00r08         [24] 2100 	mov	dptr,#(_cc2530_rf_driver + 0x0008)
      0004CD E4               [12] 2101 	clr	a
      0004CE 93               [24] 2102 	movc	a,@a+dptr
      0004CF FD               [12] 2103 	mov	r5,a
      0004D0 A3               [24] 2104 	inc	dptr
      0004D1 E4               [12] 2105 	clr	a
      0004D2 93               [24] 2106 	movc	a,@a+dptr
      0004D3 FE               [12] 2107 	mov	r6,a
      0004D4 E5 81            [12] 2108 	mov	a,sp
      0004D6 24 FC            [12] 2109 	add	a,#0xFC
      0004D8 FC               [12] 2110 	mov	r4,a
      0004D9 7B 00            [12] 2111 	mov	r3,#0x00
      0004DB 7A 40            [12] 2112 	mov	r2,#0x40
      0004DD C0 07            [24] 2113 	push	ar7
      0004DF 74 03            [12] 2114 	mov	a,#0x03
      0004E1 C0 E0            [24] 2115 	push	acc
      0004E3 E4               [12] 2116 	clr	a
      0004E4 C0 E0            [24] 2117 	push	acc
      0004E6 12r04rEB         [24] 2118 	lcall	00146$
      0004E9 80 0B            [24] 2119 	sjmp	00147$
      0004EB                       2120 00146$:
      0004EB C0 05            [24] 2121 	push	ar5
      0004ED C0 06            [24] 2122 	push	ar6
      0004EF 8C 82            [24] 2123 	mov	dpl,r4
      0004F1 8B 83            [24] 2124 	mov	dph,r3
      0004F3 8A F0            [24] 2125 	mov	b,r2
      0004F5 22               [24] 2126 	ret
      0004F6                       2127 00147$:
      0004F6 AD 82            [24] 2128 	mov	r5,dpl
      0004F8 AE 83            [24] 2129 	mov	r6,dph
      0004FA 15 81            [12] 2130 	dec	sp
      0004FC 15 81            [12] 2131 	dec	sp
      0004FE D0 07            [24] 2132 	pop	ar7
                                   2133 ;	/home/user/contiki/core/net/mac/xmac.c:440: if(len == ACK_LEN) {
      000500 BD 03 05         [24] 2134 	cjne	r5,#0x03,00110$
      000503 BE 00 02         [24] 2135 	cjne	r6,#0x00,00110$
                                   2136 ;	/home/user/contiki/core/net/mac/xmac.c:441: ack_received = 1;
      000506 7F 01            [12] 2137 	mov	r7,#0x01
      000508                       2138 00110$:
                                   2139 ;	/home/user/contiki/core/net/mac/xmac.c:444: if(ack_received) {
      000508 EF               [12] 2140 	mov	a,r7
      000509 60 0A            [24] 2141 	jz	00114$
                                   2142 ;	/home/user/contiki/core/net/mac/xmac.c:445: leds_toggle(LEDS_RED);
      00050B 75 82 04         [24] 2143 	mov	dpl,#0x04
      00050E C0 07            [24] 2144 	push	ar7
      000510 12r00r00         [24] 2145 	lcall	_leds_toggle
      000513 D0 07            [24] 2146 	pop	ar7
      000515                       2147 00114$:
                                   2148 ;	/home/user/contiki/core/net/mac/xmac.c:447: return ack_received;
      000515 7E 00            [12] 2149 	mov	r6,#0x00
      000517 8F 82            [24] 2150 	mov	dpl,r7
      000519 8E 83            [24] 2151 	mov	dph,r6
      00051B E5 81            [12] 2152 	mov	a,sp
      00051D 24 FB            [12] 2153 	add	a,#0xFB
      00051F F5 81            [12] 2154 	mov	sp,a
      000521 22               [24] 2155 	ret
                                   2156 ;------------------------------------------------------------
                                   2157 ;Allocation info for local variables in function 'send_packet'
                                   2158 ;------------------------------------------------------------
                                   2159 ;t0                        Allocated to stack - sp -3
                                   2160 ;t                         Allocated to stack - sp -1
                                   2161 ;encounter_time            Allocated to registers 
                                   2162 ;strobes                   Allocated to registers 
                                   2163 ;ret                       Allocated to registers 
                                   2164 ;got_strobe_ack            Allocated to stack - sp -69
                                   2165 ;got_ack                   Allocated to stack - sp -68
                                   2166 ;strobe                    Allocated to stack - sp -67
                                   2167 ;strobe_len                Allocated to stack - sp -17
                                   2168 ;len                       Allocated to stack - sp -15
                                   2169 ;is_broadcast              Allocated to stack - sp -13
                                   2170 ;e                         Allocated to stack - sp -11
                                   2171 ;packet                    Allocated to stack - sp -8
                                   2172 ;is_already_streaming      Allocated to stack - sp -5
                                   2173 ;collisions                Allocated to registers r3 
                                   2174 ;neighbor                  Allocated to registers r7 r6 r3 
                                   2175 ;wait                      Allocated to registers r6 r7 
                                   2176 ;now                       Allocated to registers r4 r3 
                                   2177 ;expected                  Allocated to registers r6 r7 
                                   2178 ;sloc0                     Allocated to stack - sp -72
                                   2179 ;sloc1                     Allocated to stack - sp -71
                                   2180 ;------------------------------------------------------------
                                   2181 ;	/home/user/contiki/core/net/mac/xmac.c:451: send_packet(void)
                                   2182 ;	-----------------------------------------
                                   2183 ;	 function send_packet
                                   2184 ;	-----------------------------------------
      000522                       2185 _send_packet:
      000522 E5 81            [12] 2186 	mov	a,sp
      000524 24 49            [12] 2187 	add	a,#0x49
                                   2188 ;	/home/user/contiki/core/net/mac/xmac.c:461: uint8_t got_strobe_ack = 0;
      000526 F5 81            [12] 2189 	mov	sp,a
      000528 24 BB            [12] 2190 	add	a,#0xbb
      00052A F8               [12] 2191 	mov	r0,a
      00052B 76 00            [12] 2192 	mov	@r0,#0x00
                                   2193 ;	/home/user/contiki/core/net/mac/xmac.c:462: uint8_t got_ack = 0;
      00052D E5 81            [12] 2194 	mov	a,sp
      00052F 24 BC            [12] 2195 	add	a,#0xbc
      000531 F8               [12] 2196 	mov	r0,a
      000532 76 00            [12] 2197 	mov	@r0,#0x00
                                   2198 ;	/home/user/contiki/core/net/mac/xmac.c:465: int is_broadcast = 0;
      000534 E5 81            [12] 2199 	mov	a,sp
      000536 24 F3            [12] 2200 	add	a,#0xf3
      000538 F8               [12] 2201 	mov	r0,a
      000539 E4               [12] 2202 	clr	a
      00053A F6               [12] 2203 	mov	@r0,a
      00053B 08               [12] 2204 	inc	r0
      00053C F6               [12] 2205 	mov	@r0,a
                                   2206 ;	/home/user/contiki/core/net/mac/xmac.c:469: int is_already_streaming = 0;
      00053D E5 81            [12] 2207 	mov	a,sp
      00053F 24 FB            [12] 2208 	add	a,#0xfb
      000541 F8               [12] 2209 	mov	r0,a
      000542 E4               [12] 2210 	clr	a
      000543 F6               [12] 2211 	mov	@r0,a
      000544 08               [12] 2212 	inc	r0
      000545 F6               [12] 2213 	mov	@r0,a
                                   2214 ;	/home/user/contiki/core/net/mac/xmac.c:473: packetbuf_set_addr(PACKETBUF_ADDR_SENDER, &rimeaddr_node_addr);
      000546 74r00            [12] 2215 	mov	a,#_rimeaddr_node_addr
      000548 C0 E0            [24] 2216 	push	acc
      00054A 74s00            [12] 2217 	mov	a,#(_rimeaddr_node_addr >> 8)
      00054C C0 E0            [24] 2218 	push	acc
      00054E E4               [12] 2219 	clr	a
      00054F C0 E0            [24] 2220 	push	acc
      000551 75 82 18         [24] 2221 	mov	dpl,#0x18
      000554 12r00r00         [24] 2222 	lcall	_packetbuf_set_addr
      000557 15 81            [12] 2223 	dec	sp
      000559 15 81            [12] 2224 	dec	sp
      00055B 15 81            [12] 2225 	dec	sp
                                   2226 ;	/home/user/contiki/core/net/mac/xmac.c:474: if(rimeaddr_cmp(packetbuf_addr(PACKETBUF_ADDR_RECEIVER), &rimeaddr_null)) {
      00055D 75 82 19         [24] 2227 	mov	dpl,#0x19
      000560 12r00r00         [24] 2228 	lcall	_packetbuf_addr
      000563 AA 82            [24] 2229 	mov	r2,dpl
      000565 AB 83            [24] 2230 	mov	r3,dph
      000567 AE F0            [24] 2231 	mov	r6,b
      000569 74r00            [12] 2232 	mov	a,#_rimeaddr_null
      00056B C0 E0            [24] 2233 	push	acc
      00056D 74s00            [12] 2234 	mov	a,#(_rimeaddr_null >> 8)
      00056F C0 E0            [24] 2235 	push	acc
      000571 74 80            [12] 2236 	mov	a,#0x80
      000573 C0 E0            [24] 2237 	push	acc
      000575 8A 82            [24] 2238 	mov	dpl,r2
      000577 8B 83            [24] 2239 	mov	dph,r3
      000579 8E F0            [24] 2240 	mov	b,r6
      00057B 12r00r00         [24] 2241 	lcall	_rimeaddr_cmp
      00057E AB 82            [24] 2242 	mov	r3,dpl
      000580 AE 83            [24] 2243 	mov	r6,dph
      000582 15 81            [12] 2244 	dec	sp
      000584 15 81            [12] 2245 	dec	sp
      000586 15 81            [12] 2246 	dec	sp
      000588 EB               [12] 2247 	mov	a,r3
      000589 4E               [12] 2248 	orl	a,r6
      00058A 60 0A            [24] 2249 	jz	00102$
                                   2250 ;	/home/user/contiki/core/net/mac/xmac.c:475: is_broadcast = 1;
      00058C E5 81            [12] 2251 	mov	a,sp
      00058E 24 F3            [12] 2252 	add	a,#0xf3
      000590 F8               [12] 2253 	mov	r0,a
      000591 76 01            [12] 2254 	mov	@r0,#0x01
      000593 08               [12] 2255 	inc	r0
      000594 76 00            [12] 2256 	mov	@r0,#0x00
      000596                       2257 00102$:
                                   2258 ;	/home/user/contiki/core/net/mac/xmac.c:497: packetbuf_set_attr(PACKETBUF_ATTR_MAC_ACK, 1);
      000596 74 01            [12] 2259 	mov	a,#0x01
      000598 C0 E0            [24] 2260 	push	acc
      00059A E4               [12] 2261 	clr	a
      00059B C0 E0            [24] 2262 	push	acc
      00059D 75 82 0B         [24] 2263 	mov	dpl,#0x0B
      0005A0 12r00r00         [24] 2264 	lcall	_packetbuf_set_attr
      0005A3 15 81            [12] 2265 	dec	sp
      0005A5 15 81            [12] 2266 	dec	sp
                                   2267 ;	/home/user/contiki/core/net/mac/xmac.c:498: len = NETSTACK_FRAMER.create();
      0005A7 90r00r00         [24] 2268 	mov	dptr,#_framer_802154
      0005AA E4               [12] 2269 	clr	a
      0005AB 93               [24] 2270 	movc	a,@a+dptr
      0005AC FB               [12] 2271 	mov	r3,a
      0005AD A3               [24] 2272 	inc	dptr
      0005AE E4               [12] 2273 	clr	a
      0005AF 93               [24] 2274 	movc	a,@a+dptr
      0005B0 FE               [12] 2275 	mov	r6,a
      0005B1 8B 82            [24] 2276 	mov	dpl,r3
      0005B3 8E 83            [24] 2277 	mov	dph,r6
      0005B5 12r00r00         [24] 2278 	lcall	__sdcc_call_dptr
      0005B8 AB 82            [24] 2279 	mov	r3,dpl
      0005BA AE 83            [24] 2280 	mov	r6,dph
      0005BC E5 81            [12] 2281 	mov	a,sp
      0005BE 24 F1            [12] 2282 	add	a,#0xf1
      0005C0 F8               [12] 2283 	mov	r0,a
      0005C1 A6 03            [24] 2284 	mov	@r0,ar3
      0005C3 08               [12] 2285 	inc	r0
      0005C4 A6 06            [24] 2286 	mov	@r0,ar6
                                   2287 ;	/home/user/contiki/core/net/mac/xmac.c:499: strobe_len = len + sizeof(struct xmac_hdr);
      0005C6 E5 81            [12] 2288 	mov	a,sp
      0005C8 24 F1            [12] 2289 	add	a,#0xf1
      0005CA F8               [12] 2290 	mov	r0,a
      0005CB E5 81            [12] 2291 	mov	a,sp
      0005CD 24 EF            [12] 2292 	add	a,#0xef
      0005CF F9               [12] 2293 	mov	r1,a
      0005D0 74 02            [12] 2294 	mov	a,#0x02
      0005D2 26               [12] 2295 	add	a,@r0
      0005D3 F7               [12] 2296 	mov	@r1,a
      0005D4 E4               [12] 2297 	clr	a
      0005D5 08               [12] 2298 	inc	r0
      0005D6 36               [12] 2299 	addc	a,@r0
      0005D7 09               [12] 2300 	inc	r1
      0005D8 F7               [12] 2301 	mov	@r1,a
                                   2302 ;	/home/user/contiki/core/net/mac/xmac.c:500: if(len < 0 || strobe_len > (int)sizeof(strobe)) {
      0005D9 E5 81            [12] 2303 	mov	a,sp
      0005DB 24 F1            [12] 2304 	add	a,#0xf1
      0005DD F8               [12] 2305 	mov	r0,a
      0005DE 08               [12] 2306 	inc	r0
      0005DF E6               [12] 2307 	mov	a,@r0
      0005E0 20 E7 16         [24] 2308 	jb	acc.7,00103$
      0005E3 E5 81            [12] 2309 	mov	a,sp
      0005E5 24 EF            [12] 2310 	add	a,#0xef
      0005E7 F8               [12] 2311 	mov	r0,a
      0005E8 C3               [12] 2312 	clr	c
      0005E9 74 32            [12] 2313 	mov	a,#0x32
      0005EB 96               [12] 2314 	subb	a,@r0
      0005EC E4               [12] 2315 	clr	a
      0005ED 64 80            [12] 2316 	xrl	a,#0x80
      0005EF 08               [12] 2317 	inc	r0
      0005F0 86 F0            [24] 2318 	mov	b,@r0
      0005F2 63 F0 80         [24] 2319 	xrl	b,#0x80
      0005F5 95 F0            [12] 2320 	subb	a,b
      0005F7 50 06            [24] 2321 	jnc	00104$
      0005F9                       2322 00103$:
                                   2323 ;	/home/user/contiki/core/net/mac/xmac.c:503: return MAC_TX_ERR_FATAL;
      0005F9 90 00 05         [24] 2324 	mov	dptr,#0x0005
      0005FC 02r0Cr14         [24] 2325 	ljmp	00170$
      0005FF                       2326 00104$:
                                   2327 ;	/home/user/contiki/core/net/mac/xmac.c:505: memcpy(strobe, packetbuf_hdrptr(), len);
      0005FF 12r00r00         [24] 2328 	lcall	_packetbuf_hdrptr
      000602 AA 82            [24] 2329 	mov	r2,dpl
      000604 AC 83            [24] 2330 	mov	r4,dph
      000606 AD F0            [24] 2331 	mov	r5,b
      000608 E5 81            [12] 2332 	mov	a,sp
      00060A 24 B8            [12] 2333 	add	a,#0xb8
      00060C F8               [12] 2334 	mov	r0,a
      00060D E5 81            [12] 2335 	mov	a,sp
      00060F 24 BD            [12] 2336 	add	a,#0xBD
      000611 F6               [12] 2337 	mov	@r0,a
      000612 E5 81            [12] 2338 	mov	a,sp
      000614 24 B8            [12] 2339 	add	a,#0xb8
      000616 F8               [12] 2340 	mov	r0,a
      000617 86 03            [24] 2341 	mov	ar3,@r0
      000619 7E 00            [12] 2342 	mov	r6,#0x00
      00061B 7F 40            [12] 2343 	mov	r7,#0x40
      00061D E5 81            [12] 2344 	mov	a,sp
      00061F 24 F1            [12] 2345 	add	a,#0xf1
      000621 F8               [12] 2346 	mov	r0,a
      000622 E6               [12] 2347 	mov	a,@r0
      000623 C0 E0            [24] 2348 	push	acc
      000625 08               [12] 2349 	inc	r0
      000626 E6               [12] 2350 	mov	a,@r0
      000627 C0 E0            [24] 2351 	push	acc
      000629 C0 02            [24] 2352 	push	ar2
      00062B C0 04            [24] 2353 	push	ar4
      00062D C0 05            [24] 2354 	push	ar5
      00062F 8B 82            [24] 2355 	mov	dpl,r3
      000631 8E 83            [24] 2356 	mov	dph,r6
      000633 8F F0            [24] 2357 	mov	b,r7
      000635 12r00r00         [24] 2358 	lcall	_memcpy
      000638 E5 81            [12] 2359 	mov	a,sp
      00063A 24 FB            [12] 2360 	add	a,#0xfb
                                   2361 ;	/home/user/contiki/core/net/mac/xmac.c:506: strobe[len] = DISPATCH; /* dispatch */
      00063C F5 81            [12] 2362 	mov	sp,a
      00063E 24 B8            [12] 2363 	add	a,#0xb8
      000640 F8               [12] 2364 	mov	r0,a
      000641 E5 81            [12] 2365 	mov	a,sp
      000643 24 F1            [12] 2366 	add	a,#0xf1
      000645 F9               [12] 2367 	mov	r1,a
      000646 E7               [12] 2368 	mov	a,@r1
      000647 26               [12] 2369 	add	a,@r0
      000648 F8               [12] 2370 	mov	r0,a
      000649 76 00            [12] 2371 	mov	@r0,#0x00
                                   2372 ;	/home/user/contiki/core/net/mac/xmac.c:507: strobe[len + 1] = TYPE_STROBE; /* type */
      00064B E5 81            [12] 2373 	mov	a,sp
      00064D 24 F1            [12] 2374 	add	a,#0xf1
      00064F F8               [12] 2375 	mov	r0,a
      000650 E6               [12] 2376 	mov	a,@r0
      000651 04               [12] 2377 	inc	a
      000652 C8               [12] 2378 	xch	a,r0
      000653 E5 81            [12] 2379 	mov	a,sp
      000655 24 B8            [12] 2380 	add	a,#0xb8
      000657 C8               [12] 2381 	xch	a,r0
      000658 26               [12] 2382 	add	a,@r0
      000659 F8               [12] 2383 	mov	r0,a
      00065A 76 10            [12] 2384 	mov	@r0,#0x10
                                   2385 ;	/home/user/contiki/core/net/mac/xmac.c:509: packetbuf_compact();
      00065C 12r00r00         [24] 2386 	lcall	_packetbuf_compact
                                   2387 ;	/home/user/contiki/core/net/mac/xmac.c:510: packet = queuebuf_new_from_packetbuf();
      00065F 12r00r00         [24] 2388 	lcall	_queuebuf_new_from_packetbuf
      000662 AD 82            [24] 2389 	mov	r5,dpl
      000664 AE 83            [24] 2390 	mov	r6,dph
      000666 AF F0            [24] 2391 	mov	r7,b
      000668 E5 81            [12] 2392 	mov	a,sp
      00066A 24 F8            [12] 2393 	add	a,#0xf8
      00066C F8               [12] 2394 	mov	r0,a
      00066D A6 05            [24] 2395 	mov	@r0,ar5
      00066F 08               [12] 2396 	inc	r0
      000670 A6 06            [24] 2397 	mov	@r0,ar6
      000672 08               [12] 2398 	inc	r0
      000673 A6 07            [24] 2399 	mov	@r0,ar7
                                   2400 ;	/home/user/contiki/core/net/mac/xmac.c:511: if(packet == NULL) {
      000675 E5 81            [12] 2401 	mov	a,sp
      000677 24 F8            [12] 2402 	add	a,#0xf8
      000679 F8               [12] 2403 	mov	r0,a
      00067A E6               [12] 2404 	mov	a,@r0
      00067B 08               [12] 2405 	inc	r0
      00067C 46               [12] 2406 	orl	a,@r0
      00067D 70 06            [24] 2407 	jnz	00107$
                                   2408 ;	/home/user/contiki/core/net/mac/xmac.c:515: return MAC_TX_ERR;
      00067F 90 00 04         [24] 2409 	mov	dptr,#0x0004
      000682 02r0Cr14         [24] 2410 	ljmp	00170$
      000685                       2411 00107$:
                                   2412 ;	/home/user/contiki/core/net/mac/xmac.c:519: if(is_streaming == 1 &&
      000685 90r00r2A         [24] 2413 	mov	dptr,#_is_streaming
      000688 E0               [24] 2414 	movx	a,@dptr
      000689 FF               [12] 2415 	mov	r7,a
      00068A BF 01 66         [24] 2416 	cjne	r7,#0x01,00109$
                                   2417 ;	/home/user/contiki/core/net/mac/xmac.c:521: &is_streaming_to) ||
                                   2418 ;	/home/user/contiki/core/net/mac/xmac.c:520: (rimeaddr_cmp(packetbuf_addr(PACKETBUF_ADDR_RECEIVER),
      00068D 75 82 19         [24] 2419 	mov	dpl,#0x19
      000690 12r00r00         [24] 2420 	lcall	_packetbuf_addr
      000693 AB 82            [24] 2421 	mov	r3,dpl
      000695 AE 83            [24] 2422 	mov	r6,dph
      000697 AF F0            [24] 2423 	mov	r7,b
      000699 74r2B            [12] 2424 	mov	a,#_is_streaming_to
      00069B C0 E0            [24] 2425 	push	acc
      00069D 74s00            [12] 2426 	mov	a,#(_is_streaming_to >> 8)
      00069F C0 E0            [24] 2427 	push	acc
      0006A1 E4               [12] 2428 	clr	a
      0006A2 C0 E0            [24] 2429 	push	acc
      0006A4 8B 82            [24] 2430 	mov	dpl,r3
      0006A6 8E 83            [24] 2431 	mov	dph,r6
      0006A8 8F F0            [24] 2432 	mov	b,r7
      0006AA 12r00r00         [24] 2433 	lcall	_rimeaddr_cmp
      0006AD AE 82            [24] 2434 	mov	r6,dpl
      0006AF AF 83            [24] 2435 	mov	r7,dph
      0006B1 15 81            [12] 2436 	dec	sp
      0006B3 15 81            [12] 2437 	dec	sp
      0006B5 15 81            [12] 2438 	dec	sp
      0006B7 EE               [12] 2439 	mov	a,r6
      0006B8 4F               [12] 2440 	orl	a,r7
      0006B9 70 2E            [24] 2441 	jnz	00108$
                                   2442 ;	/home/user/contiki/core/net/mac/xmac.c:523: &is_streaming_to_too))) {
                                   2443 ;	/home/user/contiki/core/net/mac/xmac.c:522: rimeaddr_cmp(packetbuf_addr(PACKETBUF_ADDR_RECEIVER),
      0006BB 75 82 19         [24] 2444 	mov	dpl,#0x19
      0006BE 12r00r00         [24] 2445 	lcall	_packetbuf_addr
      0006C1 AB 82            [24] 2446 	mov	r3,dpl
      0006C3 AE 83            [24] 2447 	mov	r6,dph
      0006C5 AF F0            [24] 2448 	mov	r7,b
      0006C7 74r2D            [12] 2449 	mov	a,#_is_streaming_to_too
      0006C9 C0 E0            [24] 2450 	push	acc
      0006CB 74s00            [12] 2451 	mov	a,#(_is_streaming_to_too >> 8)
      0006CD C0 E0            [24] 2452 	push	acc
      0006CF E4               [12] 2453 	clr	a
      0006D0 C0 E0            [24] 2454 	push	acc
      0006D2 8B 82            [24] 2455 	mov	dpl,r3
      0006D4 8E 83            [24] 2456 	mov	dph,r6
      0006D6 8F F0            [24] 2457 	mov	b,r7
      0006D8 12r00r00         [24] 2458 	lcall	_rimeaddr_cmp
      0006DB AE 82            [24] 2459 	mov	r6,dpl
      0006DD AF 83            [24] 2460 	mov	r7,dph
      0006DF 15 81            [12] 2461 	dec	sp
      0006E1 15 81            [12] 2462 	dec	sp
      0006E3 15 81            [12] 2463 	dec	sp
      0006E5 EE               [12] 2464 	mov	a,r6
      0006E6 4F               [12] 2465 	orl	a,r7
      0006E7 60 0A            [24] 2466 	jz	00109$
      0006E9                       2467 00108$:
                                   2468 ;	/home/user/contiki/core/net/mac/xmac.c:524: is_already_streaming = 1;
      0006E9 E5 81            [12] 2469 	mov	a,sp
      0006EB 24 FB            [12] 2470 	add	a,#0xfb
      0006ED F8               [12] 2471 	mov	r0,a
      0006EE 76 01            [12] 2472 	mov	@r0,#0x01
      0006F0 08               [12] 2473 	inc	r0
      0006F1 76 00            [12] 2474 	mov	@r0,#0x00
      0006F3                       2475 00109$:
                                   2476 ;	/home/user/contiki/core/net/mac/xmac.c:526: if(packetbuf_attr(PACKETBUF_ATTR_PACKET_TYPE) ==
      0006F3 75 82 0E         [24] 2477 	mov	dpl,#0x0E
      0006F6 12r00r00         [24] 2478 	lcall	_packetbuf_attr
      0006F9 AE 82            [24] 2479 	mov	r6,dpl
      0006FB AF 83            [24] 2480 	mov	r7,dph
      0006FD BE 02 05         [24] 2481 	cjne	r6,#0x02,00275$
      000700 BF 00 02         [24] 2482 	cjne	r7,#0x00,00275$
      000703 80 03            [24] 2483 	sjmp	00276$
      000705                       2484 00275$:
      000705 02r07rB9         [24] 2485 	ljmp	00118$
      000708                       2486 00276$:
                                   2487 ;	/home/user/contiki/core/net/mac/xmac.c:528: is_streaming = 1;
      000708 90r00r2A         [24] 2488 	mov	dptr,#_is_streaming
      00070B 74 01            [12] 2489 	mov	a,#0x01
      00070D F0               [24] 2490 	movx	@dptr,a
                                   2491 ;	/home/user/contiki/core/net/mac/xmac.c:529: if(rimeaddr_cmp(&is_streaming_to, &rimeaddr_null)) {
      00070E 74r00            [12] 2492 	mov	a,#_rimeaddr_null
      000710 C0 E0            [24] 2493 	push	acc
      000712 74s00            [12] 2494 	mov	a,#(_rimeaddr_null >> 8)
      000714 C0 E0            [24] 2495 	push	acc
      000716 74 80            [12] 2496 	mov	a,#0x80
      000718 C0 E0            [24] 2497 	push	acc
      00071A 90r00r2B         [24] 2498 	mov	dptr,#_is_streaming_to
      00071D 75 F0 00         [24] 2499 	mov	b,#0x00
      000720 12r00r00         [24] 2500 	lcall	_rimeaddr_cmp
      000723 AE 82            [24] 2501 	mov	r6,dpl
      000725 AF 83            [24] 2502 	mov	r7,dph
      000727 15 81            [12] 2503 	dec	sp
      000729 15 81            [12] 2504 	dec	sp
      00072B 15 81            [12] 2505 	dec	sp
      00072D EE               [12] 2506 	mov	a,r6
      00072E 4F               [12] 2507 	orl	a,r7
      00072F 60 23            [24] 2508 	jz	00115$
                                   2509 ;	/home/user/contiki/core/net/mac/xmac.c:530: rimeaddr_copy(&is_streaming_to, packetbuf_addr(PACKETBUF_ADDR_RECEIVER));
      000731 75 82 19         [24] 2510 	mov	dpl,#0x19
      000734 12r00r00         [24] 2511 	lcall	_packetbuf_addr
      000737 AB 82            [24] 2512 	mov	r3,dpl
      000739 AE 83            [24] 2513 	mov	r6,dph
      00073B AF F0            [24] 2514 	mov	r7,b
      00073D C0 03            [24] 2515 	push	ar3
      00073F C0 06            [24] 2516 	push	ar6
      000741 C0 07            [24] 2517 	push	ar7
      000743 90r00r2B         [24] 2518 	mov	dptr,#_is_streaming_to
      000746 75 F0 00         [24] 2519 	mov	b,#0x00
      000749 12r00r00         [24] 2520 	lcall	_rimeaddr_copy
      00074C 15 81            [12] 2521 	dec	sp
      00074E 15 81            [12] 2522 	dec	sp
      000750 15 81            [12] 2523 	dec	sp
      000752 80 4A            [24] 2524 	sjmp	00116$
      000754                       2525 00115$:
                                   2526 ;	/home/user/contiki/core/net/mac/xmac.c:531: } else if(!rimeaddr_cmp(&is_streaming_to, packetbuf_addr(PACKETBUF_ADDR_RECEIVER))) {
      000754 75 82 19         [24] 2527 	mov	dpl,#0x19
      000757 12r00r00         [24] 2528 	lcall	_packetbuf_addr
      00075A AB 82            [24] 2529 	mov	r3,dpl
      00075C AE 83            [24] 2530 	mov	r6,dph
      00075E AF F0            [24] 2531 	mov	r7,b
      000760 C0 03            [24] 2532 	push	ar3
      000762 C0 06            [24] 2533 	push	ar6
      000764 C0 07            [24] 2534 	push	ar7
      000766 90r00r2B         [24] 2535 	mov	dptr,#_is_streaming_to
      000769 75 F0 00         [24] 2536 	mov	b,#0x00
      00076C 12r00r00         [24] 2537 	lcall	_rimeaddr_cmp
      00076F AE 82            [24] 2538 	mov	r6,dpl
      000771 AF 83            [24] 2539 	mov	r7,dph
      000773 15 81            [12] 2540 	dec	sp
      000775 15 81            [12] 2541 	dec	sp
      000777 15 81            [12] 2542 	dec	sp
      000779 EE               [12] 2543 	mov	a,r6
      00077A 4F               [12] 2544 	orl	a,r7
      00077B 70 21            [24] 2545 	jnz	00116$
                                   2546 ;	/home/user/contiki/core/net/mac/xmac.c:532: rimeaddr_copy(&is_streaming_to_too, packetbuf_addr(PACKETBUF_ADDR_RECEIVER));
      00077D 75 82 19         [24] 2547 	mov	dpl,#0x19
      000780 12r00r00         [24] 2548 	lcall	_packetbuf_addr
      000783 AB 82            [24] 2549 	mov	r3,dpl
      000785 AE 83            [24] 2550 	mov	r6,dph
      000787 AF F0            [24] 2551 	mov	r7,b
      000789 C0 03            [24] 2552 	push	ar3
      00078B C0 06            [24] 2553 	push	ar6
      00078D C0 07            [24] 2554 	push	ar7
      00078F 90r00r2D         [24] 2555 	mov	dptr,#_is_streaming_to_too
      000792 75 F0 00         [24] 2556 	mov	b,#0x00
      000795 12r00r00         [24] 2557 	lcall	_rimeaddr_copy
      000798 15 81            [12] 2558 	dec	sp
      00079A 15 81            [12] 2559 	dec	sp
      00079C 15 81            [12] 2560 	dec	sp
      00079E                       2561 00116$:
                                   2562 ;	/home/user/contiki/core/net/mac/xmac.c:534: stream_until = RTIMER_NOW() + DEFAULT_STREAM_TIME;
      00079E AE E2            [24] 2563 	mov	r6,_T1CNTL
      0007A0 7F 00            [12] 2564 	mov	r7,#0x00
      0007A2 AA E3            [24] 2565 	mov	r2,_T1CNTH
      0007A4 8A 03            [24] 2566 	mov	ar3,r2
      0007A6 E4               [12] 2567 	clr	a
      0007A7 FA               [12] 2568 	mov	r2,a
      0007A8 2E               [12] 2569 	add	a,r6
      0007A9 FE               [12] 2570 	mov	r6,a
      0007AA EB               [12] 2571 	mov	a,r3
      0007AB 3F               [12] 2572 	addc	a,r7
      0007AC FF               [12] 2573 	mov	r7,a
      0007AD 90r00r2F         [24] 2574 	mov	dptr,#_stream_until
      0007B0 74 09            [12] 2575 	mov	a,#0x09
      0007B2 2E               [12] 2576 	add	a,r6
      0007B3 F0               [24] 2577 	movx	@dptr,a
      0007B4 74 3D            [12] 2578 	mov	a,#0x3D
      0007B6 3F               [12] 2579 	addc	a,r7
      0007B7 A3               [24] 2580 	inc	dptr
      0007B8 F0               [24] 2581 	movx	@dptr,a
      0007B9                       2582 00118$:
                                   2583 ;	/home/user/contiki/core/net/mac/xmac.c:538: off();
      0007B9 12r00r2E         [24] 2584 	lcall	_off
                                   2585 ;	/home/user/contiki/core/net/mac/xmac.c:545: for(e = list_head(encounter_list); e != NULL; e = list_item_next(e)) {
      0007BC 90r00r10         [24] 2586 	mov	dptr,#_encounter_list
      0007BF E0               [24] 2587 	movx	a,@dptr
      0007C0 FB               [12] 2588 	mov	r3,a
      0007C1 A3               [24] 2589 	inc	dptr
      0007C2 E0               [24] 2590 	movx	a,@dptr
      0007C3 FE               [12] 2591 	mov	r6,a
      0007C4 A3               [24] 2592 	inc	dptr
      0007C5 E0               [24] 2593 	movx	a,@dptr
      0007C6 FF               [12] 2594 	mov	r7,a
      0007C7 8B 82            [24] 2595 	mov	dpl,r3
      0007C9 8E 83            [24] 2596 	mov	dph,r6
      0007CB 8F F0            [24] 2597 	mov	b,r7
      0007CD 12r00r00         [24] 2598 	lcall	_list_head
      0007D0 AB 82            [24] 2599 	mov	r3,dpl
      0007D2 AE 83            [24] 2600 	mov	r6,dph
      0007D4 AF F0            [24] 2601 	mov	r7,b
      0007D6 E5 81            [12] 2602 	mov	a,sp
      0007D8 24 F5            [12] 2603 	add	a,#0xf5
      0007DA F8               [12] 2604 	mov	r0,a
      0007DB A6 03            [24] 2605 	mov	@r0,ar3
      0007DD 08               [12] 2606 	inc	r0
      0007DE A6 06            [24] 2607 	mov	@r0,ar6
      0007E0 08               [12] 2608 	inc	r0
      0007E1 A6 07            [24] 2609 	mov	@r0,ar7
      0007E3                       2610 00163$:
      0007E3 E5 81            [12] 2611 	mov	a,sp
      0007E5 24 F5            [12] 2612 	add	a,#0xf5
      0007E7 F8               [12] 2613 	mov	r0,a
      0007E8 E4               [12] 2614 	clr	a
      0007E9 C0 E0            [24] 2615 	push	acc
      0007EB E4               [12] 2616 	clr	a
      0007EC C0 E0            [24] 2617 	push	acc
      0007EE E4               [12] 2618 	clr	a
      0007EF C0 E0            [24] 2619 	push	acc
      0007F1 86 82            [24] 2620 	mov	dpl,@r0
      0007F3 08               [12] 2621 	inc	r0
      0007F4 86 83            [24] 2622 	mov	dph,@r0
      0007F6 08               [12] 2623 	inc	r0
      0007F7 86 F0            [24] 2624 	mov	b,@r0
      0007F9 12r00r00         [24] 2625 	lcall	___gptr_cmp
      0007FC 15 81            [12] 2626 	dec	sp
      0007FE 15 81            [12] 2627 	dec	sp
      000800 15 81            [12] 2628 	dec	sp
      000802 70 03            [24] 2629 	jnz	00279$
      000804 02r08rFC         [24] 2630 	ljmp	00126$
      000807                       2631 00279$:
                                   2632 ;	/home/user/contiki/core/net/mac/xmac.c:546: const rimeaddr_t *neighbor = packetbuf_addr(PACKETBUF_ADDR_RECEIVER);
      000807 75 82 19         [24] 2633 	mov	dpl,#0x19
      00080A 12r00r00         [24] 2634 	lcall	_packetbuf_addr
      00080D AF 82            [24] 2635 	mov	r7,dpl
      00080F AE 83            [24] 2636 	mov	r6,dph
      000811 AD F0            [24] 2637 	mov	r5,b
      000813 8D 03            [24] 2638 	mov	ar3,r5
                                   2639 ;	/home/user/contiki/core/net/mac/xmac.c:548: if(rimeaddr_cmp(neighbor, &e->neighbor)) {
      000815 E5 81            [12] 2640 	mov	a,sp
      000817 24 F5            [12] 2641 	add	a,#0xf5
      000819 F8               [12] 2642 	mov	r0,a
      00081A 74 03            [12] 2643 	mov	a,#0x03
      00081C 26               [12] 2644 	add	a,@r0
      00081D FA               [12] 2645 	mov	r2,a
      00081E E4               [12] 2646 	clr	a
      00081F 08               [12] 2647 	inc	r0
      000820 36               [12] 2648 	addc	a,@r0
      000821 FC               [12] 2649 	mov	r4,a
      000822 08               [12] 2650 	inc	r0
      000823 86 05            [24] 2651 	mov	ar5,@r0
      000825 C0 02            [24] 2652 	push	ar2
      000827 C0 04            [24] 2653 	push	ar4
      000829 C0 05            [24] 2654 	push	ar5
      00082B 8F 82            [24] 2655 	mov	dpl,r7
      00082D 8E 83            [24] 2656 	mov	dph,r6
      00082F 8B F0            [24] 2657 	mov	b,r3
      000831 12r00r00         [24] 2658 	lcall	_rimeaddr_cmp
      000834 AC 82            [24] 2659 	mov	r4,dpl
      000836 AD 83            [24] 2660 	mov	r5,dph
      000838 15 81            [12] 2661 	dec	sp
      00083A 15 81            [12] 2662 	dec	sp
      00083C 15 81            [12] 2663 	dec	sp
      00083E EC               [12] 2664 	mov	a,r4
      00083F 4D               [12] 2665 	orl	a,r5
      000840 70 03            [24] 2666 	jnz	00280$
      000842 02r08rD0         [24] 2667 	ljmp	00164$
      000845                       2668 00280$:
                                   2669 ;	/home/user/contiki/core/net/mac/xmac.c:558: now = RTIMER_NOW();
      000845 AA E2            [24] 2670 	mov	r2,_T1CNTL
      000847 7D 00            [12] 2671 	mov	r5,#0x00
      000849 AC E3            [24] 2672 	mov	r4,_T1CNTH
      00084B 8C 07            [24] 2673 	mov	ar7,r4
      00084D E4               [12] 2674 	clr	a
      00084E 2A               [12] 2675 	add	a,r2
      00084F FA               [12] 2676 	mov	r2,a
      000850 EF               [12] 2677 	mov	a,r7
      000851 3D               [12] 2678 	addc	a,r5
      000852 FD               [12] 2679 	mov	r5,a
      000853 8A 04            [24] 2680 	mov	ar4,r2
      000855 8D 03            [24] 2681 	mov	ar3,r5
                                   2682 ;	/home/user/contiki/core/net/mac/xmac.c:559: wait = ((rtimer_clock_t)(e->time - now)) % (DEFAULT_PERIOD);
      000857 E5 81            [12] 2683 	mov	a,sp
      000859 24 F5            [12] 2684 	add	a,#0xf5
      00085B F8               [12] 2685 	mov	r0,a
      00085C 74 05            [12] 2686 	mov	a,#0x05
      00085E 26               [12] 2687 	add	a,@r0
      00085F FD               [12] 2688 	mov	r5,a
      000860 E4               [12] 2689 	clr	a
      000861 08               [12] 2690 	inc	r0
      000862 36               [12] 2691 	addc	a,@r0
      000863 FE               [12] 2692 	mov	r6,a
      000864 08               [12] 2693 	inc	r0
      000865 86 07            [24] 2694 	mov	ar7,@r0
      000867 8D 82            [24] 2695 	mov	dpl,r5
      000869 8E 83            [24] 2696 	mov	dph,r6
      00086B 8F F0            [24] 2697 	mov	b,r7
      00086D 12r00r00         [24] 2698 	lcall	__gptrget
      000870 FD               [12] 2699 	mov	r5,a
      000871 A3               [24] 2700 	inc	dptr
      000872 12r00r00         [24] 2701 	lcall	__gptrget
      000875 FE               [12] 2702 	mov	r6,a
      000876 ED               [12] 2703 	mov	a,r5
      000877 C3               [12] 2704 	clr	c
      000878 9C               [12] 2705 	subb	a,r4
      000879 FD               [12] 2706 	mov	r5,a
      00087A EE               [12] 2707 	mov	a,r6
      00087B 9B               [12] 2708 	subb	a,r3
      00087C FE               [12] 2709 	mov	r6,a
      00087D C0 04            [24] 2710 	push	ar4
      00087F C0 03            [24] 2711 	push	ar3
      000881 74 A1            [12] 2712 	mov	a,#0xA1
      000883 C0 E0            [24] 2713 	push	acc
      000885 74 07            [12] 2714 	mov	a,#0x07
      000887 C0 E0            [24] 2715 	push	acc
      000889 8D 82            [24] 2716 	mov	dpl,r5
      00088B 8E 83            [24] 2717 	mov	dph,r6
      00088D 12r00r00         [24] 2718 	lcall	__moduint
      000890 AE 82            [24] 2719 	mov	r6,dpl
      000892 AF 83            [24] 2720 	mov	r7,dph
      000894 15 81            [12] 2721 	dec	sp
      000896 15 81            [12] 2722 	dec	sp
      000898 D0 03            [24] 2723 	pop	ar3
      00089A D0 04            [24] 2724 	pop	ar4
                                   2725 ;	/home/user/contiki/core/net/mac/xmac.c:560: if(wait < 2 * DEFAULT_ON_TIME) {
      00089C C3               [12] 2726 	clr	c
      00089D EE               [12] 2727 	mov	a,r6
      00089E 94 C2            [12] 2728 	subb	a,#0xC2
      0008A0 EF               [12] 2729 	mov	a,r7
      0008A1 94 00            [12] 2730 	subb	a,#0x00
      0008A3 50 04            [24] 2731 	jnc	00120$
                                   2732 ;	/home/user/contiki/core/net/mac/xmac.c:561: wait = DEFAULT_PERIOD;
      0008A5 7E A1            [12] 2733 	mov	r6,#0xA1
      0008A7 7F 07            [12] 2734 	mov	r7,#0x07
      0008A9                       2735 00120$:
                                   2736 ;	/home/user/contiki/core/net/mac/xmac.c:563: expected = now + wait - 2 * DEFAULT_ON_TIME;
      0008A9 EE               [12] 2737 	mov	a,r6
      0008AA 2C               [12] 2738 	add	a,r4
      0008AB FE               [12] 2739 	mov	r6,a
      0008AC EF               [12] 2740 	mov	a,r7
      0008AD 3B               [12] 2741 	addc	a,r3
      0008AE FF               [12] 2742 	mov	r7,a
      0008AF EE               [12] 2743 	mov	a,r6
      0008B0 24 3E            [12] 2744 	add	a,#0x3E
      0008B2 FE               [12] 2745 	mov	r6,a
      0008B3 EF               [12] 2746 	mov	a,r7
      0008B4 34 FF            [12] 2747 	addc	a,#0xFF
      0008B6 FF               [12] 2748 	mov	r7,a
                                   2749 ;	/home/user/contiki/core/net/mac/xmac.c:576: while(RTIMER_CLOCK_LT(RTIMER_NOW(), expected));
      0008B7                       2750 00121$:
      0008B7 AA E2            [24] 2751 	mov	r2,_T1CNTL
      0008B9 7B 00            [12] 2752 	mov	r3,#0x00
      0008BB AC E3            [24] 2753 	mov	r4,_T1CNTH
      0008BD 8C 05            [24] 2754 	mov	ar5,r4
      0008BF E4               [12] 2755 	clr	a
      0008C0 FC               [12] 2756 	mov	r4,a
      0008C1 2A               [12] 2757 	add	a,r2
      0008C2 FA               [12] 2758 	mov	r2,a
      0008C3 ED               [12] 2759 	mov	a,r5
      0008C4 3B               [12] 2760 	addc	a,r3
      0008C5 FB               [12] 2761 	mov	r3,a
      0008C6 EA               [12] 2762 	mov	a,r2
      0008C7 C3               [12] 2763 	clr	c
      0008C8 9E               [12] 2764 	subb	a,r6
      0008C9 FA               [12] 2765 	mov	r2,a
      0008CA EB               [12] 2766 	mov	a,r3
      0008CB 9F               [12] 2767 	subb	a,r7
      0008CC FB               [12] 2768 	mov	r3,a
      0008CD 20 E7 E7         [24] 2769 	jb	acc.7,00121$
      0008D0                       2770 00164$:
                                   2771 ;	/home/user/contiki/core/net/mac/xmac.c:545: for(e = list_head(encounter_list); e != NULL; e = list_item_next(e)) {
      0008D0 E5 81            [12] 2772 	mov	a,sp
      0008D2 24 F5            [12] 2773 	add	a,#0xf5
      0008D4 F8               [12] 2774 	mov	r0,a
      0008D5 86 03            [24] 2775 	mov	ar3,@r0
      0008D7 08               [12] 2776 	inc	r0
      0008D8 86 06            [24] 2777 	mov	ar6,@r0
      0008DA 08               [12] 2778 	inc	r0
      0008DB 86 07            [24] 2779 	mov	ar7,@r0
      0008DD 8B 82            [24] 2780 	mov	dpl,r3
      0008DF 8E 83            [24] 2781 	mov	dph,r6
      0008E1 8F F0            [24] 2782 	mov	b,r7
      0008E3 12r00r00         [24] 2783 	lcall	_list_item_next
      0008E6 AB 82            [24] 2784 	mov	r3,dpl
      0008E8 AE 83            [24] 2785 	mov	r6,dph
      0008EA AF F0            [24] 2786 	mov	r7,b
      0008EC E5 81            [12] 2787 	mov	a,sp
      0008EE 24 F5            [12] 2788 	add	a,#0xf5
      0008F0 F8               [12] 2789 	mov	r0,a
      0008F1 A6 03            [24] 2790 	mov	@r0,ar3
      0008F3 08               [12] 2791 	inc	r0
      0008F4 A6 06            [24] 2792 	mov	@r0,ar6
      0008F6 08               [12] 2793 	inc	r0
      0008F7 A6 07            [24] 2794 	mov	@r0,ar7
      0008F9 02r07rE3         [24] 2795 	ljmp	00163$
      0008FC                       2796 00126$:
                                   2797 ;	/home/user/contiki/core/net/mac/xmac.c:584: we_are_sending = 1;
      0008FC 90r00r0B         [24] 2798 	mov	dptr,#_we_are_sending
      0008FF 74 01            [12] 2799 	mov	a,#0x01
      000901 F0               [24] 2800 	movx	@dptr,a
                                   2801 ;	/home/user/contiki/core/net/mac/xmac.c:586: t0 = RTIMER_NOW();
      000902 AE E2            [24] 2802 	mov	r6,_T1CNTL
      000904 7F 00            [12] 2803 	mov	r7,#0x00
      000906 AA E3            [24] 2804 	mov	r2,_T1CNTH
      000908 8A 03            [24] 2805 	mov	ar3,r2
      00090A E4               [12] 2806 	clr	a
      00090B FA               [12] 2807 	mov	r2,a
      00090C 2E               [12] 2808 	add	a,r6
      00090D FE               [12] 2809 	mov	r6,a
      00090E EB               [12] 2810 	mov	a,r3
      00090F 3F               [12] 2811 	addc	a,r7
      000910 FF               [12] 2812 	mov	r7,a
      000911 E5 81            [12] 2813 	mov	a,sp
      000913 24 FD            [12] 2814 	add	a,#0xfd
      000915 F8               [12] 2815 	mov	r0,a
      000916 A6 06            [24] 2816 	mov	@r0,ar6
      000918 08               [12] 2817 	inc	r0
      000919 A6 07            [24] 2818 	mov	@r0,ar7
                                   2819 ;	/home/user/contiki/core/net/mac/xmac.c:595: collisions = 0;
      00091B 7B 00            [12] 2820 	mov	r3,#0x00
                                   2821 ;	/home/user/contiki/core/net/mac/xmac.c:596: if(!is_already_streaming) {
      00091D E5 81            [12] 2822 	mov	a,sp
      00091F 24 FB            [12] 2823 	add	a,#0xfb
      000921 F8               [12] 2824 	mov	r0,a
      000922 E6               [12] 2825 	mov	a,@r0
      000923 08               [12] 2826 	inc	r0
      000924 46               [12] 2827 	orl	a,@r0
      000925 60 03            [24] 2828 	jz	00283$
      000927 02r0ArDF         [24] 2829 	ljmp	00142$
      00092A                       2830 00283$:
                                   2831 ;	/home/user/contiki/core/net/mac/xmac.c:597: watchdog_stop();
      00092A 12r00r00         [24] 2832 	lcall	_watchdog_periodic
                                   2833 ;	/home/user/contiki/core/net/mac/xmac.c:598: got_strobe_ack = 0;
      00092D E5 81            [12] 2834 	mov	a,sp
      00092F 24 BB            [12] 2835 	add	a,#0xbb
      000931 F8               [12] 2836 	mov	r0,a
      000932 76 00            [12] 2837 	mov	@r0,#0x00
                                   2838 ;	/home/user/contiki/core/net/mac/xmac.c:599: t = RTIMER_NOW();
      000934 AA E2            [24] 2839 	mov	r2,_T1CNTL
      000936 7F 00            [12] 2840 	mov	r7,#0x00
      000938 AD E3            [24] 2841 	mov	r5,_T1CNTH
      00093A 8D 06            [24] 2842 	mov	ar6,r5
      00093C E4               [12] 2843 	clr	a
      00093D FD               [12] 2844 	mov	r5,a
      00093E 2A               [12] 2845 	add	a,r2
      00093F FA               [12] 2846 	mov	r2,a
      000940 EE               [12] 2847 	mov	a,r6
      000941 3F               [12] 2848 	addc	a,r7
      000942 FF               [12] 2849 	mov	r7,a
      000943 A8 81            [24] 2850 	mov	r0,sp
      000945 18               [12] 2851 	dec	r0
      000946 A6 02            [24] 2852 	mov	@r0,ar2
      000948 08               [12] 2853 	inc	r0
      000949 A6 07            [24] 2854 	mov	@r0,ar7
                                   2855 ;	/home/user/contiki/core/net/mac/xmac.c:600: for(strobes = 0, collisions = 0;
      00094B 7B 00            [12] 2856 	mov	r3,#0x00
      00094D E5 81            [12] 2857 	mov	a,sp
      00094F 24 B8            [12] 2858 	add	a,#0xb8
      000951 F8               [12] 2859 	mov	r0,a
                                   2860 ;	/home/user/contiki/core/net/mac/xmac.c:757: return MAC_TX_COLLISION;
                                   2861 ;	/home/user/contiki/core/net/mac/xmac.c:600: for(strobes = 0, collisions = 0;
      000952                       2862 00168$:
                                   2863 ;	/home/user/contiki/core/net/mac/xmac.c:601: got_strobe_ack == 0 && collisions == 0 &&
      000952 E5 81            [12] 2864 	mov	a,sp
      000954 24 BB            [12] 2865 	add	a,#0xbb
      000956 F8               [12] 2866 	mov	r0,a
      000957 B6 00 02         [24] 2867 	cjne	@r0,#0x00,00284$
      00095A 80 03            [24] 2868 	sjmp	00285$
      00095C                       2869 00284$:
      00095C 02r0ArDF         [24] 2870 	ljmp	00142$
      00095F                       2871 00285$:
                                   2872 ;	/home/user/contiki/core/net/mac/xmac.c:602: RTIMER_CLOCK_LT(RTIMER_NOW(), t0 + xmac_config.strobe_time);
      00095F C0 03            [24] 2873 	push	ar3
      000961 AC E2            [24] 2874 	mov	r4,_T1CNTL
      000963 7D 00            [12] 2875 	mov	r5,#0x00
      000965 AA E3            [24] 2876 	mov	r2,_T1CNTH
      000967 8A 03            [24] 2877 	mov	ar3,r2
      000969 E4               [12] 2878 	clr	a
      00096A 2C               [12] 2879 	add	a,r4
      00096B FC               [12] 2880 	mov	r4,a
      00096C EB               [12] 2881 	mov	a,r3
      00096D 3D               [12] 2882 	addc	a,r5
      00096E FD               [12] 2883 	mov	r5,a
      00096F 90r00r04         [24] 2884 	mov	dptr,#(_xmac_config + 0x0004)
      000972 E0               [24] 2885 	movx	a,@dptr
      000973 FA               [12] 2886 	mov	r2,a
      000974 A3               [24] 2887 	inc	dptr
      000975 E0               [24] 2888 	movx	a,@dptr
      000976 FB               [12] 2889 	mov	r3,a
      000977 E5 81            [12] 2890 	mov	a,sp
      000979 24 FC            [12] 2891 	add	a,#0xfc
      00097B F8               [12] 2892 	mov	r0,a
      00097C EA               [12] 2893 	mov	a,r2
      00097D 26               [12] 2894 	add	a,@r0
      00097E FA               [12] 2895 	mov	r2,a
      00097F EB               [12] 2896 	mov	a,r3
      000980 08               [12] 2897 	inc	r0
      000981 36               [12] 2898 	addc	a,@r0
      000982 FB               [12] 2899 	mov	r3,a
      000983 EC               [12] 2900 	mov	a,r4
      000984 C3               [12] 2901 	clr	c
      000985 9A               [12] 2902 	subb	a,r2
      000986 FA               [12] 2903 	mov	r2,a
      000987 ED               [12] 2904 	mov	a,r5
      000988 9B               [12] 2905 	subb	a,r3
      000989 D0 03            [24] 2906 	pop	ar3
      00098B 20 E7 03         [24] 2907 	jb	acc.7,00286$
      00098E 02r0ArDF         [24] 2908 	ljmp	00142$
      000991                       2909 00286$:
                                   2910 ;	/home/user/contiki/core/net/mac/xmac.c:605: while(got_strobe_ack == 0 &&
      000991                       2911 00128$:
      000991 E5 81            [12] 2912 	mov	a,sp
      000993 24 BB            [12] 2913 	add	a,#0xbb
      000995 F8               [12] 2914 	mov	r0,a
      000996 E6               [12] 2915 	mov	a,@r0
      000997 70 2E            [24] 2916 	jnz	00130$
                                   2917 ;	/home/user/contiki/core/net/mac/xmac.c:606: RTIMER_CLOCK_LT(RTIMER_NOW(), t + xmac_config.strobe_wait_time)) {
      000999 C0 03            [24] 2918 	push	ar3
      00099B AC E2            [24] 2919 	mov	r4,_T1CNTL
      00099D 7D 00            [12] 2920 	mov	r5,#0x00
      00099F AA E3            [24] 2921 	mov	r2,_T1CNTH
      0009A1 8A 03            [24] 2922 	mov	ar3,r2
      0009A3 E4               [12] 2923 	clr	a
      0009A4 2C               [12] 2924 	add	a,r4
      0009A5 FC               [12] 2925 	mov	r4,a
      0009A6 EB               [12] 2926 	mov	a,r3
      0009A7 3D               [12] 2927 	addc	a,r5
      0009A8 FD               [12] 2928 	mov	r5,a
      0009A9 90r00r06         [24] 2929 	mov	dptr,#(_xmac_config + 0x0006)
      0009AC E0               [24] 2930 	movx	a,@dptr
      0009AD FA               [12] 2931 	mov	r2,a
      0009AE A3               [24] 2932 	inc	dptr
      0009AF E0               [24] 2933 	movx	a,@dptr
      0009B0 FB               [12] 2934 	mov	r3,a
      0009B1 A8 81            [24] 2935 	mov	r0,sp
      0009B3 18               [12] 2936 	dec	r0
      0009B4 18               [12] 2937 	dec	r0
      0009B5 EA               [12] 2938 	mov	a,r2
      0009B6 26               [12] 2939 	add	a,@r0
      0009B7 FA               [12] 2940 	mov	r2,a
      0009B8 EB               [12] 2941 	mov	a,r3
      0009B9 08               [12] 2942 	inc	r0
      0009BA 36               [12] 2943 	addc	a,@r0
      0009BB FB               [12] 2944 	mov	r3,a
      0009BC EC               [12] 2945 	mov	a,r4
      0009BD C3               [12] 2946 	clr	c
      0009BE 9A               [12] 2947 	subb	a,r2
      0009BF FA               [12] 2948 	mov	r2,a
      0009C0 ED               [12] 2949 	mov	a,r5
      0009C1 9B               [12] 2950 	subb	a,r3
      0009C2 D0 03            [24] 2951 	pop	ar3
      0009C4 20 E7 CA         [24] 2952 	jb	acc.7,00128$
      0009C7                       2953 00130$:
                                   2954 ;	/home/user/contiki/core/net/mac/xmac.c:638: t = RTIMER_NOW();
      0009C7 C0 03            [24] 2955 	push	ar3
      0009C9 AC E2            [24] 2956 	mov	r4,_T1CNTL
      0009CB 7D 00            [12] 2957 	mov	r5,#0x00
      0009CD AA E3            [24] 2958 	mov	r2,_T1CNTH
      0009CF 8A 03            [24] 2959 	mov	ar3,r2
      0009D1 E4               [12] 2960 	clr	a
      0009D2 FA               [12] 2961 	mov	r2,a
      0009D3 2C               [12] 2962 	add	a,r4
      0009D4 FC               [12] 2963 	mov	r4,a
      0009D5 EB               [12] 2964 	mov	a,r3
      0009D6 3D               [12] 2965 	addc	a,r5
      0009D7 FD               [12] 2966 	mov	r5,a
      0009D8 A8 81            [24] 2967 	mov	r0,sp
      0009DA 18               [12] 2968 	dec	r0
      0009DB 18               [12] 2969 	dec	r0
      0009DC A6 04            [24] 2970 	mov	@r0,ar4
      0009DE 08               [12] 2971 	inc	r0
      0009DF A6 05            [24] 2972 	mov	@r0,ar5
                                   2973 ;	/home/user/contiki/core/net/mac/xmac.c:640: if(got_strobe_ack == 0 && collisions == 0) {
      0009E1 D0 03            [24] 2974 	pop	ar3
      0009E3 E5 81            [12] 2975 	mov	a,sp
      0009E5 24 BB            [12] 2976 	add	a,#0xbb
      0009E7 F8               [12] 2977 	mov	r0,a
      0009E8 E6               [12] 2978 	mov	a,@r0
      0009E9 60 03            [24] 2979 	jz	00289$
      0009EB 02r09r52         [24] 2980 	ljmp	00168$
      0009EE                       2981 00289$:
                                   2982 ;	/home/user/contiki/core/net/mac/xmac.c:642: if(is_broadcast) {
      0009EE E5 81            [12] 2983 	mov	a,sp
      0009F0 24 F3            [12] 2984 	add	a,#0xf3
      0009F2 F8               [12] 2985 	mov	r0,a
      0009F3 E6               [12] 2986 	mov	a,@r0
      0009F4 08               [12] 2987 	inc	r0
      0009F5 46               [12] 2988 	orl	a,@r0
      0009F6 60 7B            [24] 2989 	jz	00135$
                                   2990 ;	/home/user/contiki/core/net/mac/xmac.c:647: queuebuf_to_packetbuf(packet);
      0009F8 C0 03            [24] 2991 	push	ar3
      0009FA E5 81            [12] 2992 	mov	a,sp
      0009FC 24 F7            [12] 2993 	add	a,#0xf7
      0009FE F8               [12] 2994 	mov	r0,a
      0009FF 86 82            [24] 2995 	mov	dpl,@r0
      000A01 08               [12] 2996 	inc	r0
      000A02 86 83            [24] 2997 	mov	dph,@r0
      000A04 08               [12] 2998 	inc	r0
      000A05 86 F0            [24] 2999 	mov	b,@r0
      000A07 C0 03            [24] 3000 	push	ar3
      000A09 12r00r00         [24] 3001 	lcall	_queuebuf_to_packetbuf
      000A0C D0 03            [24] 3002 	pop	ar3
                                   3003 ;	/home/user/contiki/core/net/mac/xmac.c:648: ret = NETSTACK_RADIO.send(packetbuf_hdrptr(), packetbuf_totlen());
      000A0E 90r00r06         [24] 3004 	mov	dptr,#(_cc2530_rf_driver + 0x0006)
      000A11 E4               [12] 3005 	clr	a
      000A12 93               [24] 3006 	movc	a,@a+dptr
      000A13 FC               [12] 3007 	mov	r4,a
      000A14 A3               [24] 3008 	inc	dptr
      000A15 E4               [12] 3009 	clr	a
      000A16 93               [24] 3010 	movc	a,@a+dptr
      000A17 FD               [12] 3011 	mov	r5,a
      000A18 C0 05            [24] 3012 	push	ar5
      000A1A C0 04            [24] 3013 	push	ar4
      000A1C C0 03            [24] 3014 	push	ar3
      000A1E 12r00r00         [24] 3015 	lcall	_packetbuf_totlen
      000A21 C8               [12] 3016 	xch	a,r0
      000A22 E5 81            [12] 3017 	mov	a,sp
      000A24 24 B5            [12] 3018 	add	a,#0xb5
      000A26 C8               [12] 3019 	xch	a,r0
      000A27 A6 82            [24] 3020 	mov	@r0,dpl
      000A29 08               [12] 3021 	inc	r0
      000A2A A6 83            [24] 3022 	mov	@r0,dph
      000A2C D0 03            [24] 3023 	pop	ar3
      000A2E 12r00r00         [24] 3024 	lcall	_packetbuf_hdrptr
      000A31 AB 82            [24] 3025 	mov	r3,dpl
      000A33 AE 83            [24] 3026 	mov	r6,dph
      000A35 AF F0            [24] 3027 	mov	r7,b
      000A37 D0 04            [24] 3028 	pop	ar4
      000A39 D0 05            [24] 3029 	pop	ar5
      000A3B C0 05            [24] 3030 	push	ar5
      000A3D C0 04            [24] 3031 	push	ar4
      000A3F C0 03            [24] 3032 	push	ar3
      000A41 E5 81            [12] 3033 	mov	a,sp
      000A43 24 B5            [12] 3034 	add	a,#0xb5
      000A45 F8               [12] 3035 	mov	r0,a
      000A46 E6               [12] 3036 	mov	a,@r0
      000A47 C0 E0            [24] 3037 	push	acc
      000A49 08               [12] 3038 	inc	r0
      000A4A E6               [12] 3039 	mov	a,@r0
      000A4B C0 E0            [24] 3040 	push	acc
      000A4D 12r0Ar52         [24] 3041 	lcall	00291$
      000A50 80 0B            [24] 3042 	sjmp	00292$
      000A52                       3043 00291$:
      000A52 C0 04            [24] 3044 	push	ar4
      000A54 C0 05            [24] 3045 	push	ar5
      000A56 8B 82            [24] 3046 	mov	dpl,r3
      000A58 8E 83            [24] 3047 	mov	dph,r6
      000A5A 8F F0            [24] 3048 	mov	b,r7
      000A5C 22               [24] 3049 	ret
      000A5D                       3050 00292$:
      000A5D 15 81            [12] 3051 	dec	sp
      000A5F 15 81            [12] 3052 	dec	sp
      000A61 D0 03            [24] 3053 	pop	ar3
      000A63 D0 04            [24] 3054 	pop	ar4
      000A65 D0 05            [24] 3055 	pop	ar5
                                   3056 ;	/home/user/contiki/core/net/mac/xmac.c:650: off();
      000A67 C0 03            [24] 3057 	push	ar3
      000A69 12r00r2E         [24] 3058 	lcall	_off
      000A6C D0 03            [24] 3059 	pop	ar3
      000A6E D0 03            [24] 3060 	pop	ar3
      000A70 02r09r52         [24] 3061 	ljmp	00168$
      000A73                       3062 00135$:
                                   3063 ;	/home/user/contiki/core/net/mac/xmac.c:655: on();
      000A73 C0 03            [24] 3064 	push	ar3
      000A75 12r00r00         [24] 3065 	lcall	_on
      000A78 D0 03            [24] 3066 	pop	ar3
                                   3067 ;	/home/user/contiki/core/net/mac/xmac.c:656: ret = NETSTACK_RADIO.send(strobe, strobe_len);
      000A7A 90r00r06         [24] 3068 	mov	dptr,#(_cc2530_rf_driver + 0x0006)
      000A7D E4               [12] 3069 	clr	a
      000A7E 93               [24] 3070 	movc	a,@a+dptr
      000A7F FE               [12] 3071 	mov	r6,a
      000A80 A3               [24] 3072 	inc	dptr
      000A81 E4               [12] 3073 	clr	a
      000A82 93               [24] 3074 	movc	a,@a+dptr
      000A83 FF               [12] 3075 	mov	r7,a
      000A84 E5 81            [12] 3076 	mov	a,sp
      000A86 24 B8            [12] 3077 	add	a,#0xb8
      000A88 F8               [12] 3078 	mov	r0,a
      000A89 86 02            [24] 3079 	mov	ar2,@r0
      000A8B 7C 00            [12] 3080 	mov	r4,#0x00
      000A8D 7D 40            [12] 3081 	mov	r5,#0x40
      000A8F C0 07            [24] 3082 	push	ar7
      000A91 C0 06            [24] 3083 	push	ar6
      000A93 C0 03            [24] 3084 	push	ar3
      000A95 E5 81            [12] 3085 	mov	a,sp
      000A97 24 EC            [12] 3086 	add	a,#0xec
      000A99 F8               [12] 3087 	mov	r0,a
      000A9A E6               [12] 3088 	mov	a,@r0
      000A9B C0 E0            [24] 3089 	push	acc
      000A9D 08               [12] 3090 	inc	r0
      000A9E E6               [12] 3091 	mov	a,@r0
      000A9F C0 E0            [24] 3092 	push	acc
      000AA1 12r0ArA6         [24] 3093 	lcall	00293$
      000AA4 80 0B            [24] 3094 	sjmp	00294$
      000AA6                       3095 00293$:
      000AA6 C0 06            [24] 3096 	push	ar6
      000AA8 C0 07            [24] 3097 	push	ar7
      000AAA 8A 82            [24] 3098 	mov	dpl,r2
      000AAC 8C 83            [24] 3099 	mov	dph,r4
      000AAE 8D F0            [24] 3100 	mov	b,r5
      000AB0 22               [24] 3101 	ret
      000AB1                       3102 00294$:
      000AB1 15 81            [12] 3103 	dec	sp
      000AB3 15 81            [12] 3104 	dec	sp
      000AB5 D0 03            [24] 3105 	pop	ar3
      000AB7 D0 06            [24] 3106 	pop	ar6
      000AB9 D0 07            [24] 3107 	pop	ar7
                                   3108 ;	/home/user/contiki/core/net/mac/xmac.c:672: if(detect_ack()) {
      000ABB C0 03            [24] 3109 	push	ar3
      000ABD 12r03rEE         [24] 3110 	lcall	_detect_ack
      000AC0 E5 82            [12] 3111 	mov	a,dpl
      000AC2 85 83 F0         [24] 3112 	mov	b,dph
      000AC5 D0 03            [24] 3113 	pop	ar3
      000AC7 45 F0            [12] 3114 	orl	a,b
      000AC9 60 0A            [24] 3115 	jz	00132$
                                   3116 ;	/home/user/contiki/core/net/mac/xmac.c:673: got_strobe_ack = 1;
      000ACB E5 81            [12] 3117 	mov	a,sp
      000ACD 24 BB            [12] 3118 	add	a,#0xbb
      000ACF F8               [12] 3119 	mov	r0,a
      000AD0 76 01            [12] 3120 	mov	@r0,#0x01
      000AD2 02r09r52         [24] 3121 	ljmp	00168$
      000AD5                       3122 00132$:
                                   3123 ;	/home/user/contiki/core/net/mac/xmac.c:675: off();
      000AD5 C0 03            [24] 3124 	push	ar3
      000AD7 12r00r2E         [24] 3125 	lcall	_off
      000ADA D0 03            [24] 3126 	pop	ar3
                                   3127 ;	/home/user/contiki/core/net/mac/xmac.c:603: strobes++) {
      000ADC 02r09r52         [24] 3128 	ljmp	00168$
      000ADF                       3129 00142$:
                                   3130 ;	/home/user/contiki/core/net/mac/xmac.c:700: queuebuf_to_packetbuf(packet);
      000ADF E5 81            [12] 3131 	mov	a,sp
      000AE1 24 F8            [12] 3132 	add	a,#0xf8
      000AE3 F8               [12] 3133 	mov	r0,a
      000AE4 86 82            [24] 3134 	mov	dpl,@r0
      000AE6 08               [12] 3135 	inc	r0
      000AE7 86 83            [24] 3136 	mov	dph,@r0
      000AE9 08               [12] 3137 	inc	r0
      000AEA 86 F0            [24] 3138 	mov	b,@r0
      000AEC C0 03            [24] 3139 	push	ar3
      000AEE 12r00r00         [24] 3140 	lcall	_queuebuf_to_packetbuf
      000AF1 D0 03            [24] 3141 	pop	ar3
                                   3142 ;	/home/user/contiki/core/net/mac/xmac.c:701: queuebuf_free(packet);
      000AF3 E5 81            [12] 3143 	mov	a,sp
      000AF5 24 F8            [12] 3144 	add	a,#0xf8
      000AF7 F8               [12] 3145 	mov	r0,a
      000AF8 86 82            [24] 3146 	mov	dpl,@r0
      000AFA 08               [12] 3147 	inc	r0
      000AFB 86 83            [24] 3148 	mov	dph,@r0
      000AFD 08               [12] 3149 	inc	r0
      000AFE 86 F0            [24] 3150 	mov	b,@r0
      000B00 C0 03            [24] 3151 	push	ar3
      000B02 12r00r00         [24] 3152 	lcall	_queuebuf_free
      000B05 D0 03            [24] 3153 	pop	ar3
                                   3154 ;	/home/user/contiki/core/net/mac/xmac.c:704: if((is_broadcast || got_strobe_ack || is_streaming) && collisions == 0) {
      000B07 E5 81            [12] 3155 	mov	a,sp
      000B09 24 F3            [12] 3156 	add	a,#0xf3
      000B0B F8               [12] 3157 	mov	r0,a
      000B0C E6               [12] 3158 	mov	a,@r0
      000B0D 08               [12] 3159 	inc	r0
      000B0E 46               [12] 3160 	orl	a,@r0
      000B0F 70 12            [24] 3161 	jnz	00151$
      000B11 E5 81            [12] 3162 	mov	a,sp
      000B13 24 BB            [12] 3163 	add	a,#0xbb
      000B15 F8               [12] 3164 	mov	r0,a
      000B16 E6               [12] 3165 	mov	a,@r0
      000B17 70 0A            [24] 3166 	jnz	00151$
      000B19 90r00r2A         [24] 3167 	mov	dptr,#_is_streaming
      000B1C E0               [24] 3168 	movx	a,@dptr
      000B1D FF               [12] 3169 	mov	r7,a
      000B1E 70 03            [24] 3170 	jnz	00298$
      000B20 02r0BrA7         [24] 3171 	ljmp	00148$
      000B23                       3172 00298$:
      000B23                       3173 00151$:
      000B23 EB               [12] 3174 	mov	a,r3
      000B24 60 03            [24] 3175 	jz	00299$
      000B26 02r0BrA7         [24] 3176 	ljmp	00148$
      000B29                       3177 00299$:
                                   3178 ;	/home/user/contiki/core/net/mac/xmac.c:705: ret = NETSTACK_RADIO.send(packetbuf_hdrptr(), packetbuf_totlen());
      000B29 C0 03            [24] 3179 	push	ar3
      000B2B 90r00r06         [24] 3180 	mov	dptr,#(_cc2530_rf_driver + 0x0006)
      000B2E E4               [12] 3181 	clr	a
      000B2F 93               [24] 3182 	movc	a,@a+dptr
      000B30 FE               [12] 3183 	mov	r6,a
      000B31 A3               [24] 3184 	inc	dptr
      000B32 E4               [12] 3185 	clr	a
      000B33 93               [24] 3186 	movc	a,@a+dptr
      000B34 FF               [12] 3187 	mov	r7,a
      000B35 C0 07            [24] 3188 	push	ar7
      000B37 C0 06            [24] 3189 	push	ar6
      000B39 C0 03            [24] 3190 	push	ar3
      000B3B 12r00r00         [24] 3191 	lcall	_packetbuf_totlen
      000B3E C8               [12] 3192 	xch	a,r0
      000B3F E5 81            [12] 3193 	mov	a,sp
      000B41 24 B5            [12] 3194 	add	a,#0xb5
      000B43 C8               [12] 3195 	xch	a,r0
      000B44 A6 82            [24] 3196 	mov	@r0,dpl
      000B46 08               [12] 3197 	inc	r0
      000B47 A6 83            [24] 3198 	mov	@r0,dph
      000B49 D0 03            [24] 3199 	pop	ar3
      000B4B 12r00r00         [24] 3200 	lcall	_packetbuf_hdrptr
      000B4E AA 82            [24] 3201 	mov	r2,dpl
      000B50 AB 83            [24] 3202 	mov	r3,dph
      000B52 AD F0            [24] 3203 	mov	r5,b
      000B54 D0 06            [24] 3204 	pop	ar6
      000B56 D0 07            [24] 3205 	pop	ar7
      000B58 C0 07            [24] 3206 	push	ar7
      000B5A C0 06            [24] 3207 	push	ar6
      000B5C C0 03            [24] 3208 	push	ar3
      000B5E E5 81            [12] 3209 	mov	a,sp
      000B60 24 B5            [12] 3210 	add	a,#0xb5
      000B62 F8               [12] 3211 	mov	r0,a
      000B63 E6               [12] 3212 	mov	a,@r0
      000B64 C0 E0            [24] 3213 	push	acc
      000B66 08               [12] 3214 	inc	r0
      000B67 E6               [12] 3215 	mov	a,@r0
      000B68 C0 E0            [24] 3216 	push	acc
      000B6A 12r0Br6F         [24] 3217 	lcall	00300$
      000B6D 80 0B            [24] 3218 	sjmp	00301$
      000B6F                       3219 00300$:
      000B6F C0 06            [24] 3220 	push	ar6
      000B71 C0 07            [24] 3221 	push	ar7
      000B73 8A 82            [24] 3222 	mov	dpl,r2
      000B75 8B 83            [24] 3223 	mov	dph,r3
      000B77 8D F0            [24] 3224 	mov	b,r5
      000B79 22               [24] 3225 	ret
      000B7A                       3226 00301$:
      000B7A 15 81            [12] 3227 	dec	sp
      000B7C 15 81            [12] 3228 	dec	sp
      000B7E D0 03            [24] 3229 	pop	ar3
      000B80 D0 06            [24] 3230 	pop	ar6
      000B82 D0 07            [24] 3231 	pop	ar7
                                   3232 ;	/home/user/contiki/core/net/mac/xmac.c:707: if(!is_broadcast) {
      000B84 D0 03            [24] 3233 	pop	ar3
      000B86 E5 81            [12] 3234 	mov	a,sp
      000B88 24 F3            [12] 3235 	add	a,#0xf3
      000B8A F8               [12] 3236 	mov	r0,a
      000B8B E6               [12] 3237 	mov	a,@r0
      000B8C 08               [12] 3238 	inc	r0
      000B8D 46               [12] 3239 	orl	a,@r0
      000B8E 70 17            [24] 3240 	jnz	00148$
                                   3241 ;	/home/user/contiki/core/net/mac/xmac.c:713: if(detect_ack()) {
      000B90 C0 03            [24] 3242 	push	ar3
      000B92 12r03rEE         [24] 3243 	lcall	_detect_ack
      000B95 E5 82            [12] 3244 	mov	a,dpl
      000B97 85 83 F0         [24] 3245 	mov	b,dph
      000B9A D0 03            [24] 3246 	pop	ar3
      000B9C 45 F0            [12] 3247 	orl	a,b
      000B9E 60 07            [24] 3248 	jz	00148$
                                   3249 ;	/home/user/contiki/core/net/mac/xmac.c:714: got_ack = 1;
      000BA0 E5 81            [12] 3250 	mov	a,sp
      000BA2 24 BC            [12] 3251 	add	a,#0xbc
      000BA4 F8               [12] 3252 	mov	r0,a
      000BA5 76 01            [12] 3253 	mov	@r0,#0x01
      000BA7                       3254 00148$:
                                   3255 ;	/home/user/contiki/core/net/mac/xmac.c:719: off();
      000BA7 C0 03            [24] 3256 	push	ar3
      000BA9 12r00r2E         [24] 3257 	lcall	_off
      000BAC D0 03            [24] 3258 	pop	ar3
                                   3259 ;	/home/user/contiki/core/net/mac/xmac.c:722: if(got_strobe_ack && !is_streaming) {
      000BAE E5 81            [12] 3260 	mov	a,sp
      000BB0 24 BB            [12] 3261 	add	a,#0xbb
      000BB2 F8               [12] 3262 	mov	r0,a
      000BB3 E6               [12] 3263 	mov	a,@r0
      000BB4 60 29            [24] 3264 	jz	00153$
      000BB6 90r00r2A         [24] 3265 	mov	dptr,#_is_streaming
      000BB9 E0               [24] 3266 	movx	a,@dptr
      000BBA FF               [12] 3267 	mov	r7,a
      000BBB 70 22            [24] 3268 	jnz	00153$
                                   3269 ;	/home/user/contiki/core/net/mac/xmac.c:723: register_encounter(packetbuf_addr(PACKETBUF_ADDR_RECEIVER), encounter_time);
      000BBD 75 82 19         [24] 3270 	mov	dpl,#0x19
      000BC0 C0 03            [24] 3271 	push	ar3
      000BC2 12r00r00         [24] 3272 	lcall	_packetbuf_addr
      000BC5 AD 82            [24] 3273 	mov	r5,dpl
      000BC7 AE 83            [24] 3274 	mov	r6,dph
      000BC9 AF F0            [24] 3275 	mov	r7,b
      000BCB E4               [12] 3276 	clr	a
      000BCC C0 E0            [24] 3277 	push	acc
      000BCE C0 E0            [24] 3278 	push	acc
      000BD0 8D 82            [24] 3279 	mov	dpl,r5
      000BD2 8E 83            [24] 3280 	mov	dph,r6
      000BD4 8F F0            [24] 3281 	mov	b,r7
      000BD6 12r02rA2         [24] 3282 	lcall	_register_encounter
      000BD9 15 81            [12] 3283 	dec	sp
      000BDB 15 81            [12] 3284 	dec	sp
      000BDD D0 03            [24] 3285 	pop	ar3
      000BDF                       3286 00153$:
                                   3287 ;	/home/user/contiki/core/net/mac/xmac.c:726: watchdog_start();
      000BDF C0 03            [24] 3288 	push	ar3
      000BE1 12r00r00         [24] 3289 	lcall	_watchdog_start
      000BE4 D0 03            [24] 3290 	pop	ar3
                                   3291 ;	/home/user/contiki/core/net/mac/xmac.c:746: we_are_sending = 0;
      000BE6 90r00r0B         [24] 3292 	mov	dptr,#_we_are_sending
      000BE9 E4               [12] 3293 	clr	a
      000BEA F0               [24] 3294 	movx	@dptr,a
                                   3295 ;	/home/user/contiki/core/net/mac/xmac.c:749: if(collisions == 0) {
      000BEB EB               [12] 3296 	mov	a,r3
      000BEC 70 1C            [24] 3297 	jnz	00160$
                                   3298 ;	/home/user/contiki/core/net/mac/xmac.c:750: if(is_broadcast == 0 && got_ack == 0) {
      000BEE E5 81            [12] 3299 	mov	a,sp
      000BF0 24 F3            [12] 3300 	add	a,#0xf3
      000BF2 F8               [12] 3301 	mov	r0,a
      000BF3 E6               [12] 3302 	mov	a,@r0
      000BF4 08               [12] 3303 	inc	r0
      000BF5 46               [12] 3304 	orl	a,@r0
      000BF6 70 0D            [24] 3305 	jnz	00156$
      000BF8 E5 81            [12] 3306 	mov	a,sp
      000BFA 24 BC            [12] 3307 	add	a,#0xbc
      000BFC F8               [12] 3308 	mov	r0,a
      000BFD E6               [12] 3309 	mov	a,@r0
      000BFE 70 05            [24] 3310 	jnz	00156$
                                   3311 ;	/home/user/contiki/core/net/mac/xmac.c:751: return MAC_TX_NOACK;
      000C00 90 00 02         [24] 3312 	mov	dptr,#0x0002
      000C03 80 0F            [24] 3313 	sjmp	00170$
      000C05                       3314 00156$:
                                   3315 ;	/home/user/contiki/core/net/mac/xmac.c:753: return MAC_TX_OK;
      000C05 90 00 00         [24] 3316 	mov	dptr,#0x0000
      000C08 80 0A            [24] 3317 	sjmp	00170$
      000C0A                       3318 00160$:
                                   3319 ;	/home/user/contiki/core/net/mac/xmac.c:756: someone_is_sending++;
      000C0A 90r00r0A         [24] 3320 	mov	dptr,#_someone_is_sending
      000C0D E0               [24] 3321 	movx	a,@dptr
      000C0E 24 01            [12] 3322 	add	a,#0x01
      000C10 F0               [24] 3323 	movx	@dptr,a
                                   3324 ;	/home/user/contiki/core/net/mac/xmac.c:757: return MAC_TX_COLLISION;
      000C11 90 00 01         [24] 3325 	mov	dptr,#0x0001
      000C14                       3326 00170$:
      000C14 E5 81            [12] 3327 	mov	a,sp
      000C16 24 B7            [12] 3328 	add	a,#0xB7
      000C18 F5 81            [12] 3329 	mov	sp,a
      000C1A 22               [24] 3330 	ret
                                   3331 ;------------------------------------------------------------
                                   3332 ;Allocation info for local variables in function 'qsend_packet'
                                   3333 ;------------------------------------------------------------
                                   3334 ;ptr                       Allocated to stack - sp -4
                                   3335 ;sent                      Allocated to registers r6 r7 
                                   3336 ;ret                       Allocated to registers r4 r5 
                                   3337 ;------------------------------------------------------------
                                   3338 ;	/home/user/contiki/core/net/mac/xmac.c:763: qsend_packet(mac_callback_t sent, void *ptr)
                                   3339 ;	-----------------------------------------
                                   3340 ;	 function qsend_packet
                                   3341 ;	-----------------------------------------
      000C1B                       3342 _qsend_packet:
      000C1B AE 82            [24] 3343 	mov	r6,dpl
      000C1D AF 83            [24] 3344 	mov	r7,dph
                                   3345 ;	/home/user/contiki/core/net/mac/xmac.c:767: if(someone_is_sending) {
      000C1F 90r00r0A         [24] 3346 	mov	dptr,#_someone_is_sending
      000C22 E0               [24] 3347 	movx	a,@dptr
      000C23 FD               [12] 3348 	mov	r5,a
      000C24 60 06            [24] 3349 	jz	00102$
                                   3350 ;	/home/user/contiki/core/net/mac/xmac.c:771: ret = MAC_TX_COLLISION;
      000C26 7C 01            [12] 3351 	mov	r4,#0x01
      000C28 7D 00            [12] 3352 	mov	r5,#0x00
      000C2A 80 13            [24] 3353 	sjmp	00103$
      000C2C                       3354 00102$:
                                   3355 ;	/home/user/contiki/core/net/mac/xmac.c:774: ret = send_packet();
      000C2C C0 07            [24] 3356 	push	ar7
      000C2E C0 06            [24] 3357 	push	ar6
      000C30 12r05r22         [24] 3358 	lcall	_send_packet
      000C33 AA 82            [24] 3359 	mov	r2,dpl
      000C35 AB 83            [24] 3360 	mov	r3,dph
      000C37 D0 06            [24] 3361 	pop	ar6
      000C39 D0 07            [24] 3362 	pop	ar7
      000C3B 8A 04            [24] 3363 	mov	ar4,r2
      000C3D 8B 05            [24] 3364 	mov	ar5,r3
      000C3F                       3365 00103$:
                                   3366 ;	/home/user/contiki/core/net/mac/xmac.c:777: mac_call_sent_callback(sent, ptr, ret, 1);
      000C3F 74 01            [12] 3367 	mov	a,#0x01
      000C41 C0 E0            [24] 3368 	push	acc
      000C43 E4               [12] 3369 	clr	a
      000C44 C0 E0            [24] 3370 	push	acc
      000C46 C0 04            [24] 3371 	push	ar4
      000C48 C0 05            [24] 3372 	push	ar5
      000C4A E5 81            [12] 3373 	mov	a,sp
      000C4C 24 F8            [12] 3374 	add	a,#0xf8
      000C4E F8               [12] 3375 	mov	r0,a
      000C4F E6               [12] 3376 	mov	a,@r0
      000C50 C0 E0            [24] 3377 	push	acc
      000C52 08               [12] 3378 	inc	r0
      000C53 E6               [12] 3379 	mov	a,@r0
      000C54 C0 E0            [24] 3380 	push	acc
      000C56 08               [12] 3381 	inc	r0
      000C57 E6               [12] 3382 	mov	a,@r0
      000C58 C0 E0            [24] 3383 	push	acc
      000C5A 8E 82            [24] 3384 	mov	dpl,r6
      000C5C 8F 83            [24] 3385 	mov	dph,r7
      000C5E 12r00r00         [24] 3386 	lcall	_mac_call_sent_callback
      000C61 E5 81            [12] 3387 	mov	a,sp
      000C63 24 F9            [12] 3388 	add	a,#0xf9
      000C65 F5 81            [12] 3389 	mov	sp,a
      000C67 22               [24] 3390 	ret
                                   3391 ;------------------------------------------------------------
                                   3392 ;Allocation info for local variables in function 'qsend_list'
                                   3393 ;------------------------------------------------------------
                                   3394 ;ptr                       Allocated to stack - sp -4
                                   3395 ;buf_list                  Allocated to stack - sp -7
                                   3396 ;sent                      Allocated to registers r6 r7 
                                   3397 ;------------------------------------------------------------
                                   3398 ;	/home/user/contiki/core/net/mac/xmac.c:781: qsend_list(mac_callback_t sent, void *ptr, struct rdc_buf_list *buf_list)
                                   3399 ;	-----------------------------------------
                                   3400 ;	 function qsend_list
                                   3401 ;	-----------------------------------------
      000C68                       3402 _qsend_list:
      000C68 AE 82            [24] 3403 	mov	r6,dpl
      000C6A AF 83            [24] 3404 	mov	r7,dph
                                   3405 ;	/home/user/contiki/core/net/mac/xmac.c:783: if(buf_list != NULL) {
      000C6C E5 81            [12] 3406 	mov	a,sp
      000C6E 24 F9            [12] 3407 	add	a,#0xf9
      000C70 F8               [12] 3408 	mov	r0,a
      000C71 E6               [12] 3409 	mov	a,@r0
      000C72 08               [12] 3410 	inc	r0
      000C73 46               [12] 3411 	orl	a,@r0
      000C74 60 56            [24] 3412 	jz	00103$
                                   3413 ;	/home/user/contiki/core/net/mac/xmac.c:784: queuebuf_to_packetbuf(buf_list->buf);
      000C76 E5 81            [12] 3414 	mov	a,sp
      000C78 24 F9            [12] 3415 	add	a,#0xf9
      000C7A F8               [12] 3416 	mov	r0,a
      000C7B 86 03            [24] 3417 	mov	ar3,@r0
      000C7D 08               [12] 3418 	inc	r0
      000C7E 86 04            [24] 3419 	mov	ar4,@r0
      000C80 08               [12] 3420 	inc	r0
      000C81 86 05            [24] 3421 	mov	ar5,@r0
      000C83 74 03            [12] 3422 	mov	a,#0x03
      000C85 2B               [12] 3423 	add	a,r3
      000C86 FB               [12] 3424 	mov	r3,a
      000C87 E4               [12] 3425 	clr	a
      000C88 3C               [12] 3426 	addc	a,r4
      000C89 FC               [12] 3427 	mov	r4,a
      000C8A 8B 82            [24] 3428 	mov	dpl,r3
      000C8C 8C 83            [24] 3429 	mov	dph,r4
      000C8E 8D F0            [24] 3430 	mov	b,r5
      000C90 12r00r00         [24] 3431 	lcall	__gptrget
      000C93 FB               [12] 3432 	mov	r3,a
      000C94 A3               [24] 3433 	inc	dptr
      000C95 12r00r00         [24] 3434 	lcall	__gptrget
      000C98 FC               [12] 3435 	mov	r4,a
      000C99 A3               [24] 3436 	inc	dptr
      000C9A 12r00r00         [24] 3437 	lcall	__gptrget
      000C9D FD               [12] 3438 	mov	r5,a
      000C9E 8B 82            [24] 3439 	mov	dpl,r3
      000CA0 8C 83            [24] 3440 	mov	dph,r4
      000CA2 8D F0            [24] 3441 	mov	b,r5
      000CA4 C0 07            [24] 3442 	push	ar7
      000CA6 C0 06            [24] 3443 	push	ar6
      000CA8 12r00r00         [24] 3444 	lcall	_queuebuf_to_packetbuf
      000CAB D0 06            [24] 3445 	pop	ar6
      000CAD D0 07            [24] 3446 	pop	ar7
                                   3447 ;	/home/user/contiki/core/net/mac/xmac.c:785: qsend_packet(sent, ptr);
      000CAF E5 81            [12] 3448 	mov	a,sp
      000CB1 24 FC            [12] 3449 	add	a,#0xfc
      000CB3 F8               [12] 3450 	mov	r0,a
      000CB4 E6               [12] 3451 	mov	a,@r0
      000CB5 C0 E0            [24] 3452 	push	acc
      000CB7 08               [12] 3453 	inc	r0
      000CB8 E6               [12] 3454 	mov	a,@r0
      000CB9 C0 E0            [24] 3455 	push	acc
      000CBB 08               [12] 3456 	inc	r0
      000CBC E6               [12] 3457 	mov	a,@r0
      000CBD C0 E0            [24] 3458 	push	acc
      000CBF 8E 82            [24] 3459 	mov	dpl,r6
      000CC1 8F 83            [24] 3460 	mov	dph,r7
      000CC3 12r0Cr1B         [24] 3461 	lcall	_qsend_packet
      000CC6 15 81            [12] 3462 	dec	sp
      000CC8 15 81            [12] 3463 	dec	sp
      000CCA 15 81            [12] 3464 	dec	sp
      000CCC                       3465 00103$:
      000CCC 22               [24] 3466 	ret
                                   3467 ;------------------------------------------------------------
                                   3468 ;Allocation info for local variables in function 'input_packet'
                                   3469 ;------------------------------------------------------------
                                   3470 ;hdr                       Allocated to registers r5 r6 r7 
                                   3471 ;i                         Allocated to stack - sp -1
                                   3472 ;sloc0                     Allocated to stack - sp -6
                                   3473 ;sloc1                     Allocated to stack - sp +1
                                   3474 ;sloc2                     Allocated to stack - sp +3
                                   3475 ;sloc3                     Allocated to stack - sp -4
                                   3476 ;sloc4                     Allocated to stack - sp +8
                                   3477 ;------------------------------------------------------------
                                   3478 ;	/home/user/contiki/core/net/mac/xmac.c:790: input_packet(void)
                                   3479 ;	-----------------------------------------
                                   3480 ;	 function input_packet
                                   3481 ;	-----------------------------------------
      000CCD                       3482 _input_packet:
      000CCD E5 81            [12] 3483 	mov	a,sp
      000CCF 24 07            [12] 3484 	add	a,#0x07
      000CD1 F5 81            [12] 3485 	mov	sp,a
                                   3486 ;	/home/user/contiki/core/net/mac/xmac.c:794: if(NETSTACK_FRAMER.parse() >= 0) {
      000CD3 90r00r02         [24] 3487 	mov	dptr,#(_framer_802154 + 0x0002)
      000CD6 E4               [12] 3488 	clr	a
      000CD7 93               [24] 3489 	movc	a,@a+dptr
      000CD8 FE               [12] 3490 	mov	r6,a
      000CD9 A3               [24] 3491 	inc	dptr
      000CDA E4               [12] 3492 	clr	a
      000CDB 93               [24] 3493 	movc	a,@a+dptr
      000CDC FF               [12] 3494 	mov	r7,a
      000CDD 8E 82            [24] 3495 	mov	dpl,r6
      000CDF 8F 83            [24] 3496 	mov	dph,r7
      000CE1 12r00r00         [24] 3497 	lcall	__sdcc_call_dptr
      000CE4 AE 82            [24] 3498 	mov	r6,dpl
      000CE6 E5 83            [12] 3499 	mov	a,dph
      000CE8 FF               [12] 3500 	mov	r7,a
      000CE9 30 E7 03         [24] 3501 	jnb	acc.7,00165$
      000CEC 02r0Fr5E         [24] 3502 	ljmp	00126$
      000CEF                       3503 00165$:
                                   3504 ;	/home/user/contiki/core/net/mac/xmac.c:795: hdr = packetbuf_dataptr();
      000CEF 12r00r00         [24] 3505 	lcall	_packetbuf_dataptr
                                   3506 ;	/home/user/contiki/core/net/mac/xmac.c:797: if(hdr->dispatch != DISPATCH) {
      000CF2 AD 82            [24] 3507 	mov	r5,dpl
      000CF4 AE 83            [24] 3508 	mov	r6,dph
      000CF6 AF F0            [24] 3509 	mov	r7,b
      000CF8 12r00r00         [24] 3510 	lcall	__gptrget
      000CFB 70 03            [24] 3511 	jnz	00166$
      000CFD 02r0ErD8         [24] 3512 	ljmp	00118$
      000D00                       3513 00166$:
                                   3514 ;	/home/user/contiki/core/net/mac/xmac.c:798: someone_is_sending = 0;
      000D00 90r00r0A         [24] 3515 	mov	dptr,#_someone_is_sending
      000D03 E4               [12] 3516 	clr	a
      000D04 F0               [24] 3517 	movx	@dptr,a
                                   3518 ;	/home/user/contiki/core/net/mac/xmac.c:800: &rimeaddr_node_addr) ||
                                   3519 ;	/home/user/contiki/core/net/mac/xmac.c:799: if(rimeaddr_cmp(packetbuf_addr(PACKETBUF_ADDR_RECEIVER),
      000D05 75 82 19         [24] 3520 	mov	dpl,#0x19
      000D08 12r00r00         [24] 3521 	lcall	_packetbuf_addr
      000D0B AA 82            [24] 3522 	mov	r2,dpl
      000D0D AB 83            [24] 3523 	mov	r3,dph
      000D0F AC F0            [24] 3524 	mov	r4,b
      000D11 74r00            [12] 3525 	mov	a,#_rimeaddr_node_addr
      000D13 C0 E0            [24] 3526 	push	acc
      000D15 74s00            [12] 3527 	mov	a,#(_rimeaddr_node_addr >> 8)
      000D17 C0 E0            [24] 3528 	push	acc
      000D19 E4               [12] 3529 	clr	a
      000D1A C0 E0            [24] 3530 	push	acc
      000D1C 8A 82            [24] 3531 	mov	dpl,r2
      000D1E 8B 83            [24] 3532 	mov	dph,r3
      000D20 8C F0            [24] 3533 	mov	b,r4
      000D22 12r00r00         [24] 3534 	lcall	_rimeaddr_cmp
      000D25 AB 82            [24] 3535 	mov	r3,dpl
      000D27 AC 83            [24] 3536 	mov	r4,dph
      000D29 15 81            [12] 3537 	dec	sp
      000D2B 15 81            [12] 3538 	dec	sp
      000D2D 15 81            [12] 3539 	dec	sp
      000D2F EB               [12] 3540 	mov	a,r3
      000D30 4C               [12] 3541 	orl	a,r4
      000D31 70 32            [24] 3542 	jnz	00106$
                                   3543 ;	/home/user/contiki/core/net/mac/xmac.c:802: &rimeaddr_null)) {
                                   3544 ;	/home/user/contiki/core/net/mac/xmac.c:801: rimeaddr_cmp(packetbuf_addr(PACKETBUF_ADDR_RECEIVER),
      000D33 75 82 19         [24] 3545 	mov	dpl,#0x19
      000D36 12r00r00         [24] 3546 	lcall	_packetbuf_addr
      000D39 AA 82            [24] 3547 	mov	r2,dpl
      000D3B AB 83            [24] 3548 	mov	r3,dph
      000D3D AC F0            [24] 3549 	mov	r4,b
      000D3F 74r00            [12] 3550 	mov	a,#_rimeaddr_null
      000D41 C0 E0            [24] 3551 	push	acc
      000D43 74s00            [12] 3552 	mov	a,#(_rimeaddr_null >> 8)
      000D45 C0 E0            [24] 3553 	push	acc
      000D47 74 80            [12] 3554 	mov	a,#0x80
      000D49 C0 E0            [24] 3555 	push	acc
      000D4B 8A 82            [24] 3556 	mov	dpl,r2
      000D4D 8B 83            [24] 3557 	mov	dph,r3
      000D4F 8C F0            [24] 3558 	mov	b,r4
      000D51 12r00r00         [24] 3559 	lcall	_rimeaddr_cmp
      000D54 AB 82            [24] 3560 	mov	r3,dpl
      000D56 AC 83            [24] 3561 	mov	r4,dph
      000D58 15 81            [12] 3562 	dec	sp
      000D5A 15 81            [12] 3563 	dec	sp
      000D5C 15 81            [12] 3564 	dec	sp
      000D5E EB               [12] 3565 	mov	a,r3
      000D5F 4C               [12] 3566 	orl	a,r4
      000D60 70 03            [24] 3567 	jnz	00168$
      000D62 02r0Fr5E         [24] 3568 	ljmp	00126$
      000D65                       3569 00168$:
      000D65                       3570 00106$:
                                   3571 ;	/home/user/contiki/core/net/mac/xmac.c:808: off();
      000D65 12r00r2E         [24] 3572 	lcall	_off
                                   3573 ;	/home/user/contiki/core/net/mac/xmac.c:814: for(i = 0; i < MAX_SEQNOS; ++i) {
      000D68 A8 81            [24] 3574 	mov	r0,sp
      000D6A 18               [12] 3575 	dec	r0
      000D6B E4               [12] 3576 	clr	a
      000D6C F6               [12] 3577 	mov	@r0,a
      000D6D 08               [12] 3578 	inc	r0
      000D6E F6               [12] 3579 	mov	@r0,a
      000D6F E5 81            [12] 3580 	mov	a,sp
      000D71 24 FA            [12] 3581 	add	a,#0xfa
      000D73 F8               [12] 3582 	mov	r0,a
      000D74 E4               [12] 3583 	clr	a
      000D75 F6               [12] 3584 	mov	@r0,a
      000D76 08               [12] 3585 	inc	r0
      000D77 F6               [12] 3586 	mov	@r0,a
      000D78                       3587 00122$:
                                   3588 ;	/home/user/contiki/core/net/mac/xmac.c:815: if(packetbuf_attr(PACKETBUF_ATTR_PACKET_ID) == received_seqnos[i].seqno &&
      000D78 75 82 0D         [24] 3589 	mov	dpl,#0x0D
      000D7B 12r00r00         [24] 3590 	lcall	_packetbuf_attr
      000D7E AF 82            [24] 3591 	mov	r7,dpl
      000D80 AE 83            [24] 3592 	mov	r6,dph
      000D82 E5 81            [12] 3593 	mov	a,sp
      000D84 24 FA            [12] 3594 	add	a,#0xfa
      000D86 F8               [12] 3595 	mov	r0,a
      000D87 E6               [12] 3596 	mov	a,@r0
      000D88 24r31            [12] 3597 	add	a,#_received_seqnos
      000D8A FB               [12] 3598 	mov	r3,a
      000D8B 08               [12] 3599 	inc	r0
      000D8C E6               [12] 3600 	mov	a,@r0
      000D8D 34s00            [12] 3601 	addc	a,#(_received_seqnos >> 8)
      000D8F FD               [12] 3602 	mov	r5,a
      000D90 8B 82            [24] 3603 	mov	dpl,r3
      000D92 8D 83            [24] 3604 	mov	dph,r5
      000D94 A3               [24] 3605 	inc	dptr
      000D95 A3               [24] 3606 	inc	dptr
      000D96 E0               [24] 3607 	movx	a,@dptr
      000D97 FA               [12] 3608 	mov	r2,a
      000D98 7C 00            [12] 3609 	mov	r4,#0x00
      000D9A EF               [12] 3610 	mov	a,r7
      000D9B B5 02 2C         [24] 3611 	cjne	a,ar2,00123$
      000D9E EE               [12] 3612 	mov	a,r6
      000D9F B5 04 28         [24] 3613 	cjne	a,ar4,00123$
                                   3614 ;	/home/user/contiki/core/net/mac/xmac.c:817: &received_seqnos[i].sender)) {
      000DA2 8D 04            [24] 3615 	mov	ar4,r5
      000DA4 8B 07            [24] 3616 	mov	ar7,r3
      000DA6 8C 06            [24] 3617 	mov	ar6,r4
      000DA8 7D 00            [12] 3618 	mov	r5,#0x00
                                   3619 ;	/home/user/contiki/core/net/mac/xmac.c:816: rimeaddr_cmp(packetbuf_addr(PACKETBUF_ADDR_SENDER),
      000DAA 75 82 18         [24] 3620 	mov	dpl,#0x18
      000DAD C0 07            [24] 3621 	push	ar7
      000DAF C0 06            [24] 3622 	push	ar6
      000DB1 C0 05            [24] 3623 	push	ar5
      000DB3 12r00r00         [24] 3624 	lcall	_packetbuf_addr
      000DB6 12r00r00         [24] 3625 	lcall	_rimeaddr_cmp
      000DB9 AB 82            [24] 3626 	mov	r3,dpl
      000DBB AC 83            [24] 3627 	mov	r4,dph
      000DBD 15 81            [12] 3628 	dec	sp
      000DBF 15 81            [12] 3629 	dec	sp
      000DC1 15 81            [12] 3630 	dec	sp
      000DC3 EB               [12] 3631 	mov	a,r3
      000DC4 4C               [12] 3632 	orl	a,r4
      000DC5 60 03            [24] 3633 	jz	00123$
                                   3634 ;	/home/user/contiki/core/net/mac/xmac.c:819: return;
      000DC7 02r0Fr5E         [24] 3635 	ljmp	00126$
      000DCA                       3636 00123$:
                                   3637 ;	/home/user/contiki/core/net/mac/xmac.c:814: for(i = 0; i < MAX_SEQNOS; ++i) {
      000DCA E5 81            [12] 3638 	mov	a,sp
      000DCC 24 FA            [12] 3639 	add	a,#0xfa
      000DCE F8               [12] 3640 	mov	r0,a
      000DCF 74 03            [12] 3641 	mov	a,#0x03
      000DD1 26               [12] 3642 	add	a,@r0
      000DD2 F6               [12] 3643 	mov	@r0,a
      000DD3 E4               [12] 3644 	clr	a
      000DD4 08               [12] 3645 	inc	r0
      000DD5 36               [12] 3646 	addc	a,@r0
      000DD6 F6               [12] 3647 	mov	@r0,a
      000DD7 A8 81            [24] 3648 	mov	r0,sp
      000DD9 18               [12] 3649 	dec	r0
      000DDA 06               [12] 3650 	inc	@r0
      000DDB B6 00 02         [24] 3651 	cjne	@r0,#0x00,00172$
      000DDE 08               [12] 3652 	inc	r0
      000DDF 06               [12] 3653 	inc	@r0
      000DE0                       3654 00172$:
      000DE0 A8 81            [24] 3655 	mov	r0,sp
      000DE2 18               [12] 3656 	dec	r0
      000DE3 C3               [12] 3657 	clr	c
      000DE4 E6               [12] 3658 	mov	a,@r0
      000DE5 94 08            [12] 3659 	subb	a,#0x08
      000DE7 08               [12] 3660 	inc	r0
      000DE8 E6               [12] 3661 	mov	a,@r0
      000DE9 64 80            [12] 3662 	xrl	a,#0x80
      000DEB 94 80            [12] 3663 	subb	a,#0x80
      000DED 50 03            [24] 3664 	jnc	00173$
      000DEF 02r0Dr78         [24] 3665 	ljmp	00122$
      000DF2                       3666 00173$:
                                   3667 ;	/home/user/contiki/core/net/mac/xmac.c:822: for(i = MAX_SEQNOS - 1; i > 0; --i) {
      000DF2 A8 81            [24] 3668 	mov	r0,sp
      000DF4 18               [12] 3669 	dec	r0
      000DF5 76 07            [12] 3670 	mov	@r0,#0x07
      000DF7 08               [12] 3671 	inc	r0
      000DF8 76 00            [12] 3672 	mov	@r0,#0x00
      000DFA E5 81            [12] 3673 	mov	a,sp
      000DFC 24 FC            [12] 3674 	add	a,#0xfc
      000DFE F8               [12] 3675 	mov	r0,a
      000DFF 76 15            [12] 3676 	mov	@r0,#0x15
      000E01 08               [12] 3677 	inc	r0
      000E02 76 00            [12] 3678 	mov	@r0,#0x00
      000E04                       3679 00124$:
                                   3680 ;	/home/user/contiki/core/net/mac/xmac.c:823: memcpy(&received_seqnos[i], &received_seqnos[i - 1],
      000E04 A8 81            [24] 3681 	mov	r0,sp
      000E06 18               [12] 3682 	dec	r0
      000E07 E6               [12] 3683 	mov	a,@r0
      000E08 FB               [12] 3684 	mov	r3,a
      000E09 14               [12] 3685 	dec	a
      000E0A C2 D5            [12] 3686 	clr	F0
      000E0C 75 F0 03         [24] 3687 	mov	b,#0x03
      000E0F 30 E7 04         [24] 3688 	jnb	acc.7,00174$
      000E12 B2 D5            [12] 3689 	cpl	F0
      000E14 F4               [12] 3690 	cpl	a
      000E15 04               [12] 3691 	inc	a
      000E16                       3692 00174$:
      000E16 A4               [48] 3693 	mul	ab
      000E17 30 D5 0A         [24] 3694 	jnb	F0,00175$
      000E1A F4               [12] 3695 	cpl	a
      000E1B 24 01            [12] 3696 	add	a,#0x01
      000E1D C5 F0            [12] 3697 	xch	a,b
      000E1F F4               [12] 3698 	cpl	a
      000E20 34 00            [12] 3699 	addc	a,#0x00
      000E22 C5 F0            [12] 3700 	xch	a,b
      000E24                       3701 00175$:
      000E24 24r31            [12] 3702 	add	a,#_received_seqnos
      000E26 FB               [12] 3703 	mov	r3,a
      000E27 74s00            [12] 3704 	mov	a,#(_received_seqnos >> 8)
      000E29 35 F0            [12] 3705 	addc	a,b
      000E2B FC               [12] 3706 	mov	r4,a
      000E2C 8B 07            [24] 3707 	mov	ar7,r3
      000E2E 8C 06            [24] 3708 	mov	ar6,r4
      000E30 7D 00            [12] 3709 	mov	r5,#0x00
      000E32 E5 81            [12] 3710 	mov	a,sp
      000E34 24 FC            [12] 3711 	add	a,#0xfc
      000E36 F8               [12] 3712 	mov	r0,a
      000E37 E6               [12] 3713 	mov	a,@r0
      000E38 24r31            [12] 3714 	add	a,#_received_seqnos
      000E3A FB               [12] 3715 	mov	r3,a
      000E3B 08               [12] 3716 	inc	r0
      000E3C E6               [12] 3717 	mov	a,@r0
      000E3D 34s00            [12] 3718 	addc	a,#(_received_seqnos >> 8)
      000E3F FC               [12] 3719 	mov	r4,a
      000E40 7A 00            [12] 3720 	mov	r2,#0x00
      000E42 74 03            [12] 3721 	mov	a,#0x03
      000E44 C0 E0            [24] 3722 	push	acc
      000E46 E4               [12] 3723 	clr	a
      000E47 C0 E0            [24] 3724 	push	acc
      000E49 C0 07            [24] 3725 	push	ar7
      000E4B C0 06            [24] 3726 	push	ar6
      000E4D C0 05            [24] 3727 	push	ar5
      000E4F 8B 82            [24] 3728 	mov	dpl,r3
      000E51 8C 83            [24] 3729 	mov	dph,r4
      000E53 8A F0            [24] 3730 	mov	b,r2
      000E55 12r00r00         [24] 3731 	lcall	_memcpy
      000E58 E5 81            [12] 3732 	mov	a,sp
      000E5A 24 FB            [12] 3733 	add	a,#0xfb
                                   3734 ;	/home/user/contiki/core/net/mac/xmac.c:822: for(i = MAX_SEQNOS - 1; i > 0; --i) {
      000E5C F5 81            [12] 3735 	mov	sp,a
      000E5E 24 FC            [12] 3736 	add	a,#0xfc
      000E60 F8               [12] 3737 	mov	r0,a
      000E61 E6               [12] 3738 	mov	a,@r0
      000E62 24 FD            [12] 3739 	add	a,#0xFD
      000E64 F6               [12] 3740 	mov	@r0,a
      000E65 08               [12] 3741 	inc	r0
      000E66 E6               [12] 3742 	mov	a,@r0
      000E67 34 FF            [12] 3743 	addc	a,#0xFF
      000E69 F6               [12] 3744 	mov	@r0,a
      000E6A A8 81            [24] 3745 	mov	r0,sp
      000E6C 18               [12] 3746 	dec	r0
      000E6D 16               [12] 3747 	dec	@r0
      000E6E B6 FF 02         [24] 3748 	cjne	@r0,#0xFF,00176$
      000E71 08               [12] 3749 	inc	r0
      000E72 16               [12] 3750 	dec	@r0
      000E73                       3751 00176$:
      000E73 A8 81            [24] 3752 	mov	r0,sp
      000E75 18               [12] 3753 	dec	r0
      000E76 C3               [12] 3754 	clr	c
      000E77 E4               [12] 3755 	clr	a
      000E78 96               [12] 3756 	subb	a,@r0
      000E79 E4               [12] 3757 	clr	a
      000E7A 64 80            [12] 3758 	xrl	a,#0x80
      000E7C 08               [12] 3759 	inc	r0
      000E7D 86 F0            [24] 3760 	mov	b,@r0
      000E7F 63 F0 80         [24] 3761 	xrl	b,#0x80
      000E82 95 F0            [12] 3762 	subb	a,b
      000E84 50 03            [24] 3763 	jnc	00177$
      000E86 02r0Er04         [24] 3764 	ljmp	00124$
      000E89                       3765 00177$:
                                   3766 ;	/home/user/contiki/core/net/mac/xmac.c:826: received_seqnos[0].seqno = packetbuf_attr(PACKETBUF_ATTR_PACKET_ID);
      000E89 75 82 0D         [24] 3767 	mov	dpl,#0x0D
      000E8C 12r00r00         [24] 3768 	lcall	_packetbuf_attr
      000E8F AB 82            [24] 3769 	mov	r3,dpl
      000E91 90r00r33         [24] 3770 	mov	dptr,#(_received_seqnos + 0x0002)
      000E94 EB               [12] 3771 	mov	a,r3
      000E95 F0               [24] 3772 	movx	@dptr,a
                                   3773 ;	/home/user/contiki/core/net/mac/xmac.c:828: packetbuf_addr(PACKETBUF_ADDR_SENDER));
      000E96 75 82 18         [24] 3774 	mov	dpl,#0x18
      000E99 12r00r00         [24] 3775 	lcall	_packetbuf_addr
      000E9C AA 82            [24] 3776 	mov	r2,dpl
      000E9E AB 83            [24] 3777 	mov	r3,dph
      000EA0 AC F0            [24] 3778 	mov	r4,b
                                   3779 ;	/home/user/contiki/core/net/mac/xmac.c:827: rimeaddr_copy(&received_seqnos[0].sender,
      000EA2 C0 02            [24] 3780 	push	ar2
      000EA4 C0 03            [24] 3781 	push	ar3
      000EA6 C0 04            [24] 3782 	push	ar4
      000EA8 90r00r31         [24] 3783 	mov	dptr,#_received_seqnos
      000EAB 75 F0 00         [24] 3784 	mov	b,#0x00
      000EAE 12r00r00         [24] 3785 	lcall	_rimeaddr_copy
      000EB1 15 81            [12] 3786 	dec	sp
      000EB3 15 81            [12] 3787 	dec	sp
      000EB5 15 81            [12] 3788 	dec	sp
                                   3789 ;	/home/user/contiki/core/net/mac/xmac.c:845: waiting_for_packet = 0;
      000EB7 90r00r09         [24] 3790 	mov	dptr,#_waiting_for_packet
      000EBA E4               [12] 3791 	clr	a
      000EBB F0               [24] 3792 	movx	@dptr,a
                                   3793 ;	/home/user/contiki/core/net/mac/xmac.c:848: NETSTACK_MAC.input();
      000EBC 90r00r07         [24] 3794 	mov	dptr,#(_csma_driver + 0x0007)
      000EBF E4               [12] 3795 	clr	a
      000EC0 93               [24] 3796 	movc	a,@a+dptr
      000EC1 FB               [12] 3797 	mov	r3,a
      000EC2 A3               [24] 3798 	inc	dptr
      000EC3 E4               [12] 3799 	clr	a
      000EC4 93               [24] 3800 	movc	a,@a+dptr
      000EC5 FC               [12] 3801 	mov	r4,a
      000EC6 C0 04            [24] 3802 	push	ar4
      000EC8 C0 03            [24] 3803 	push	ar3
      000ECA 8B 82            [24] 3804 	mov	dpl,r3
      000ECC 8C 83            [24] 3805 	mov	dph,r4
      000ECE 12r00r00         [24] 3806 	lcall	__sdcc_call_dptr
      000ED1 D0 03            [24] 3807 	pop	ar3
      000ED3 D0 04            [24] 3808 	pop	ar4
                                   3809 ;	/home/user/contiki/core/net/mac/xmac.c:849: return;
      000ED5 02r0Fr5E         [24] 3810 	ljmp	00126$
      000ED8                       3811 00118$:
                                   3812 ;	/home/user/contiki/core/net/mac/xmac.c:854: } else if(hdr->type == TYPE_STROBE) {
      000ED8 0D               [12] 3813 	inc	r5
      000ED9 BD 00 01         [24] 3814 	cjne	r5,#0x00,00178$
      000EDC 0E               [12] 3815 	inc	r6
      000EDD                       3816 00178$:
      000EDD 8D 82            [24] 3817 	mov	dpl,r5
      000EDF 8E 83            [24] 3818 	mov	dph,r6
      000EE1 8F F0            [24] 3819 	mov	b,r7
      000EE3 12r00r00         [24] 3820 	lcall	__gptrget
      000EE6 FD               [12] 3821 	mov	r5,a
      000EE7 BD 10 74         [24] 3822 	cjne	r5,#0x10,00126$
                                   3823 ;	/home/user/contiki/core/net/mac/xmac.c:855: someone_is_sending = 2;
      000EEA 90r00r0A         [24] 3824 	mov	dptr,#_someone_is_sending
      000EED 74 02            [12] 3825 	mov	a,#0x02
      000EEF F0               [24] 3826 	movx	@dptr,a
                                   3827 ;	/home/user/contiki/core/net/mac/xmac.c:858: &rimeaddr_node_addr)) {
                                   3828 ;	/home/user/contiki/core/net/mac/xmac.c:857: if(rimeaddr_cmp(packetbuf_addr(PACKETBUF_ADDR_RECEIVER),
      000EF0 75 82 19         [24] 3829 	mov	dpl,#0x19
      000EF3 12r00r00         [24] 3830 	lcall	_packetbuf_addr
      000EF6 AD 82            [24] 3831 	mov	r5,dpl
      000EF8 AE 83            [24] 3832 	mov	r6,dph
      000EFA AF F0            [24] 3833 	mov	r7,b
      000EFC 74r00            [12] 3834 	mov	a,#_rimeaddr_node_addr
      000EFE C0 E0            [24] 3835 	push	acc
      000F00 74s00            [12] 3836 	mov	a,#(_rimeaddr_node_addr >> 8)
      000F02 C0 E0            [24] 3837 	push	acc
      000F04 E4               [12] 3838 	clr	a
      000F05 C0 E0            [24] 3839 	push	acc
      000F07 8D 82            [24] 3840 	mov	dpl,r5
      000F09 8E 83            [24] 3841 	mov	dph,r6
      000F0B 8F F0            [24] 3842 	mov	b,r7
      000F0D 12r00r00         [24] 3843 	lcall	_rimeaddr_cmp
      000F10 AE 82            [24] 3844 	mov	r6,dpl
      000F12 AF 83            [24] 3845 	mov	r7,dph
      000F14 15 81            [12] 3846 	dec	sp
      000F16 15 81            [12] 3847 	dec	sp
      000F18 15 81            [12] 3848 	dec	sp
      000F1A EE               [12] 3849 	mov	a,r6
      000F1B 4F               [12] 3850 	orl	a,r7
      000F1C 60 08            [24] 3851 	jz	00112$
                                   3852 ;	/home/user/contiki/core/net/mac/xmac.c:865: waiting_for_packet = 1;
      000F1E 90r00r09         [24] 3853 	mov	dptr,#_waiting_for_packet
      000F21 74 01            [12] 3854 	mov	a,#0x01
      000F23 F0               [24] 3855 	movx	@dptr,a
      000F24 80 38            [24] 3856 	sjmp	00113$
      000F26                       3857 00112$:
                                   3858 ;	/home/user/contiki/core/net/mac/xmac.c:885: &rimeaddr_null)) {
                                   3859 ;	/home/user/contiki/core/net/mac/xmac.c:884: } else if(rimeaddr_cmp(packetbuf_addr(PACKETBUF_ADDR_RECEIVER),
      000F26 75 82 19         [24] 3860 	mov	dpl,#0x19
      000F29 12r00r00         [24] 3861 	lcall	_packetbuf_addr
      000F2C AD 82            [24] 3862 	mov	r5,dpl
      000F2E AE 83            [24] 3863 	mov	r6,dph
      000F30 AF F0            [24] 3864 	mov	r7,b
      000F32 74r00            [12] 3865 	mov	a,#_rimeaddr_null
      000F34 C0 E0            [24] 3866 	push	acc
      000F36 74s00            [12] 3867 	mov	a,#(_rimeaddr_null >> 8)
      000F38 C0 E0            [24] 3868 	push	acc
      000F3A 74 80            [12] 3869 	mov	a,#0x80
      000F3C C0 E0            [24] 3870 	push	acc
      000F3E 8D 82            [24] 3871 	mov	dpl,r5
      000F40 8E 83            [24] 3872 	mov	dph,r6
      000F42 8F F0            [24] 3873 	mov	b,r7
      000F44 12r00r00         [24] 3874 	lcall	_rimeaddr_cmp
      000F47 AE 82            [24] 3875 	mov	r6,dpl
      000F49 AF 83            [24] 3876 	mov	r7,dph
      000F4B 15 81            [12] 3877 	dec	sp
      000F4D 15 81            [12] 3878 	dec	sp
      000F4F 15 81            [12] 3879 	dec	sp
      000F51 EE               [12] 3880 	mov	a,r6
      000F52 4F               [12] 3881 	orl	a,r7
      000F53 60 09            [24] 3882 	jz	00113$
                                   3883 ;	/home/user/contiki/core/net/mac/xmac.c:890: waiting_for_packet = 1;
      000F55 90r00r09         [24] 3884 	mov	dptr,#_waiting_for_packet
      000F58 74 01            [12] 3885 	mov	a,#0x01
      000F5A F0               [24] 3886 	movx	@dptr,a
                                   3887 ;	/home/user/contiki/core/net/mac/xmac.c:891: on();
      000F5B 12r00r00         [24] 3888 	lcall	_on
      000F5E                       3889 00113$:
                                   3890 ;	/home/user/contiki/core/net/mac/xmac.c:898: return;
                                   3891 ;	/home/user/contiki/core/net/mac/xmac.c:904: } else if(hdr->type == TYPE_STROBE_ACK) {
      000F5E                       3892 00126$:
      000F5E E5 81            [12] 3893 	mov	a,sp
      000F60 24 F9            [12] 3894 	add	a,#0xF9
      000F62 F5 81            [12] 3895 	mov	sp,a
      000F64 22               [24] 3896 	ret
                                   3897 ;------------------------------------------------------------
                                   3898 ;Allocation info for local variables in function 'xmac_set_announcement_radio_txpower'
                                   3899 ;------------------------------------------------------------
                                   3900 ;txpower                   Allocated to registers 
                                   3901 ;------------------------------------------------------------
                                   3902 ;	/home/user/contiki/core/net/mac/xmac.c:964: xmac_set_announcement_radio_txpower(int txpower)
                                   3903 ;	-----------------------------------------
                                   3904 ;	 function xmac_set_announcement_radio_txpower
                                   3905 ;	-----------------------------------------
      000F65                       3906 _xmac_set_announcement_radio_txpower:
                                   3907 ;	/home/user/contiki/core/net/mac/xmac.c:969: }
      000F65 22               [24] 3908 	ret
                                   3909 ;------------------------------------------------------------
                                   3910 ;Allocation info for local variables in function 'init'
                                   3911 ;------------------------------------------------------------
                                   3912 ;	/home/user/contiki/core/net/mac/xmac.c:972: init(void)
                                   3913 ;	-----------------------------------------
                                   3914 ;	 function init
                                   3915 ;	-----------------------------------------
      000F66                       3916 _init:
                                   3917 ;	/home/user/contiki/core/net/mac/xmac.c:974: radio_is_on = 0;
      000F66 90r00r0C         [24] 3918 	mov	dptr,#_radio_is_on
                                   3919 ;	/home/user/contiki/core/net/mac/xmac.c:975: waiting_for_packet = 0;
                                   3920 ;	/home/user/contiki/core/net/mac/xmac.c:976: PT_INIT(&pt);
      000F69 E4               [12] 3921 	clr	a
      000F6A F0               [24] 3922 	movx	@dptr,a
      000F6B 90r00r09         [24] 3923 	mov	dptr,#_waiting_for_packet
      000F6E F0               [24] 3924 	movx	@dptr,a
      000F6F 90r00r07         [24] 3925 	mov	dptr,#_pt
      000F72 F0               [24] 3926 	movx	@dptr,a
      000F73 E4               [12] 3927 	clr	a
      000F74 A3               [24] 3928 	inc	dptr
      000F75 F0               [24] 3929 	movx	@dptr,a
                                   3930 ;	/home/user/contiki/core/net/mac/xmac.c:978: (void (*)(struct rtimer *, void *))powercycle, NULL);
      000F76 7ErF2            [12] 3931 	mov	r6,#_powercycle
      000F78 7Fs00            [12] 3932 	mov	r7,#(_powercycle >> 8)
                                   3933 ;	/home/user/contiki/core/net/mac/xmac.c:977: rtimer_set(&rt, RTIMER_NOW() + xmac_config.off_time, 1,
      000F7A AC E2            [24] 3934 	mov	r4,_T1CNTL
      000F7C 7D 00            [12] 3935 	mov	r5,#0x00
      000F7E AA E3            [24] 3936 	mov	r2,_T1CNTH
      000F80 8A 03            [24] 3937 	mov	ar3,r2
      000F82 E4               [12] 3938 	clr	a
      000F83 2C               [12] 3939 	add	a,r4
      000F84 FC               [12] 3940 	mov	r4,a
      000F85 EB               [12] 3941 	mov	a,r3
      000F86 3D               [12] 3942 	addc	a,r5
      000F87 FD               [12] 3943 	mov	r5,a
      000F88 90r00r02         [24] 3944 	mov	dptr,#(_xmac_config + 0x0002)
      000F8B E0               [24] 3945 	movx	a,@dptr
      000F8C FA               [12] 3946 	mov	r2,a
      000F8D A3               [24] 3947 	inc	dptr
      000F8E E0               [24] 3948 	movx	a,@dptr
      000F8F FB               [12] 3949 	mov	r3,a
      000F90 EA               [12] 3950 	mov	a,r2
      000F91 2C               [12] 3951 	add	a,r4
      000F92 FA               [12] 3952 	mov	r2,a
      000F93 EB               [12] 3953 	mov	a,r3
      000F94 3D               [12] 3954 	addc	a,r5
      000F95 FB               [12] 3955 	mov	r3,a
      000F96 E4               [12] 3956 	clr	a
      000F97 C0 E0            [24] 3957 	push	acc
      000F99 C0 E0            [24] 3958 	push	acc
      000F9B C0 E0            [24] 3959 	push	acc
      000F9D C0 06            [24] 3960 	push	ar6
      000F9F C0 07            [24] 3961 	push	ar7
      000FA1 74 01            [12] 3962 	mov	a,#0x01
      000FA3 C0 E0            [24] 3963 	push	acc
      000FA5 E4               [12] 3964 	clr	a
      000FA6 C0 E0            [24] 3965 	push	acc
      000FA8 C0 02            [24] 3966 	push	ar2
      000FAA C0 03            [24] 3967 	push	ar3
      000FAC 90r00r00         [24] 3968 	mov	dptr,#_rt
      000FAF 75 F0 00         [24] 3969 	mov	b,#0x00
      000FB2 12r00r00         [24] 3970 	lcall	_rtimer_set
      000FB5 E5 81            [12] 3971 	mov	a,sp
      000FB7 24 F7            [12] 3972 	add	a,#0xf7
      000FB9 F5 81            [12] 3973 	mov	sp,a
                                   3974 ;	/home/user/contiki/core/net/mac/xmac.c:980: xmac_is_on = 1;
      000FBB 90r00r08         [24] 3975 	mov	dptr,#_xmac_is_on
      000FBE 74 01            [12] 3976 	mov	a,#0x01
      000FC0 F0               [24] 3977 	movx	@dptr,a
                                   3978 ;	/home/user/contiki/core/net/mac/xmac.c:983: list_init(encounter_list);
      000FC1 90r00r10         [24] 3979 	mov	dptr,#_encounter_list
      000FC4 E0               [24] 3980 	movx	a,@dptr
      000FC5 FD               [12] 3981 	mov	r5,a
      000FC6 A3               [24] 3982 	inc	dptr
      000FC7 E0               [24] 3983 	movx	a,@dptr
      000FC8 FE               [12] 3984 	mov	r6,a
      000FC9 A3               [24] 3985 	inc	dptr
      000FCA E0               [24] 3986 	movx	a,@dptr
      000FCB FF               [12] 3987 	mov	r7,a
      000FCC 8D 82            [24] 3988 	mov	dpl,r5
      000FCE 8E 83            [24] 3989 	mov	dph,r6
      000FD0 8F F0            [24] 3990 	mov	b,r7
      000FD2 12r00r00         [24] 3991 	lcall	_list_init
                                   3992 ;	/home/user/contiki/core/net/mac/xmac.c:984: memb_init(&encounter_memb);
      000FD5 90r00r13         [24] 3993 	mov	dptr,#_encounter_memb
      000FD8 75 F0 00         [24] 3994 	mov	b,#0x00
      000FDB 02r00r00         [24] 3995 	ljmp	_memb_init
                                   3996 ;------------------------------------------------------------
                                   3997 ;Allocation info for local variables in function 'turn_on'
                                   3998 ;------------------------------------------------------------
                                   3999 ;	/home/user/contiki/core/net/mac/xmac.c:995: turn_on(void)
                                   4000 ;	-----------------------------------------
                                   4001 ;	 function turn_on
                                   4002 ;	-----------------------------------------
      000FDE                       4003 _turn_on:
                                   4004 ;	/home/user/contiki/core/net/mac/xmac.c:997: xmac_is_on = 1;
      000FDE 90r00r08         [24] 4005 	mov	dptr,#_xmac_is_on
      000FE1 74 01            [12] 4006 	mov	a,#0x01
      000FE3 F0               [24] 4007 	movx	@dptr,a
                                   4008 ;	/home/user/contiki/core/net/mac/xmac.c:999: (void (*)(struct rtimer *, void *))powercycle, NULL);
      000FE4 7ErF2            [12] 4009 	mov	r6,#_powercycle
      000FE6 7Fs00            [12] 4010 	mov	r7,#(_powercycle >> 8)
                                   4011 ;	/home/user/contiki/core/net/mac/xmac.c:998: rtimer_set(&rt, RTIMER_NOW() + xmac_config.off_time, 1,
      000FE8 AC E2            [24] 4012 	mov	r4,_T1CNTL
      000FEA 7D 00            [12] 4013 	mov	r5,#0x00
      000FEC AA E3            [24] 4014 	mov	r2,_T1CNTH
      000FEE 8A 03            [24] 4015 	mov	ar3,r2
      000FF0 E4               [12] 4016 	clr	a
      000FF1 2C               [12] 4017 	add	a,r4
      000FF2 FC               [12] 4018 	mov	r4,a
      000FF3 EB               [12] 4019 	mov	a,r3
      000FF4 3D               [12] 4020 	addc	a,r5
      000FF5 FD               [12] 4021 	mov	r5,a
      000FF6 90r00r02         [24] 4022 	mov	dptr,#(_xmac_config + 0x0002)
      000FF9 E0               [24] 4023 	movx	a,@dptr
      000FFA FA               [12] 4024 	mov	r2,a
      000FFB A3               [24] 4025 	inc	dptr
      000FFC E0               [24] 4026 	movx	a,@dptr
      000FFD FB               [12] 4027 	mov	r3,a
      000FFE EA               [12] 4028 	mov	a,r2
      000FFF 2C               [12] 4029 	add	a,r4
      001000 FA               [12] 4030 	mov	r2,a
      001001 EB               [12] 4031 	mov	a,r3
      001002 3D               [12] 4032 	addc	a,r5
      001003 FB               [12] 4033 	mov	r3,a
      001004 E4               [12] 4034 	clr	a
      001005 C0 E0            [24] 4035 	push	acc
      001007 C0 E0            [24] 4036 	push	acc
      001009 C0 E0            [24] 4037 	push	acc
      00100B C0 06            [24] 4038 	push	ar6
      00100D C0 07            [24] 4039 	push	ar7
      00100F 74 01            [12] 4040 	mov	a,#0x01
      001011 C0 E0            [24] 4041 	push	acc
      001013 E4               [12] 4042 	clr	a
      001014 C0 E0            [24] 4043 	push	acc
      001016 C0 02            [24] 4044 	push	ar2
      001018 C0 03            [24] 4045 	push	ar3
      00101A 90r00r00         [24] 4046 	mov	dptr,#_rt
      00101D 75 F0 00         [24] 4047 	mov	b,#0x00
      001020 12r00r00         [24] 4048 	lcall	_rtimer_set
      001023 E5 81            [12] 4049 	mov	a,sp
      001025 24 F7            [12] 4050 	add	a,#0xf7
      001027 F5 81            [12] 4051 	mov	sp,a
                                   4052 ;	/home/user/contiki/core/net/mac/xmac.c:1000: return 1;
      001029 90 00 01         [24] 4053 	mov	dptr,#0x0001
      00102C 22               [24] 4054 	ret
                                   4055 ;------------------------------------------------------------
                                   4056 ;Allocation info for local variables in function 'turn_off'
                                   4057 ;------------------------------------------------------------
                                   4058 ;keep_radio_on             Allocated to registers r6 r7 
                                   4059 ;------------------------------------------------------------
                                   4060 ;	/home/user/contiki/core/net/mac/xmac.c:1004: turn_off(int keep_radio_on)
                                   4061 ;	-----------------------------------------
                                   4062 ;	 function turn_off
                                   4063 ;	-----------------------------------------
      00102D                       4064 _turn_off:
      00102D AE 82            [24] 4065 	mov	r6,dpl
      00102F AF 83            [24] 4066 	mov	r7,dph
                                   4067 ;	/home/user/contiki/core/net/mac/xmac.c:1006: xmac_is_on = 0;
      001031 90r00r08         [24] 4068 	mov	dptr,#_xmac_is_on
      001034 E4               [12] 4069 	clr	a
      001035 F0               [24] 4070 	movx	@dptr,a
                                   4071 ;	/home/user/contiki/core/net/mac/xmac.c:1007: if(keep_radio_on) {
      001036 EE               [12] 4072 	mov	a,r6
      001037 4F               [12] 4073 	orl	a,r7
      001038 60 11            [24] 4074 	jz	00102$
                                   4075 ;	/home/user/contiki/core/net/mac/xmac.c:1008: return NETSTACK_RADIO.on();
      00103A 90r00r10         [24] 4076 	mov	dptr,#(_cc2530_rf_driver + 0x0010)
      00103D E4               [12] 4077 	clr	a
      00103E 93               [24] 4078 	movc	a,@a+dptr
      00103F FE               [12] 4079 	mov	r6,a
      001040 A3               [24] 4080 	inc	dptr
      001041 E4               [12] 4081 	clr	a
      001042 93               [24] 4082 	movc	a,@a+dptr
      001043 FF               [12] 4083 	mov	r7,a
      001044 8E 82            [24] 4084 	mov	dpl,r6
      001046 8F 83            [24] 4085 	mov	dph,r7
      001048 02r00r00         [24] 4086 	ljmp	__sdcc_call_dptr
      00104B                       4087 00102$:
                                   4088 ;	/home/user/contiki/core/net/mac/xmac.c:1010: return NETSTACK_RADIO.off();
      00104B 90r00r12         [24] 4089 	mov	dptr,#(_cc2530_rf_driver + 0x0012)
      00104E E4               [12] 4090 	clr	a
      00104F 93               [24] 4091 	movc	a,@a+dptr
      001050 FE               [12] 4092 	mov	r6,a
      001051 A3               [24] 4093 	inc	dptr
      001052 E4               [12] 4094 	clr	a
      001053 93               [24] 4095 	movc	a,@a+dptr
      001054 FF               [12] 4096 	mov	r7,a
      001055 8E 82            [24] 4097 	mov	dpl,r6
      001057 8F 83            [24] 4098 	mov	dph,r7
      001059 02r00r00         [24] 4099 	ljmp	__sdcc_call_dptr
                                   4100 ;------------------------------------------------------------
                                   4101 ;Allocation info for local variables in function 'channel_check_interval'
                                   4102 ;------------------------------------------------------------
                                   4103 ;	/home/user/contiki/core/net/mac/xmac.c:1015: channel_check_interval(void)
                                   4104 ;	-----------------------------------------
                                   4105 ;	 function channel_check_interval
                                   4106 ;	-----------------------------------------
      00105C                       4107 _channel_check_interval:
                                   4108 ;	/home/user/contiki/core/net/mac/xmac.c:1017: return (1ul * CLOCK_SECOND * DEFAULT_PERIOD) / RTIMER_ARCH_SECOND;
      00105C 90 00 0F         [24] 4109 	mov	dptr,#0x000F
      00105F 22               [24] 4110 	ret
                                   4111 	.area CSEG    (CODE)
                                   4112 	.area CONST   (CODE)
      000000                       4113 _xmac_driver:
      000000r11s00 80              4114 	.byte _str_0,(_str_0 >> 8),#0x80
      000003r66s0F                 4115 	.byte _init,(_init >> 8)
      000005r1Bs0C                 4116 	.byte _qsend_packet,(_qsend_packet >> 8)
      000007r68s0C                 4117 	.byte _qsend_list,(_qsend_list >> 8)
      000009rCDs0C                 4118 	.byte _input_packet,(_input_packet >> 8)
      00000BrDEs0F                 4119 	.byte _turn_on,(_turn_on >> 8)
      00000Dr2Ds10                 4120 	.byte _turn_off,(_turn_off >> 8)
      00000Fr5Cs10                 4121 	.byte _channel_check_interval,(_channel_check_interval >> 8)
      000011                       4122 _str_0:
      000011 58 2D 4D 41 43        4123 	.ascii "X-MAC"
      000016 00                    4124 	.db 0x00
                                   4125 	.area XINIT   (CODE)
      000000                       4126 __xinit__xmac_config:
      000000 61 00                 4127 	.byte #0x61,#0x00	; 97
      000002 40 07                 4128 	.byte #0x40,#0x07	; 1856
      000004 C4 08                 4129 	.byte #0xC4,#0x08	; 2244
      000006 3C 00                 4130 	.byte #0x3C,#0x00	; 60
      000008                       4131 __xinit__xmac_is_on:
      000008 00                    4132 	.db #0x00	; 0
      000009                       4133 __xinit__waiting_for_packet:
      000009 00                    4134 	.db #0x00	; 0
      00000A                       4135 __xinit__someone_is_sending:
      00000A 00                    4136 	.db #0x00	; 0
      00000B                       4137 __xinit__we_are_sending:
      00000B 00                    4138 	.db #0x00	; 0
      00000C                       4139 __xinit__radio_is_on:
      00000C 00                    4140 	.db #0x00	; 0
      00000D                       4141 __xinit__encounter_list_list:
                                   4142 ; generic printIvalPtr
      00000D 00 00 00              4143 	.byte #0x00,#0x00,#0x00
      000010                       4144 __xinit__encounter_list:
      000010r0Ds00 00              4145 	.byte _encounter_list_list,(_encounter_list_list >> 8),#0x00
      000013                       4146 __xinit__encounter_memb:
      000013 07 00                 4147 	.byte #0x07,#0x00	; 7
      000015 04 00                 4148 	.byte #0x04,#0x00	; 4
      000017r0As00 00              4149 	.byte _encounter_memb_memb_count,(_encounter_memb_memb_count >> 8),#0x00
      00001Ar0Es00 00              4150 	.byte _encounter_memb_memb_mem,(_encounter_memb_memb_mem >> 8),#0x00
                                   4151 	.area CABS    (ABS,CODE)
